###############################################################################
#
# IAR C/C++ Compiler V10.20.1.5333 for 8051               19/Jul/2019  22:07:50
# Copyright 2004-2018 IAR Systems AB.
# PC-locked license - IAR Embedded Workbench for 8051
#
#    Core               =  plain
#    Code model         =  banked
#    Data model         =  large
#    Calling convention =  xdata reentrant
#    Constant location  =  data_rom
#    Dptr setup         =  1,16
#                          
#    Source file        =  
#        F:\IAR\8051_work\IOTSystem\Gateway\Projects\zstack\Samples\SampleApp\Source\SampleApp.c
#    Command line       =  
#        -f C:\Users\MAC\AppData\Local\Temp\EWCFBF.tmp
#        (F:\IAR\8051_work\IOTSystem\Gateway\Projects\zstack\Samples\SampleApp\Source\SampleApp.c
#        -D HAL_LCD=FALSE -D ZTOOL_P1 -D xMT_TASK -D xMT_SYS_FUNC -D
#        xMT_ZDO_FUNC -D HAL_UART_DMA=1 -D HAL_UART_ISR=2 -lC
#        F:\IAR\8051_work\IOTSystem\Gateway\Projects\zstack\Samples\SampleApp\CC2530DB\CoordinatorEB\List
#        -lA
#        F:\IAR\8051_work\IOTSystem\Gateway\Projects\zstack\Samples\SampleApp\CC2530DB\CoordinatorEB\List
#        --diag_suppress Pe001,Pa010 -o
#        F:\IAR\8051_work\IOTSystem\Gateway\Projects\zstack\Samples\SampleApp\CC2530DB\CoordinatorEB\Obj
#        -e --debug --core=plain --dptr=16,1 --data_model=large
#        --code_model=banked --calling_convention=xdata_reentrant
#        --place_constants=data_rom --nr_virtual_regs 8 -f
#        F:\IAR\8051_work\IOTSystem\Gateway\Projects\zstack\Samples\SampleApp\CC2530DB\..\..\..\Tools\CC2530DB\f8wCoord.cfg
#        (-DCPU32MHZ -DROOT=__near_func -DMAC_CFG_APP_PENDING_QUEUE=TRUE
#        -DMAC_CFG_TX_DATA_MAX=5 -DMAC_CFG_TX_MAX=8 -DMAC_CFG_RX_MAX=5
#        -DZDO_COORDINATOR -DRTR_NWK) -f
#        F:\IAR\8051_work\IOTSystem\Gateway\Projects\zstack\Samples\SampleApp\CC2530DB\..\..\..\Tools\CC2530DB\f8wConfig.cfg
#        (-DZIGBEEPRO -DSECURE=0 -DZG_SECURE_DYNAMIC=0 -DREFLECTOR
#        -DDEFAULT_CHANLIST=0x00000800 -DZDAPP_CONFIG_PAN_ID=0xFF00
#        -DNWK_START_DELAY=100 -DEXTENDED_JOINING_RANDOM_MASK=0x007F
#        -DBEACON_REQUEST_DELAY=100 -DBEACON_REQ_DELAY_MASK=0x00FF
#        -DLINK_STATUS_JITTER_MASK=0x007F -DROUTE_EXPIRY_TIME=30
#        -DAPSC_ACK_WAIT_DURATION_POLLED=3000 -DNWK_INDIRECT_MSG_TIMEOUT=7
#        -DMAX_RREQ_ENTRIES=8 -DAPSC_MAX_FRAME_RETRIES=3
#        -DNWK_MAX_DATA_RETRIES=2 -DMAX_POLL_FAILURE_RETRIES=2 -DMAX_BCAST=9
#        -DAPS_MAX_GROUPS=16 -DMAX_RTG_ENTRIES=40 -DNWK_MAX_BINDING_ENTRIES=4
#        -DMAX_BINDING_CLUSTER_IDS=4 "-DDEFAULT_KEY={0x01, 0x03, 0x05, 0x07,
#        0x09, 0x0B, 0x0D, 0x0F, 0x00, 0x02, 0x04, 0x06, 0x08, 0x0A, 0x0C,
#        0x0D}" -DMAC_MAX_FRAME_SIZE=116 -DZDNWKMGR_MIN_TRANSMISSIONS=20
#        "-DCONST=const __code" -DGENERIC=__generic -DRFD_RCVC_ALWAYS_ON=FALSE
#        -DPOLL_RATE=1000 -DQUEUED_POLL_RATE=100 -DRESPONSE_POLL_RATE=100
#        -DREJOIN_POLL_RATE=440) -I
#        F:\IAR\8051_work\IOTSystem\Gateway\Projects\zstack\Samples\SampleApp\CC2530DB\
#        -I
#        F:\IAR\8051_work\IOTSystem\Gateway\Projects\zstack\Samples\SampleApp\CC2530DB\..\Source\
#        -I
#        F:\IAR\8051_work\IOTSystem\Gateway\Projects\zstack\Samples\SampleApp\CC2530DB\..\..\..\ZMain\TI2530DB\
#        -I
#        F:\IAR\8051_work\IOTSystem\Gateway\Projects\zstack\Samples\SampleApp\CC2530DB\..\..\..\..\..\Components\hal\include\
#        -I
#        F:\IAR\8051_work\IOTSystem\Gateway\Projects\zstack\Samples\SampleApp\CC2530DB\..\..\..\..\..\Components\hal\target\CC2530EB\
#        -I
#        F:\IAR\8051_work\IOTSystem\Gateway\Projects\zstack\Samples\SampleApp\CC2530DB\..\..\..\..\..\Components\mac\include\
#        -I
#        F:\IAR\8051_work\IOTSystem\Gateway\Projects\zstack\Samples\SampleApp\CC2530DB\..\..\..\..\..\Components\mac\high_level\
#        -I
#        F:\IAR\8051_work\IOTSystem\Gateway\Projects\zstack\Samples\SampleApp\CC2530DB\..\..\..\..\..\Components\mac\low_level\srf04\
#        -I
#        F:\IAR\8051_work\IOTSystem\Gateway\Projects\zstack\Samples\SampleApp\CC2530DB\..\..\..\..\..\Components\mac\low_level\srf04\single_chip\
#        -I
#        F:\IAR\8051_work\IOTSystem\Gateway\Projects\zstack\Samples\SampleApp\CC2530DB\..\..\..\..\..\Components\mt\
#        -I
#        F:\IAR\8051_work\IOTSystem\Gateway\Projects\zstack\Samples\SampleApp\CC2530DB\..\..\..\..\..\Components\osal\include\
#        -I
#        F:\IAR\8051_work\IOTSystem\Gateway\Projects\zstack\Samples\SampleApp\CC2530DB\..\..\..\..\..\Components\services\saddr\
#        -I
#        F:\IAR\8051_work\IOTSystem\Gateway\Projects\zstack\Samples\SampleApp\CC2530DB\..\..\..\..\..\Components\services\sdata\
#        -I
#        F:\IAR\8051_work\IOTSystem\Gateway\Projects\zstack\Samples\SampleApp\CC2530DB\..\..\..\..\..\Components\stack\af\
#        -I
#        F:\IAR\8051_work\IOTSystem\Gateway\Projects\zstack\Samples\SampleApp\CC2530DB\..\..\..\..\..\Components\stack\nwk\
#        -I
#        F:\IAR\8051_work\IOTSystem\Gateway\Projects\zstack\Samples\SampleApp\CC2530DB\..\..\..\..\..\Components\stack\sapi\
#        -I
#        F:\IAR\8051_work\IOTSystem\Gateway\Projects\zstack\Samples\SampleApp\CC2530DB\..\..\..\..\..\Components\stack\sec\
#        -I
#        F:\IAR\8051_work\IOTSystem\Gateway\Projects\zstack\Samples\SampleApp\CC2530DB\..\..\..\..\..\Components\stack\sys\
#        -I
#        F:\IAR\8051_work\IOTSystem\Gateway\Projects\zstack\Samples\SampleApp\CC2530DB\..\..\..\..\..\Components\stack\zdo\
#        -I
#        F:\IAR\8051_work\IOTSystem\Gateway\Projects\zstack\Samples\SampleApp\CC2530DB\..\..\..\..\..\Components\zmac\
#        -I
#        F:\IAR\8051_work\IOTSystem\Gateway\Projects\zstack\Samples\SampleApp\CC2530DB\..\..\..\..\..\Components\zmac\f8w\
#        -Ohz --no_code_motion)
#    Locale             =  Chinese (Simplified)_CHN.936
#    List file          =  
#        F:\IAR\8051_work\IOTSystem\Gateway\Projects\zstack\Samples\SampleApp\CC2530DB\CoordinatorEB\List\SampleApp.lst
#    Object file        =  
#        F:\IAR\8051_work\IOTSystem\Gateway\Projects\zstack\Samples\SampleApp\CC2530DB\CoordinatorEB\Obj\SampleApp.r51
#
###############################################################################

F:\IAR\8051_work\IOTSystem\Gateway\Projects\zstack\Samples\SampleApp\Source\SampleApp.c
      1          /*********************************************************************
      2              This application isn't intended to do anything useful, it is
      3              intended to be a simple example of an application's structure.
      4          
      5              This application sends it's messages either as broadcast or
      6              broadcast filtered group messages.    The other (more normal)
      7              message addressing is unicast.    Most of the other sample
      8              applications are written to support the unicast message model.
      9          
     10              Key control:
     11                  SW1:    Sends a flash command to all devices in Group 1.
     12                  SW2:    Adds/Removes (toggles) this device in and out
     13                          of Group 1.    This will enable and disable the
     14                          reception of the flash command.
     15          *********************************************************************/
     16          
     17          #include "OSAL.h"
     18          #include "OSAL_Nv.h"
     19          #include "ZGlobals.h"
     20          #include "AF.h"
     21          #include "aps_groups.h"
     22          #include "ZDApp.h"
     23          
     24          #include "SampleApp.h"
     25          #include "SampleAppHw.h"
     26          
     27          #include "OnBoard.h"

   \                                 In  segment SFR_AN, at 0x80
   \   union <unnamed> volatile __sfr _A_P0
   \                     _A_P0:
   \   000000                DS 1
     28          
     29          /* HAL */
     30          #include "hal_lcd.h"
     31          #include "hal_led.h"
     32          #include "hal_key.h"
     33          #include "hal_uart.h"
     34          #include "MT_UART.h"
     35          
     36          /* SYS */
     37          #include <string.h>
     38          #include <stdio.h>
     39          #include <stdarg.h>
     40          
     41          #define UartDefaultRxLen 50
     42          #define UartDefaultTxLen 64
     43          #define Key_S1 P0_0
     44          #define Key_S2 P0_1
     45          #define Key_Active 0
     46          #define LED_RED P1_0
     47          #define LED_YELLOW P1_1
     48          #define LED_ORANGE P1_4
     49          
     50          // 可行范围：0x0401 — 0x0FFF
     51          #define ZD_NV_IP_ID 0x0440
     52          #define ZD_NV_PORT_ID 0x0430
     53          #define ZD_NV_SSID_ID 0x0420
     54          #define ZD_NV_PSWD_ID 0x0410
     55          
     56          // 长度定义，需为4的整数倍
     57          // 实际长度 <= LENGTH - 1
     58          #define SSID_MAX_LENGTH 20
     59          #define PSWD_MAX_LENGTH 20
     60          #define PORT_MAX_LENGTH 8
     61          #define IP_MAX_LENGTH   16
     62          
     63          #define isPressed(x) (x == Key_Active)
     64          #define print(x,...) _UARTSend(1,x,##__VA_ARGS__)
     65          #define debug(x,...) _UARTSend(0,x,##__VA_ARGS__)
     66          #define debug_and_print(x,...) do{\
     67              _UARTSend(0,x,##__VA_ARGS__);\
     68              _UARTSend(1,x,##__VA_ARGS__);\
     69          }while(0)
     70          
     71          void _UARTSend(uint8 port, uint8 *fmt, ...);
     72          void _UARTRead(uint8 port, uint8 *buf, uint16 *len);
     73          void _delay_us(uint16 n);
     74          void _delay_ms(uint16 n);
     75          uint8 wait_for(uint8 *str, uint8 *err, uint16 timeout);
     76          void exit_send(void);
     77          uint16 WiFiRecv(uint8 *buff);
     78          
     79          // This list should be filled with Application specific Cluster IDs.

   \                                 In  segment XDATA_ROM_C, align 1
     80          const cId_t SampleApp_ClusterList[SAMPLEAPP_MAX_CLUSTERS] =
   \                     SampleApp_ClusterList:
   \   000000   0100         DW 1
   \   000002   0200         DW 2
     81          {
     82              SAMPLEAPP_PERIODIC_CLUSTERID,
     83              SAMPLEAPP_FLASH_CLUSTERID
     84          };
     85          

   \                                 In  segment XDATA_ROM_C, align 1
     86          const SimpleDescriptionFormat_t SampleApp_SimpleDesc =
   \                     SampleApp_SimpleDesc:
   \   000000   14           DB 20
   \   000001   080F         DW 3848
   \   000003   0100         DW 1
   \   000005   00           DB 0
   \   000006   02           DB 2
   \   000007   ....         DW SampleApp_ClusterList
   \   000009   02           DB 2
   \   00000A   ....         DW SampleApp_ClusterList
     87          {
     88              SAMPLEAPP_ENDPOINT,                //    int    Endpoint;
     89              SAMPLEAPP_PROFID,                  //    uint16 AppProfId[2];
     90              SAMPLEAPP_DEVICEID,                //    uint16 AppDeviceId[2];
     91              SAMPLEAPP_DEVICE_VERSION,          //    int    AppDevVer:4;
     92              SAMPLEAPP_FLAGS,                   //    int    AppFlags:4;
     93              SAMPLEAPP_MAX_CLUSTERS,            //    uint8  AppNumInClusters;
     94              (cId_t *)SampleApp_ClusterList,    //    uint8  *pAppInClusterList;
     95              SAMPLEAPP_MAX_CLUSTERS,            //    uint8  AppNumInClusters;
     96              (cId_t *)SampleApp_ClusterList     //    uint8  *pAppInClusterList;
     97          };
     98          
     99          // This is the Endpoint/Interface description.    It is defined here, but
    100          // filled-in in SampleApp_Init().    Another way to go would be to fill
    101          // in the structure here and make it a "const" (in code space).    The
    102          // way it's defined in this sample app it is define in RAM.

   \                                 In  segment XDATA_Z, align 1, keep-with-next
    103          endPointDesc_t SampleApp_epDesc;
   \                     SampleApp_epDesc:
   \   000000                DS 6
   \   000006                REQUIRE __INIT_XDATA_Z
    104          
    105          /*********************************************************************
    106           * EXTERNAL VARIABLES
    107           */
    108          
    109          /*********************************************************************
    110           * EXTERNAL FUNCTIONS
    111           */
    112          
    113          /*********************************************************************
    114           * LOCAL VARIABLES
    115           */

   \                                 In  segment XDATA_Z, align 1, keep-with-next
    116          uint8 SampleApp_TaskID;     // Task ID for internal task/event processing
   \                     SampleApp_TaskID:
   \   000000                DS 1
   \   000001                REQUIRE __INIT_XDATA_Z
    117                                      // This variable will be received when
    118                                      // SampleApp_Init() is called.

   \                                 In  segment XDATA_Z, align 1, keep-with-next
    119          devStates_t SampleApp_NwkState;
   \                     SampleApp_NwkState:
   \   000000                DS 1
   \   000001                REQUIRE __INIT_XDATA_Z
    120          

   \                                 In  segment XDATA_Z, align 1, keep-with-next
    121          uint8 SampleApp_TransID;    // This is the unique message ID (counter)
   \                     SampleApp_TransID:
   \   000000                DS 1
   \   000001                REQUIRE __INIT_XDATA_Z
    122          

   \                                 In  segment XDATA_Z, align 1, keep-with-next
    123          afAddrType_t SampleApp_Periodic_DstAddr;
   \                     SampleApp_Periodic_DstAddr:
   \   000000                DS 12
   \   00000C                REQUIRE __INIT_XDATA_Z

   \                                 In  segment XDATA_Z, align 1, keep-with-next
    124          afAddrType_t SampleApp_Flash_DstAddr;
   \                     SampleApp_Flash_DstAddr:
   \   000000                DS 12
   \   00000C                REQUIRE __INIT_XDATA_Z
    125          

   \                                 In  segment XDATA_Z, align 1, keep-with-next
    126          aps_Group_t SampleApp_Group;
   \                     SampleApp_Group:
   \   000000                DS 18
   \   000012                REQUIRE __INIT_XDATA_Z
    127          

   \                                 In  segment XDATA_Z, align 1, keep-with-next
    128          uint8 SampleAppPeriodicCounter = 0;
   \                     SampleAppPeriodicCounter:
   \   000000                DS 1
   \   000001                REQUIRE __INIT_XDATA_Z

   \                                 In  segment XDATA_Z, align 1, keep-with-next
    129          uint8 SampleAppFlashCounter = 0;
   \                     SampleAppFlashCounter:
   \   000000                DS 1
   \   000001                REQUIRE __INIT_XDATA_Z
    130          
    131          /*********************************************************************
    132           * LOCAL FUNCTIONS
    133           */
    134          void SampleApp_HandleKeys( uint8 shift, uint8 keys );
    135          void SampleApp_MessageMSGCB( afIncomingMSGPacket_t *pckt );
    136          void SampleApp_SendPeriodicMessage( void );
    137          void SampleApp_SendFlashMessage( uint16 flashTime );
    138          
    139          /*********************************************************************
    140           * NETWORK LAYER CALLBACKS
    141           */
    142          
    143          /*********************************************************************
    144           * PUBLIC FUNCTIONS
    145           */
    146          
    147          /*********************************************************************
    148           * @fn            SampleApp_Init
    149           *
    150           * @brief     Initialization function for the Generic App Task.
    151           *            This is called during initialization and should contain
    152           *            any application specific initialization (ie. hardware
    153           *            initialization/setup, table initialization, power up
    154           *            notificaiton ... ).
    155           *
    156           * @param     task_id - the ID assigned by OSAL.    This ID should be
    157           *            used to send messages and set timers.
    158           *
    159           * @return    none
    160           */

   \                                 In  segment BANKED_CODE, align 1, keep-with-next
    161          void SampleApp_Init( uint8 task_id )
   \                     SampleApp_Init:
    162          {
   \   000000                REQUIRE ?V0
   \   000000                REQUIRE ?V1
   \   000000                REQUIRE ?V2
   \   000000   74F5         MOV       A,#-0xb
   \   000002   12....       LCALL     ?BANKED_ENTER_XDATA
   \   000005                ; Saved register size: 11
   \   000005                ; Auto size: 0
   \   000005   E9           MOV       A,R1
   \   000006   FE           MOV       R6,A
    163              SampleApp_TaskID = task_id;
   \   000007   90....       MOV       DPTR,#SampleApp_TaskID
   \   00000A   F0           MOVX      @DPTR,A
    164              SampleApp_NwkState = DEV_INIT;
   \   00000B   90....       MOV       DPTR,#SampleApp_NwkState
   \   00000E   7401         MOV       A,#0x1
   \   000010   F0           MOVX      @DPTR,A
    165              SampleApp_TransID = 0;
   \   000011   90....       MOV       DPTR,#SampleApp_TransID
   \   000014   E4           CLR       A
   \   000015   F0           MOVX      @DPTR,A
    166              
    167              MT_UartInit();
   \   000016                ; Setup parameters for call to function MT_UartInit
   \   000016   12....       LCALL     `??MT_UartInit::?relay`; Banked call to: MT_UartInit
    168              MT_UartRegisterTaskID(task_id);
   \   000019                ; Setup parameters for call to function MT_UartRegisterTaskID
   \   000019   EE           MOV       A,R6
   \   00001A   F9           MOV       R1,A
   \   00001B   12....       LCALL     `??MT_UartRegisterTaskID::?relay`; Banked call to: MT_UartRegisterTaskID
    169              
    170              // Device hardware initialization can be added here or in main() (Zmain.c).
    171              // If the hardware is application specific - add it here.
    172              // If the hardware is other parts of the device add it in main().
    173          
    174           #if defined ( BUILD_ALL_DEVICES )
    175              // The "Demo" target is setup to have BUILD_ALL_DEVICES and HOLD_AUTO_START
    176              // We are looking at a jumper (defined in SampleAppHw.c) to be jumpered
    177              // together - if they are - we will start up a coordinator. Otherwise,
    178              // the device will start as a router.
    179              if ( readCoordinatorJumper() )
    180                  zgDeviceLogicalType = ZG_DEVICETYPE_COORDINATOR;
    181              else
    182                  zgDeviceLogicalType = ZG_DEVICETYPE_ROUTER;
    183          #endif // BUILD_ALL_DEVICES
    184          
    185          #if defined ( HOLD_AUTO_START )
    186              // HOLD_AUTO_START is a compile option that will surpress ZDApp
    187              //    from starting the device and wait for the application to
    188              //    start the device.
    189              ZDOInitDevice(0);
    190          #endif
    191          
    192              // Setup for the periodic message's destination address
    193              // Broadcast to everyone
    194              SampleApp_Periodic_DstAddr.addrMode = (afAddrMode_t)AddrBroadcast;
   \   00001E   90....       MOV       DPTR,#SampleApp_Periodic_DstAddr + 8
   \   000021   740F         MOV       A,#0xf
   \   000023   F0           MOVX      @DPTR,A
    195              SampleApp_Periodic_DstAddr.endPoint = SAMPLEAPP_ENDPOINT;
   \   000024   A3           INC       DPTR
   \   000025   7414         MOV       A,#0x14
   \   000027   F0           MOVX      @DPTR,A
    196              SampleApp_Periodic_DstAddr.addr.shortAddr = 0xFFFF;
   \   000028   90....       MOV       DPTR,#SampleApp_Periodic_DstAddr
   \   00002B   74FF         MOV       A,#-0x1
   \   00002D   F0           MOVX      @DPTR,A
   \   00002E   A3           INC       DPTR
   \   00002F   F0           MOVX      @DPTR,A
    197          
    198              // Setup for the flash command's destination address - Group 1
    199              SampleApp_Flash_DstAddr.addrMode = (afAddrMode_t)afAddrGroup;
   \   000030   90....       MOV       DPTR,#SampleApp_Flash_DstAddr + 8
   \   000033   7401         MOV       A,#0x1
   \   000035   F0           MOVX      @DPTR,A
    200              SampleApp_Flash_DstAddr.endPoint = SAMPLEAPP_ENDPOINT;
   \   000036   A3           INC       DPTR
   \   000037   7414         MOV       A,#0x14
   \   000039   F0           MOVX      @DPTR,A
    201              SampleApp_Flash_DstAddr.addr.shortAddr = SAMPLEAPP_FLASH_GROUP;
   \   00003A   90....       MOV       DPTR,#SampleApp_Flash_DstAddr
   \   00003D   12....       LCALL     ?Subroutine3 & 0xFFFF
    202          
    203              // Fill out the endpoint description.
    204              SampleApp_epDesc.endPoint = SAMPLEAPP_ENDPOINT;
   \                     ??CrossCallReturnLabel_76:
   \   000040   90....       MOV       DPTR,#SampleApp_epDesc
   \   000043   7414         MOV       A,#0x14
   \   000045   F0           MOVX      @DPTR,A
    205              SampleApp_epDesc.task_id = &SampleApp_TaskID;
   \   000046   A3           INC       DPTR
   \   000047   74..         MOV       A,#SampleApp_TaskID & 0xff
   \   000049   F0           MOVX      @DPTR,A
   \   00004A   A3           INC       DPTR
   \   00004B   74..         MOV       A,#(SampleApp_TaskID >> 8) & 0xff
   \   00004D   F0           MOVX      @DPTR,A
    206              SampleApp_epDesc.simpleDesc
    207                  = (SimpleDescriptionFormat_t *)&SampleApp_SimpleDesc;
   \   00004E   A3           INC       DPTR
   \   00004F   74..         MOV       A,#SampleApp_SimpleDesc & 0xff
   \   000051   F0           MOVX      @DPTR,A
   \   000052   A3           INC       DPTR
   \   000053   74..         MOV       A,#(SampleApp_SimpleDesc >> 8) & 0xff
   \   000055   12....       LCALL     ??Subroutine30_0 & 0xFFFF
    208              SampleApp_epDesc.latencyReq = noLatencyReqs;
    209          
    210              // Register the endpoint description with the AF
    211              afRegister( &SampleApp_epDesc );
   \                     ??CrossCallReturnLabel_72:
   \   000058                ; Setup parameters for call to function afRegister
   \   000058   7A..         MOV       R2,#SampleApp_epDesc & 0xff
   \   00005A   7B..         MOV       R3,#(SampleApp_epDesc >> 8) & 0xff
   \   00005C   12....       LCALL     `??afRegister::?relay`; Banked call to: afRegister
    212          
    213              // Register for all key events - This app will handle all key events
    214              RegisterForKeys( SampleApp_TaskID );
   \   00005F                ; Setup parameters for call to function RegisterForKeys
   \   00005F   90....       MOV       DPTR,#SampleApp_TaskID
   \   000062   E0           MOVX      A,@DPTR
   \   000063   F9           MOV       R1,A
   \   000064   12....       LCALL     `??RegisterForKeys::?relay`; Banked call to: RegisterForKeys
    215          
    216              // By default, all devices start out in Group 1
    217              SampleApp_Group.ID = 0x0001;
   \   000067   90....       MOV       DPTR,#SampleApp_Group
   \   00006A   12....       LCALL     ?Subroutine3 & 0xFFFF
    218              osal_memcpy(SampleApp_Group.name, "Group 1", 7);
   \                     ??CrossCallReturnLabel_77:
   \   00006D                ; Setup parameters for call to function osal_memcpy
   \   00006D   75....       MOV       ?V0,#`?<Constant "Group 1">` & 0xff
   \   000070   75....       MOV       ?V1,#(`?<Constant "Group 1">` >> 8) & 0xff
   \   000073   F5..         MOV       ?V2,A
   \   000075   78..         MOV       R0,#?V0
   \   000077   12....       LCALL     ?PUSH_XSTACK_I_THREE
   \   00007A   7C07         MOV       R4,#0x7
   \   00007C   7D00         MOV       R5,#0x0
   \   00007E   7A..         MOV       R2,#(SampleApp_Group + 2) & 0xff
   \   000080   7B..         MOV       R3,#((SampleApp_Group + 2) >> 8) & 0xff
   \   000082   12....       LCALL     `??osal_memcpy::?relay`; Banked call to: osal_memcpy
   \   000085   7403         MOV       A,#0x3
   \   000087   12....       LCALL     ?DEALLOC_XSTACK8
    219              aps_AddGroup(SAMPLEAPP_ENDPOINT, &SampleApp_Group);
   \   00008A                ; Setup parameters for call to function aps_AddGroup
   \   00008A   7A..         MOV       R2,#SampleApp_Group & 0xff
   \   00008C   7B..         MOV       R3,#(SampleApp_Group >> 8) & 0xff
   \   00008E   7914         MOV       R1,#0x14
   \   000090   12....       LCALL     `??aps_AddGroup::?relay`; Banked call to: aps_AddGroup
    220          
    221          #if defined ( LCD_SUPPORTED )
    222              HalLcdWriteString( "SampleApp", HAL_LCD_LINE_1 );
    223          #endif
    224              osal_set_event(SampleApp_TaskID, SAMPLEAPP_INITIALIZE_UART_EVT);
   \   000093                ; Setup parameters for call to function osal_set_event
   \   000093   7A02         MOV       R2,#0x2
   \   000095   12....       LCALL     ??Subroutine29_0 & 0xFFFF
    225          }
   \                     ??CrossCallReturnLabel_69:
   \   000098   7F03         MOV       R7,#0x3
   \   00009A   02....       LJMP      ?BANKED_LEAVE_XDATA

   \                                 In  segment BANKED_CODE, align 1, keep-with-next
   \                     ??Subroutine29_0:
   \   000000   7B00         MOV       R3,#0x0
   \   000002   90....       MOV       DPTR,#SampleApp_TaskID
   \   000005   E0           MOVX      A,@DPTR
   \   000006   F9           MOV       R1,A
   \   000007   12....       LCALL     `??osal_set_event::?relay`; Banked call to: osal_set_event
   \   00000A   22           RET

   \                                 In  segment BANKED_CODE, align 1, keep-with-next
   \                     ?Subroutine3:
   \   000000   7401         MOV       A,#0x1
   \   000002                REQUIRE ??Subroutine30_0
   \   000002                ; // Fall through to label ??Subroutine30_0

   \                                 In  segment BANKED_CODE, align 1, keep-with-next
   \                     ??Subroutine30_0:
   \   000000   F0           MOVX      @DPTR,A
   \   000001   A3           INC       DPTR
   \   000002   E4           CLR       A
   \   000003   F0           MOVX      @DPTR,A
   \   000004   22           RET
    226          
    227          /*********************************************************************
    228           * @fn        SampleApp_ProcessEvent
    229           *
    230           * @brief     Generic Application Task event processor.    This function
    231           *            is called to process all events for the task.    Events
    232           *            include timers, messages and any other user defined events.
    233           *
    234           * @param     task_id    - The OSAL assigned task ID.
    235           * @param     events - events to process.    This is a bit map and can
    236           *            contain more than one event.
    237           *
    238           * @return    none
    239           */

   \                                 In  segment BANKED_CODE, align 1, keep-with-next
    240          uint16 SampleApp_ProcessEvent( uint8 task_id, uint16 events )
   \                     SampleApp_ProcessEvent:
    241          {
   \   000000                REQUIRE ?V0
   \   000000                REQUIRE ?V1
   \   000000                REQUIRE ?V2
   \   000000                REQUIRE ?V3
   \   000000                REQUIRE ?V4
   \   000000                REQUIRE ?V5
   \   000000                REQUIRE ?V6
   \   000000                REQUIRE ?V7
   \   000000   74F0         MOV       A,#-0x10
   \   000002   12....       LCALL     ?BANKED_ENTER_XDATA
   \   000005                ; Saved register size: 16
   \   000005                ; Auto size: 143
   \   000005   7471         MOV       A,#0x71
   \   000007   12....       LCALL     ?ALLOC_XSTACK8
   \   00000A   EA           MOV       A,R2
   \   00000B   FE           MOV       R6,A
   \   00000C   EB           MOV       A,R3
   \   00000D   FF           MOV       R7,A
    242              afIncomingMSGPacket_t *MSGpkt;
    243              halUARTCfg_t uartConfig;
    244              uint8 _buffer[UartDefaultRxLen];
    245              uint8 InitNVStatus, readNVStatus, writeNVStatus;
    246              uint8 SSID[SSID_MAX_LENGTH], PSWD[PSWD_MAX_LENGTH];
    247              uint8 PORT[PORT_MAX_LENGTH], MYIP[IP_MAX_LENGTH];
    248              uint16 length, nv_id, nv_len, prefix_len;
    249              (void)task_id;    // Intentionally unreferenced parameter
    250              if ( events & SYS_EVENT_MSG )
   \   00000E   5480         ANL       A,#0x80
   \   000010   6058         JZ        ??SampleApp_ProcessEvent_0
    251              {
    252                  MSGpkt = (afIncomingMSGPacket_t *)osal_msg_receive( SampleApp_TaskID );
   \   000012                ; Setup parameters for call to function osal_msg_receive
   \   000012   8022         SJMP      ??SampleApp_ProcessEvent_1
    253                  while ( MSGpkt )
    254                  {
    255                      switch ( MSGpkt->hdr.event )
    256                      {
    257                          // Received when a key is pressed
    258                          case KEY_CHANGE:
    259                              SampleApp_HandleKeys( ((keyChange_t *)MSGpkt)->state,
    260                                  ((keyChange_t *)MSGpkt)->keys );
    261                              break;
    262          
    263                          // Received when a messages is received (OTA) for this endpoint
    264                          case AF_INCOMING_MSG_CMD:
    265                              SampleApp_MessageMSGCB( MSGpkt );
    266                              break;
    267          
    268                          // Received whenever the device changes state in the network
    269                          case ZDO_STATE_CHANGE:
    270                              SampleApp_NwkState = (devStates_t)(MSGpkt->hdr.status);
   \                     ??SampleApp_ProcessEvent_2:
   \   000014   A3           INC       DPTR
   \   000015   E0           MOVX      A,@DPTR
   \   000016   90....       MOV       DPTR,#SampleApp_NwkState
   \   000019   F0           MOVX      @DPTR,A
    271                              if ( (SampleApp_NwkState == DEV_ZB_COORD)
    272                                      || (SampleApp_NwkState == DEV_ROUTER)
    273                                      || (SampleApp_NwkState == DEV_END_DEVICE) ) {
   \   00001A   6409         XRL       A,#0x9
   \   00001C   600A         JZ        ??SampleApp_ProcessEvent_3
   \   00001E   E0           MOVX      A,@DPTR
   \   00001F   6407         XRL       A,#0x7
   \   000021   6005         JZ        ??SampleApp_ProcessEvent_3
   \   000023   E0           MOVX      A,@DPTR
   \   000024   6406         XRL       A,#0x6
   \   000026   7007         JNZ       ??CrossCallReturnLabel_64
    274                                  // Start sending the periodic message in a regular interval.
    275                                  osal_start_timerEx( SampleApp_TaskID,
    276                                      SAMPLEAPP_SEND_PERIODIC_MSG_EVT,
    277                                      SAMPLEAPP_SEND_PERIODIC_MSG_TIMEOUT );
   \                     ??SampleApp_ProcessEvent_3:
   \   000028                ; Setup parameters for call to function osal_start_timerEx
   \   000028   7C88         MOV       R4,#-0x78
   \   00002A   7D13         MOV       R5,#0x13
   \   00002C   12....       LCALL     ?Subroutine7 & 0xFFFF
    278                              } else {
    279                                  // Device is no longer in the network
    280                              }
    281                              break;
    282          
    283                          default:
    284                              break;
    285                      }
    286          
    287                      // Release the memory
    288                      osal_msg_deallocate( (uint8 *)MSGpkt );
   \                     ??CrossCallReturnLabel_64:
   \   00002F                ; Setup parameters for call to function osal_msg_deallocate
   \   00002F   AA..         MOV       R2,?V0
   \   000031   AB..         MOV       R3,?V1
   \   000033   12....       LCALL     `??osal_msg_deallocate::?relay`; Banked call to: osal_msg_deallocate
    289          
    290                      // Next - if one is available
    291                      MSGpkt = (afIncomingMSGPacket_t *)osal_msg_receive( SampleApp_TaskID );
   \   000036                ; Setup parameters for call to function osal_msg_receive
   \                     ??SampleApp_ProcessEvent_1:
   \   000036   90....       MOV       DPTR,#SampleApp_TaskID
   \   000039   E0           MOVX      A,@DPTR
   \   00003A   F9           MOV       R1,A
   \   00003B   12....       LCALL     `??osal_msg_receive::?relay`; Banked call to: osal_msg_receive
   \   00003E   8A..         MOV       ?V0,R2
   \   000040   8B..         MOV       ?V1,R3
   \   000042   E5..         MOV       A,?V0
   \   000044   45..         ORL       A,?V1
   \   000046   601A         JZ        ??SampleApp_ProcessEvent_4
   \   000048   85..82       MOV       DPL,?V0
   \   00004B   85..83       MOV       DPH,?V1
   \   00004E   E0           MOVX      A,@DPTR
   \   00004F   24E6         ADD       A,#-0x1a
   \   000051   6006         JZ        ??SampleApp_ProcessEvent_5
   \   000053   2449         ADD       A,#0x49
   \   000055   60BD         JZ        ??SampleApp_ProcessEvent_2
   \   000057   80D6         SJMP      ??CrossCallReturnLabel_64
   \                     ??SampleApp_ProcessEvent_5:
   \   000059                ; Setup parameters for call to function SampleApp_MessageMSGCB
   \   000059   AA..         MOV       R2,?V0
   \   00005B   AB..         MOV       R3,?V1
   \   00005D   12....       LCALL     `??SampleApp_MessageMSGCB::?relay`; Banked call to: SampleApp_MessageMSGCB
   \   000060   80CD         SJMP      ??CrossCallReturnLabel_64
    292                  }
    293          
    294                  // return unprocessed events
    295                  return (events ^ SYS_EVENT_MSG);
   \                     ??SampleApp_ProcessEvent_4:
   \   000062   EE           MOV       A,R6
   \   000063   FA           MOV       R2,A
   \   000064   EF           MOV       A,R7
   \   000065   6480         XRL       A,#0x80
   \   000067   02....       LJMP      ??SampleApp_ProcessEvent_6 & 0xFFFF
    296              }
    297          
    298              // Send a message out - This event is generated by a timer
    299              //    (setup in SampleApp_Init()).
    300              if ( events & SAMPLEAPP_SEND_PERIODIC_MSG_EVT )
   \                     ??SampleApp_ProcessEvent_0:
   \   00006A   EA           MOV       A,R2
   \   00006B   A2E0         MOV       C,0xE0 /* A   */.0
   \   00006D   5017         JNC       ??SampleApp_ProcessEvent_7
    301              {
    302                  // Send the periodic message
    303                  SampleApp_SendPeriodicMessage();
   \   00006F                ; Setup parameters for call to function SampleApp_SendPeriodicMessage
   \   00006F   12....       LCALL     `??SampleApp_SendPeriodicMessage::?relay`; Banked call to: SampleApp_SendPeriodicMessage
    304                  // Setup to send message again in normal period (+ a little jitter)
    305                  osal_start_timerEx( SampleApp_TaskID, SAMPLEAPP_SEND_PERIODIC_MSG_EVT,
    306                          (SAMPLEAPP_SEND_PERIODIC_MSG_TIMEOUT + (osal_rand() & 0x00FF)) );
   \   000072                ; Setup parameters for call to function osal_rand
   \   000072   12....       LCALL     `??osal_rand::?relay`; Banked call to: osal_rand
   \   000075                ; Setup parameters for call to function osal_start_timerEx
   \   000075   EA           MOV       A,R2
   \   000076   2488         ADD       A,#-0x78
   \   000078   FC           MOV       R4,A
   \   000079   E4           CLR       A
   \   00007A   3413         ADDC      A,#0x13
   \   00007C   FD           MOV       R5,A
   \   00007D   12....       LCALL     ?Subroutine7 & 0xFFFF
    307          
    308                  // return unprocessed events
    309                  return (events ^ SAMPLEAPP_SEND_PERIODIC_MSG_EVT);
   \                     ??CrossCallReturnLabel_65:
   \   000080   EE           MOV       A,R6
   \   000081   6401         XRL       A,#0x1
   \   000083   02....       LJMP      ??SampleApp_ProcessEvent_8 & 0xFFFF
    310              }
    311              
    312              if (events & SAMPLEAPP_INITIALIZE_UART_EVT) {
   \                     ??SampleApp_ProcessEvent_7:
   \   000086   5402         ANL       A,#0x2
   \   000088   7003         JNZ       $+5
   \   00008A   02....       LJMP      ??SampleApp_ProcessEvent_9 & 0xFFFF
    313          
    314                  // initialize uart_1
    315                  uartConfig.configured           = TRUE;
   \   00008D   7408         MOV       A,#0x8
   \   00008F   12....       LCALL     ?XSTACK_DISP0_8
   \   000092   7401         MOV       A,#0x1
   \   000094   F0           MOVX      @DPTR,A
    316                  uartConfig.baudRate             = MT_UART_DEFAULT_BAUDRATE;
   \   000095   7409         MOV       A,#0x9
   \   000097   12....       LCALL     ?XSTACK_DISP0_8
   \   00009A   7404         MOV       A,#0x4
   \   00009C   F0           MOVX      @DPTR,A
    317                  uartConfig.flowControl          = MT_UART_DEFAULT_OVERFLOW;
   \   00009D   740A         MOV       A,#0xa
   \   00009F   12....       LCALL     ?XSTACK_DISP0_8
   \   0000A2   E4           CLR       A
   \   0000A3   F0           MOVX      @DPTR,A
    318                  uartConfig.flowControlThreshold = MT_UART_DEFAULT_THRESHOLD;
   \   0000A4   740B         MOV       A,#0xb
   \   0000A6   12....       LCALL     ?XSTACK_DISP0_8
   \   0000A9   7440         MOV       A,#0x40
   \   0000AB   12....       LCALL     ??Subroutine30_0 & 0xFFFF
    319                  uartConfig.rx.maxBufSize        = MT_UART_DEFAULT_MAX_RX_BUFF;
   \                     ??CrossCallReturnLabel_73:
   \   0000AE   7412         MOV       A,#0x12
   \   0000B0   12....       LCALL     ?XSTACK_DISP0_8
   \   0000B3   7480         MOV       A,#-0x80
   \   0000B5   12....       LCALL     ??Subroutine30_0 & 0xFFFF
    320                  uartConfig.tx.maxBufSize        = MT_UART_DEFAULT_MAX_TX_BUFF;
   \                     ??CrossCallReturnLabel_74:
   \   0000B8   741A         MOV       A,#0x1a
   \   0000BA   12....       LCALL     ?XSTACK_DISP0_8
   \   0000BD   7480         MOV       A,#-0x80
   \   0000BF   12....       LCALL     ??Subroutine30_0 & 0xFFFF
    321                  uartConfig.idleTimeout          = MT_UART_DEFAULT_IDLE_TIMEOUT;
   \                     ??CrossCallReturnLabel_75:
   \   0000C2   740D         MOV       A,#0xd
   \   0000C4   12....       LCALL     ?XSTACK_DISP0_8
   \   0000C7   7406         MOV       A,#0x6
   \   0000C9   F0           MOVX      @DPTR,A
    322                  uartConfig.intEnable            = TRUE;
   \   0000CA   741E         MOV       A,#0x1e
   \   0000CC   12....       LCALL     ?XSTACK_DISP0_8
   \   0000CF   7401         MOV       A,#0x1
   \   0000D1   F0           MOVX      @DPTR,A
    323                  uartConfig.callBackFunc         = NULL;
   \   0000D2   7423         MOV       A,#0x23
   \   0000D4   12....       LCALL     ?XSTACK_DISP0_8
   \   0000D7   E4           CLR       A
   \   0000D8   F0           MOVX      @DPTR,A
   \   0000D9   A3           INC       DPTR
   \   0000DA   F0           MOVX      @DPTR,A
    324                  HalUARTOpen(HAL_UART_PORT_1, &uartConfig);
   \   0000DB                ; Setup parameters for call to function HalUARTOpen
   \   0000DB   7408         MOV       A,#0x8
   \   0000DD   12....       LCALL     ?XSTACK_DISP101_8
   \   0000E0   7901         MOV       R1,#0x1
   \   0000E2   12....       LCALL     `??HalUARTOpen::?relay`; Banked call to: HalUARTOpen
    325                  debug("UART_1 INITIALIZED!\r\n");
   \   0000E5                ; Setup parameters for call to function _UARTSend
   \   0000E5   7A..         MOV       R2,#`?<Constant "UART_1 INITIALIZED!\\r\\n">` & 0xff
   \   0000E7   7B..         MOV       R3,#(`?<Constant "UART_1 INITIALIZED!\\r\\n">` >> 8) & 0xff
   \   0000E9   7900         MOV       R1,#0x0
   \   0000EB   12....       LCALL     `??_UARTSend::?relay`; Banked call to: _UARTSend
    326          
    327                  if (isPressed(Key_S1)) {
   \   0000EE   A280         MOV       C,0x80.0
   \   0000F0   400D         JC        ??SampleApp_ProcessEvent_10
    328                      debug("Enter AP Mode\r\n");
   \   0000F2                ; Setup parameters for call to function _UARTSend
   \   0000F2   7A..         MOV       R2,#`?<Constant "Enter AP Mode\\r\\n">` & 0xff
   \   0000F4   7B..         MOV       R3,#(`?<Constant "Enter AP Mode\\r\\n">` >> 8) & 0xff
   \   0000F6   7900         MOV       R1,#0x0
   \   0000F8   12....       LCALL     `??_UARTSend::?relay`; Banked call to: _UARTSend
    329                      osal_set_event(SampleApp_TaskID, SAMPLEAPP_CONFIGURE_WIFI_EVT);
   \   0000FB                ; Setup parameters for call to function osal_set_event
   \   0000FB   7A10         MOV       R2,#0x10
   \   0000FD   800B         SJMP      ??SampleApp_ProcessEvent_11
    330                  } else {
    331                      debug("Enter STA Mode\r\n");
   \                     ??SampleApp_ProcessEvent_10:
   \   0000FF                ; Setup parameters for call to function _UARTSend
   \   0000FF   7A..         MOV       R2,#`?<Constant "Enter STA Mode\\r\\n">` & 0xff
   \   000101   7B..         MOV       R3,#(`?<Constant "Enter STA Mode\\r\\n">` >> 8) & 0xff
   \   000103   7900         MOV       R1,#0x0
   \   000105   12....       LCALL     `??_UARTSend::?relay`; Banked call to: _UARTSend
    332                      osal_set_event(SampleApp_TaskID, SAMPLEAPP_INITIALIZE_WIFI_EVT);
   \   000108                ; Setup parameters for call to function osal_set_event
   \   000108   7A04         MOV       R2,#0x4
    333                  }
   \                     ??SampleApp_ProcessEvent_11:
   \   00010A   12....       LCALL     ??Subroutine29_0 & 0xFFFF
    334                  return (events ^ SAMPLEAPP_INITIALIZE_UART_EVT);
   \                     ??CrossCallReturnLabel_70:
   \   00010D   EE           MOV       A,R6
   \   00010E   6402         XRL       A,#0x2
   \   000110   02....       LJMP      ??SampleApp_ProcessEvent_8 & 0xFFFF
    335              }
    336          
    337              if (events & SAMPLEAPP_CONFIGURE_WIFI_EVT) {
   \                     ??SampleApp_ProcessEvent_9:
   \   000113   EA           MOV       A,R2
   \   000114   5410         ANL       A,#0x10
   \   000116   7003         JNZ       $+5
   \   000118   02....       LJMP      ??SampleApp_ProcessEvent_12 & 0xFFFF
    338                  exit_send();
   \   00011B                ; Setup parameters for call to function exit_send
   \   00011B   12....       LCALL     `??exit_send::?relay`; Banked call to: exit_send
    339                  do debug_and_print("AT+CWMODE=2\r\n");
   \                     ??SampleApp_ProcessEvent_13:
   \   00011E   75....       MOV       ?V0,#`?<Constant "AT+CWMODE=2\\r\\n">` & 0xff
   \   000121   75....       MOV       ?V1,#(`?<Constant "AT+CWMODE=2\\r\\n">` >> 8) & 0xff
   \   000124                ; Setup parameters for call to function _UARTSend
   \   000124   12....       LCALL     ?Subroutine8 & 0xFFFF
    340                  while (wait_for("OK\r\n", "ERROR\r\n", 0));
   \                     ??CrossCallReturnLabel_5:
   \   000127   12....       LCALL     ?PUSH_XSTACK_I_TWO
   \   00012A   12....       LCALL     ?Subroutine9 & 0xFFFF
   \                     ??CrossCallReturnLabel_51:
   \   00012D   12....       LCALL     ?DEALLOC_XSTACK8
   \   000130   B900EB       CJNE      R1,#0x0,??SampleApp_ProcessEvent_13
    341                  do debug_and_print("AT+CWSAP=\"ESP8266\",\"123456\",11,0\r\n");
   \                     ??SampleApp_ProcessEvent_14:
   \   000133   75....       MOV       ?V0,#`?<Constant "AT+CWSAP=\\"ESP8266\\",\\"1...">` & 0xff
   \   000136   75....       MOV       ?V1,#(`?<Constant "AT+CWSAP=\\"ESP8266\\",\\"1...">` >> 8) & 0xff
   \   000139                ; Setup parameters for call to function _UARTSend
   \   000139   12....       LCALL     ?Subroutine8 & 0xFFFF
    342                  while (wait_for("OK\r\n", "ERROR\r\n", 0));
   \                     ??CrossCallReturnLabel_6:
   \   00013C   12....       LCALL     ?PUSH_XSTACK_I_TWO
   \   00013F   12....       LCALL     ?Subroutine9 & 0xFFFF
   \                     ??CrossCallReturnLabel_52:
   \   000142   12....       LCALL     ?DEALLOC_XSTACK8
   \   000145   B900EB       CJNE      R1,#0x0,??SampleApp_ProcessEvent_14
    343                  do debug_and_print("AT+CIPMODE=0\r\n");
   \                     ??SampleApp_ProcessEvent_15:
   \   000148   75....       MOV       ?V0,#`?<Constant "AT+CIPMODE=0\\r\\n">` & 0xff
   \   00014B   75....       MOV       ?V1,#(`?<Constant "AT+CIPMODE=0\\r\\n">` >> 8) & 0xff
   \   00014E                ; Setup parameters for call to function _UARTSend
   \   00014E   12....       LCALL     ?Subroutine8 & 0xFFFF
    344                  while (wait_for("OK\r\n", "ERROR\r\n", 0));
   \                     ??CrossCallReturnLabel_7:
   \   000151   12....       LCALL     ?PUSH_XSTACK_I_TWO
   \   000154   12....       LCALL     ?Subroutine9 & 0xFFFF
   \                     ??CrossCallReturnLabel_53:
   \   000157   12....       LCALL     ?DEALLOC_XSTACK8
   \   00015A   B900EB       CJNE      R1,#0x0,??SampleApp_ProcessEvent_15
    345                  do debug_and_print("AT+CIPMUX=1\r\n");
   \                     ??SampleApp_ProcessEvent_16:
   \   00015D   75....       MOV       ?V0,#`?<Constant "AT+CIPMUX=1\\r\\n">` & 0xff
   \   000160   75....       MOV       ?V1,#(`?<Constant "AT+CIPMUX=1\\r\\n">` >> 8) & 0xff
   \   000163                ; Setup parameters for call to function _UARTSend
   \   000163   12....       LCALL     ?Subroutine8 & 0xFFFF
    346                  while (wait_for("OK\r\n", "ERROR\r\n", 0)); 
   \                     ??CrossCallReturnLabel_8:
   \   000166   12....       LCALL     ?PUSH_XSTACK_I_TWO
   \   000169   12....       LCALL     ?Subroutine9 & 0xFFFF
   \                     ??CrossCallReturnLabel_54:
   \   00016C   12....       LCALL     ?DEALLOC_XSTACK8
   \   00016F   B900EB       CJNE      R1,#0x0,??SampleApp_ProcessEvent_16
    347                  do debug_and_print("AT+CIPSERVER=1,8266\r\n");
   \                     ??SampleApp_ProcessEvent_17:
   \   000172   75....       MOV       ?V0,#`?<Constant "AT+CIPSERVER=1,8266\\r\\n">` & 0xff
   \   000175   75....       MOV       ?V1,#(`?<Constant "AT+CIPSERVER=1,8266\\r\\n">` >> 8) & 0xff
   \   000178                ; Setup parameters for call to function _UARTSend
   \   000178   12....       LCALL     ?Subroutine8 & 0xFFFF
    348                  while (wait_for("OK\r\n", "ERROR\r\n", 0));
   \                     ??CrossCallReturnLabel_9:
   \   00017B   12....       LCALL     ?PUSH_XSTACK_I_TWO
   \   00017E   12....       LCALL     ?Subroutine9 & 0xFFFF
   \                     ??CrossCallReturnLabel_55:
   \   000181   12....       LCALL     ?DEALLOC_XSTACK8
   \   000184   B900EB       CJNE      R1,#0x0,??SampleApp_ProcessEvent_17
    349                  while (1) {
    350                      length = WiFiRecv(_buffer);
   \                     ??SampleApp_ProcessEvent_18:
   \   000187                ; Setup parameters for call to function WiFiRecv
   \   000187   745D         MOV       A,#0x5d
   \   000189   12....       LCALL     ?XSTACK_DISP101_8
   \   00018C   12....       LCALL     `??WiFiRecv::?relay`; Banked call to: WiFiRecv
   \   00018F   8A..         MOV       ?V4,R2
   \   000191   8B..         MOV       ?V5,R3
    351                      if (length > 6) { // min: SSIDx\r\n 允许19位长度
   \   000193   C3           CLR       C
   \   000194   EA           MOV       A,R2
   \   000195   9407         SUBB      A,#0x7
   \   000197   EB           MOV       A,R3
   \   000198   9400         SUBB      A,#0x0
   \   00019A   5003         JNC       $+5
   \   00019C   02....       LJMP      ??SampleApp_ProcessEvent_19 & 0xFFFF
    352                          if (osal_memcmp(_buffer, "IP", 2)) {
   \   00019F                ; Setup parameters for call to function osal_memcmp
   \   00019F   75....       MOV       ?V0,#`?<Constant "IP">` & 0xff
   \   0001A2   75....       MOV       ?V1,#(`?<Constant "IP">` >> 8) & 0xff
   \   0001A5   75..00       MOV       ?V2,#0x0
   \   0001A8   78..         MOV       R0,#?V0
   \   0001AA   12....       LCALL     ?PUSH_XSTACK_I_THREE
   \   0001AD   7C02         MOV       R4,#0x2
   \   0001AF   7D00         MOV       R5,#0x0
   \   0001B1   7460         MOV       A,#0x60
   \   0001B3   12....       LCALL     ?XSTACK_DISP0_8
   \   0001B6   12....       LCALL     ?Subroutine12 & 0xFFFF
   \                     ??CrossCallReturnLabel_45:
   \   0001B9   12....       LCALL     ?DEALLOC_XSTACK8
   \   0001BC   E9           MOV       A,R1
   \   0001BD   6011         JZ        ??SampleApp_ProcessEvent_20
    353                              nv_id = ZD_NV_IP_ID;
   \   0001BF   75..40       MOV       ?V2,#0x40
   \   0001C2   75..04       MOV       ?V3,#0x4
    354                              nv_len = IP_MAX_LENGTH;
   \   0001C5   75..10       MOV       ?V0,#0x10
   \   0001C8   75..00       MOV       ?V1,#0x0
    355                              prefix_len = 2;
   \   0001CB   75..02       MOV       ?V6,#0x2
   \   0001CE   8079         SJMP      ??SampleApp_ProcessEvent_21
    356                          } else 
    357                          if (osal_memcmp(_buffer, "PORT", 4)) {
   \                     ??SampleApp_ProcessEvent_20:
   \   0001D0                ; Setup parameters for call to function osal_memcmp
   \   0001D0   75....       MOV       ?V0,#`?<Constant "PORT">` & 0xff
   \   0001D3   75....       MOV       ?V1,#(`?<Constant "PORT">` >> 8) & 0xff
   \   0001D6   78..         MOV       R0,#?V0
   \   0001D8   12....       LCALL     ?PUSH_XSTACK_I_THREE
   \   0001DB   7C04         MOV       R4,#0x4
   \   0001DD   7D00         MOV       R5,#0x0
   \   0001DF   7460         MOV       A,#0x60
   \   0001E1   12....       LCALL     ?XSTACK_DISP0_8
   \   0001E4   12....       LCALL     ?Subroutine12 & 0xFFFF
   \                     ??CrossCallReturnLabel_46:
   \   0001E7   12....       LCALL     ?DEALLOC_XSTACK8
   \   0001EA   E9           MOV       A,R1
   \   0001EB   600B         JZ        ??SampleApp_ProcessEvent_22
    358                              nv_id = ZD_NV_PORT_ID;
   \   0001ED   75..30       MOV       ?V2,#0x30
   \   0001F0   75..04       MOV       ?V3,#0x4
    359                              nv_len = PORT_MAX_LENGTH;
   \   0001F3   75..08       MOV       ?V0,#0x8
   \   0001F6   804B         SJMP      ??SampleApp_ProcessEvent_23
    360                              prefix_len = 4;
    361                          } else 
    362                          if (osal_memcmp(_buffer, "SSID", 4)) {
   \                     ??SampleApp_ProcessEvent_22:
   \   0001F8                ; Setup parameters for call to function osal_memcmp
   \   0001F8   75....       MOV       ?V0,#`?<Constant "SSID">` & 0xff
   \   0001FB   75....       MOV       ?V1,#(`?<Constant "SSID">` >> 8) & 0xff
   \   0001FE   78..         MOV       R0,#?V0
   \   000200   12....       LCALL     ?PUSH_XSTACK_I_THREE
   \   000203   7C04         MOV       R4,#0x4
   \   000205   7D00         MOV       R5,#0x0
   \   000207   7460         MOV       A,#0x60
   \   000209   12....       LCALL     ?XSTACK_DISP0_8
   \   00020C   12....       LCALL     ?Subroutine12 & 0xFFFF
   \                     ??CrossCallReturnLabel_47:
   \   00020F   12....       LCALL     ?DEALLOC_XSTACK8
   \   000212   E9           MOV       A,R1
   \   000213   6005         JZ        ??SampleApp_ProcessEvent_24
    363                              nv_id = ZD_NV_SSID_ID;
   \   000215   75..20       MOV       ?V2,#0x20
   \   000218   8023         SJMP      ??SampleApp_ProcessEvent_25
    364                              nv_len = SSID_MAX_LENGTH;
    365                              prefix_len = 4;
    366                          } else 
    367                          if (osal_memcmp(_buffer, "PSWD", 4)) {
   \                     ??SampleApp_ProcessEvent_24:
   \   00021A                ; Setup parameters for call to function osal_memcmp
   \   00021A   75....       MOV       ?V0,#`?<Constant "PSWD">` & 0xff
   \   00021D   75....       MOV       ?V1,#(`?<Constant "PSWD">` >> 8) & 0xff
   \   000220   78..         MOV       R0,#?V0
   \   000222   12....       LCALL     ?PUSH_XSTACK_I_THREE
   \   000225   7C04         MOV       R4,#0x4
   \   000227   7D00         MOV       R5,#0x0
   \   000229   7460         MOV       A,#0x60
   \   00022B   12....       LCALL     ?XSTACK_DISP0_8
   \   00022E   12....       LCALL     ?Subroutine12 & 0xFFFF
   \                     ??CrossCallReturnLabel_48:
   \   000231   12....       LCALL     ?DEALLOC_XSTACK8
   \   000234   E9           MOV       A,R1
   \   000235   7003         JNZ       $+5
   \   000237   02....       LJMP      ??SampleApp_ProcessEvent_18 & 0xFFFF
    368                              nv_id = ZD_NV_PSWD_ID;
   \   00023A   75..10       MOV       ?V2,#0x10
   \                     ??SampleApp_ProcessEvent_25:
   \   00023D   75..04       MOV       ?V3,#0x4
    369                              nv_len = PSWD_MAX_LENGTH;
   \   000240   75..14       MOV       ?V0,#0x14
   \                     ??SampleApp_ProcessEvent_23:
   \   000243   75..00       MOV       ?V1,#0x0
    370                              prefix_len = 4;
   \   000246   75..04       MOV       ?V6,#0x4
    371                          } else continue;
    372                          length -= 2; // \r\n
   \                     ??SampleApp_ProcessEvent_21:
   \   000249   E5..         MOV       A,?V4
   \   00024B   24FE         ADD       A,#-0x2
   \   00024D   F5..         MOV       ?V4,A
   \   00024F   E5..         MOV       A,?V5
   \   000251   34FF         ADDC      A,#-0x1
   \   000253   F5..         MOV       ?V5,A
    373                          while (length < nv_len + prefix_len + 2) _buffer[length ++] = '\0';
   \   000255   12....       LCALL     ?Subroutine13 & 0xFFFF
   \                     ??CrossCallReturnLabel_18:
   \   000258   F8           MOV       R0,A
   \   000259   5001         JNC       ??SampleApp_ProcessEvent_26
   \   00025B   09           INC       R1
   \                     ??SampleApp_ProcessEvent_26:
   \   00025C   C3           CLR       C
   \   00025D   E5..         MOV       A,?V4
   \   00025F   98           SUBB      A,R0
   \   000260   E5..         MOV       A,?V5
   \   000262   99           SUBB      A,R1
   \   000263   5024         JNC       ??SampleApp_ProcessEvent_27
   \   000265   12....       LCALL     ?Subroutine13 & 0xFFFF
   \                     ??CrossCallReturnLabel_19:
   \   000268   5001         JNC       ??SampleApp_ProcessEvent_28
   \   00026A   09           INC       R1
   \                     ??SampleApp_ProcessEvent_28:
   \   00026B   C3           CLR       C
   \   00026C   95..         SUBB      A,?V4
   \   00026E   F8           MOV       R0,A
   \   00026F   E9           MOV       A,R1
   \   000270   95..         SUBB      A,?V5
   \   000272   F9           MOV       R1,A
   \   000273   745D         MOV       A,#0x5d
   \   000275   12....       LCALL     ?XSTACK_DISP0_8
   \   000278   12....       LCALL     ?Subroutine17 & 0xFFFF
   \                     ??CrossCallReturnLabel_22:
   \   00027B   E4           CLR       A
   \   00027C   F0           MOVX      @DPTR,A
   \   00027D   A3           INC       DPTR
   \   00027E   E8           MOV       A,R0
   \   00027F   24FF         ADD       A,#-0x1
   \   000281   18           DEC       R0
   \   000282   E9           MOV       A,R1
   \   000283   34FF         ADDC      A,#-0x1
   \   000285   F9           MOV       R1,A
   \   000286   48           ORL       A,R0
   \   000287   70F2         JNZ       ??CrossCallReturnLabel_22
    374                          InitNVStatus = osal_nv_item_init(nv_id, nv_len, NULL);
   \                     ??SampleApp_ProcessEvent_27:
   \   000289                ; Setup parameters for call to function osal_nv_item_init
   \   000289   E4           CLR       A
   \   00028A   F5..         MOV       ?V4,A
   \   00028C   F5..         MOV       ?V5,A
   \   00028E   78..         MOV       R0,#?V4
   \   000290   12....       LCALL     ?PUSH_XSTACK_I_TWO
   \   000293   AC..         MOV       R4,?V0
   \   000295   AD..         MOV       R5,?V1
   \   000297   AA..         MOV       R2,?V2
   \   000299   AB..         MOV       R3,?V3
   \   00029B   12....       LCALL     ??Subroutine23_0 & 0xFFFF
   \                     ??CrossCallReturnLabel_40:
   \   00029E   12....       LCALL     ?DEALLOC_XSTACK8
    375                          writeNVStatus = osal_nv_write(nv_id, 0, nv_len, _buffer + prefix_len);
   \   0002A1                ; Setup parameters for call to function osal_nv_write
   \   0002A1   745D         MOV       A,#0x5d
   \   0002A3   12....       LCALL     ?XSTACK_DISP0_8
   \   0002A6   E582         MOV       A,DPL
   \   0002A8   25..         ADD       A,?V6
   \   0002AA   F5..         MOV       ?V4,A
   \   0002AC   E4           CLR       A
   \   0002AD   3583         ADDC      A,DPH
   \   0002AF   F5..         MOV       ?V5,A
   \   0002B1   78..         MOV       R0,#?V4
   \   0002B3   12....       LCALL     ?PUSH_XSTACK_I_TWO
   \   0002B6   78..         MOV       R0,#?V0
   \   0002B8   12....       LCALL     ?PUSH_XSTACK_I_TWO
   \   0002BB   7C00         MOV       R4,#0x0
   \   0002BD   7D00         MOV       R5,#0x0
   \   0002BF   AA..         MOV       R2,?V2
   \   0002C1   AB..         MOV       R3,?V3
   \   0002C3   12....       LCALL     `??osal_nv_write::?relay`; Banked call to: osal_nv_write
   \   0002C6   7404         MOV       A,#0x4
   \   0002C8   12....       LCALL     ?DEALLOC_XSTACK8
    376                          (void) writeNVStatus;
   \   0002CB   02....       LJMP      ??SampleApp_ProcessEvent_18 & 0xFFFF
    377                      } else if (length == 4 && osal_memcmp(_buffer, (uint8 *)"OK\r\n", 4)) {
   \                     ??SampleApp_ProcessEvent_19:
   \   0002CE   7404         MOV       A,#0x4
   \   0002D0   6A           XRL       A,R2
   \   0002D1   4B           ORL       A,R3
   \   0002D2   6003         JZ        $+5
   \   0002D4   02....       LJMP      ??SampleApp_ProcessEvent_18 & 0xFFFF
   \   0002D7                ; Setup parameters for call to function osal_memcmp
   \   0002D7   75....       MOV       ?V0,#`?<Constant "OK\\r\\n">` & 0xff
   \   0002DA   75....       MOV       ?V1,#(`?<Constant "OK\\r\\n">` >> 8) & 0xff
   \   0002DD   75..00       MOV       ?V2,#0x0
   \   0002E0   78..         MOV       R0,#?V0
   \   0002E2   12....       LCALL     ?PUSH_XSTACK_I_THREE
   \   0002E5   7C04         MOV       R4,#0x4
   \   0002E7   7D00         MOV       R5,#0x0
   \   0002E9   7460         MOV       A,#0x60
   \   0002EB   12....       LCALL     ?XSTACK_DISP0_8
   \   0002EE   12....       LCALL     ?Subroutine12 & 0xFFFF
   \                     ??CrossCallReturnLabel_49:
   \   0002F1   12....       LCALL     ?DEALLOC_XSTACK8
   \   0002F4   E9           MOV       A,R1
   \   0002F5   7003         JNZ       $+5
   \   0002F7   02....       LJMP      ??SampleApp_ProcessEvent_18 & 0xFFFF
    378                          do debug_and_print("AT+RST\r\n");
   \                     ??SampleApp_ProcessEvent_29:
   \   0002FA   75....       MOV       ?V0,#`?<Constant "AT+RST\\r\\n">` & 0xff
   \   0002FD   75....       MOV       ?V1,#(`?<Constant "AT+RST\\r\\n">` >> 8) & 0xff
   \   000300                ; Setup parameters for call to function _UARTSend
   \   000300   12....       LCALL     ?Subroutine8 & 0xFFFF
    379                          while (wait_for("ready\r\n", "ERROR\r\n", 0));
   \                     ??CrossCallReturnLabel_10:
   \   000303   12....       LCALL     ?PUSH_XSTACK_I_TWO
   \   000306   7C..         MOV       R4,#`?<Constant "ERROR\\r\\n">` & 0xff
   \   000308   7D..         MOV       R5,#(`?<Constant "ERROR\\r\\n">` >> 8) & 0xff
   \   00030A   7A..         MOV       R2,#`?<Constant "ready\\r\\n">` & 0xff
   \   00030C   7B..         MOV       R3,#(`?<Constant "ready\\r\\n">` >> 8) & 0xff
   \   00030E   12....       LCALL     ??Subroutine27_0 & 0xFFFF
   \                     ??CrossCallReturnLabel_61:
   \   000311   12....       LCALL     ?DEALLOC_XSTACK8
   \   000314   B900E3       CJNE      R1,#0x0,??SampleApp_ProcessEvent_29
    380                          break;
    381                      }
    382                  }
    383                  osal_set_event(SampleApp_TaskID, SAMPLEAPP_INITIALIZE_WIFI_EVT);
   \   000317                ; Setup parameters for call to function osal_set_event
   \   000317   12....       LCALL     ?Subroutine4 & 0xFFFF
    384                  return (events ^ SAMPLEAPP_CONFIGURE_WIFI_EVT);
   \                     ??CrossCallReturnLabel_67:
   \   00031A   EE           MOV       A,R6
   \   00031B   6410         XRL       A,#0x10
   \   00031D   02....       LJMP      ??SampleApp_ProcessEvent_8 & 0xFFFF
    385              }
    386          
    387              if (events & SAMPLEAPP_INITIALIZE_WIFI_EVT) {
   \                     ??SampleApp_ProcessEvent_12:
   \   000320   EA           MOV       A,R2
   \   000321   5404         ANL       A,#0x4
   \   000323   7003         JNZ       $+5
   \   000325   02....       LJMP      ??SampleApp_ProcessEvent_30 & 0xFFFF
    388                  // initialize esp8266
    389                  do {
    390                      exit_send();
   \                     ??SampleApp_ProcessEvent_31:
   \   000328                ; Setup parameters for call to function exit_send
   \   000328   12....       LCALL     `??exit_send::?relay`; Banked call to: exit_send
    391                      InitNVStatus = osal_nv_item_init(ZD_NV_SSID_ID, SSID_MAX_LENGTH, NULL);
   \   00032B                ; Setup parameters for call to function osal_nv_item_init
   \   00032B   E4           CLR       A
   \   00032C   F5..         MOV       ?V0,A
   \   00032E   F5..         MOV       ?V1,A
   \   000330   78..         MOV       R0,#?V0
   \   000332   12....       LCALL     ?PUSH_XSTACK_I_TWO
   \   000335   7C14         MOV       R4,#0x14
   \   000337   7D00         MOV       R5,#0x0
   \   000339   7A20         MOV       R2,#0x20
   \   00033B   12....       LCALL     ?Subroutine16 & 0xFFFF
   \                     ??CrossCallReturnLabel_36:
   \   00033E   12....       LCALL     ?DEALLOC_XSTACK8
   \   000341   E9           MOV       A,R1
   \   000342   F5..         MOV       ?V0,A
    392                      readNVStatus = osal_nv_read(ZD_NV_SSID_ID, 0, SSID_MAX_LENGTH, SSID);
    393                      if (readNVStatus != SUCCESS || InitNVStatus != SUCCESS) {
   \   000344                ; Setup parameters for call to function osal_nv_read
   \   000344   7449         MOV       A,#0x49
   \   000346   12....       LCALL     ?XSTACK_DISP100_8
   \   000349   88..         MOV       ?V2,R0
   \   00034B   89..         MOV       ?V3,R1
   \   00034D   78..         MOV       R0,#?V2
   \   00034F   12....       LCALL     ?PUSH_XSTACK_I_TWO
   \   000352   75..14       MOV       ?V2,#0x14
   \   000355   75..00       MOV       ?V3,#0x0
   \   000358   78..         MOV       R0,#?V2
   \   00035A   12....       LCALL     ?PUSH_XSTACK_I_TWO
   \   00035D   7C00         MOV       R4,#0x0
   \   00035F   7D00         MOV       R5,#0x0
   \   000361   7A20         MOV       R2,#0x20
   \   000363   12....       LCALL     ?Subroutine19 & 0xFFFF
   \                     ??CrossCallReturnLabel_26:
   \   000366   12....       LCALL     ?DEALLOC_XSTACK8
   \   000369   E9           MOV       A,R1
   \   00036A   6003         JZ        $+5
   \   00036C   02....       LJMP      ??SampleApp_ProcessEvent_32 & 0xFFFF
   \   00036F   E5..         MOV       A,?V0
   \   000371   6003         JZ        $+5
   \   000373   02....       LJMP      ??SampleApp_ProcessEvent_32 & 0xFFFF
    394                          debug("Read Flash Failed\r\n");
    395                          return (events ^ SAMPLEAPP_INITIALIZE_WIFI_EVT);
    396                      }
    397                      debug(SSID);
   \   000376                ; Setup parameters for call to function _UARTSend
   \   000376   7449         MOV       A,#0x49
   \   000378   12....       LCALL     ?XSTACK_DISP101_8
   \   00037B   12....       LCALL     ?Subroutine11 & 0xFFFF
    398                      InitNVStatus = osal_nv_item_init(ZD_NV_PSWD_ID, PSWD_MAX_LENGTH, NULL);
   \                     ??CrossCallReturnLabel_15:
   \   00037E   12....       LCALL     ?PUSH_XSTACK_I_TWO
   \   000381   7C14         MOV       R4,#0x14
   \   000383   7D00         MOV       R5,#0x0
   \   000385   7A10         MOV       R2,#0x10
   \   000387   12....       LCALL     ?Subroutine16 & 0xFFFF
   \                     ??CrossCallReturnLabel_37:
   \   00038A   12....       LCALL     ?DEALLOC_XSTACK8
   \   00038D   E9           MOV       A,R1
   \   00038E   F5..         MOV       ?V0,A
    399                      readNVStatus = osal_nv_read(ZD_NV_PSWD_ID, 0, PSWD_MAX_LENGTH, PSWD);
    400                      if (readNVStatus != SUCCESS || InitNVStatus != SUCCESS) {
   \   000390                ; Setup parameters for call to function osal_nv_read
   \   000390   7435         MOV       A,#0x35
   \   000392   12....       LCALL     ?XSTACK_DISP100_8
   \   000395   88..         MOV       ?V2,R0
   \   000397   89..         MOV       ?V3,R1
   \   000399   78..         MOV       R0,#?V2
   \   00039B   12....       LCALL     ?PUSH_XSTACK_I_TWO
   \   00039E   75..14       MOV       ?V2,#0x14
   \   0003A1   75..00       MOV       ?V3,#0x0
   \   0003A4   78..         MOV       R0,#?V2
   \   0003A6   12....       LCALL     ?PUSH_XSTACK_I_TWO
   \   0003A9   7C00         MOV       R4,#0x0
   \   0003AB   7D00         MOV       R5,#0x0
   \   0003AD   7A10         MOV       R2,#0x10
   \   0003AF   12....       LCALL     ?Subroutine19 & 0xFFFF
   \                     ??CrossCallReturnLabel_27:
   \   0003B2   12....       LCALL     ?DEALLOC_XSTACK8
   \   0003B5   E9           MOV       A,R1
   \   0003B6   6003         JZ        $+5
   \   0003B8   02....       LJMP      ??SampleApp_ProcessEvent_32 & 0xFFFF
   \   0003BB   E5..         MOV       A,?V0
   \   0003BD   6003         JZ        $+5
   \   0003BF   02....       LJMP      ??SampleApp_ProcessEvent_32 & 0xFFFF
    401                          debug("Read Flash Failed\r\n");
    402                          return (events ^ SAMPLEAPP_INITIALIZE_WIFI_EVT);
    403                      }
    404                      debug(PSWD);
   \   0003C2                ; Setup parameters for call to function _UARTSend
   \   0003C2   7435         MOV       A,#0x35
   \   0003C4   12....       LCALL     ?XSTACK_DISP101_8
   \   0003C7   12....       LCALL     ?Subroutine11 & 0xFFFF
    405                      InitNVStatus = osal_nv_item_init(ZD_NV_IP_ID, IP_MAX_LENGTH, NULL);
   \                     ??CrossCallReturnLabel_16:
   \   0003CA   12....       LCALL     ?PUSH_XSTACK_I_TWO
   \   0003CD   7C10         MOV       R4,#0x10
   \   0003CF   7D00         MOV       R5,#0x0
   \   0003D1   7A40         MOV       R2,#0x40
   \   0003D3   12....       LCALL     ?Subroutine16 & 0xFFFF
   \                     ??CrossCallReturnLabel_38:
   \   0003D6   12....       LCALL     ?DEALLOC_XSTACK8
   \   0003D9   E9           MOV       A,R1
   \   0003DA   F5..         MOV       ?V0,A
    406                      readNVStatus = osal_nv_read(ZD_NV_IP_ID, 0, IP_MAX_LENGTH, MYIP);
    407                      if (readNVStatus != SUCCESS || InitNVStatus != SUCCESS) {
   \   0003DC                ; Setup parameters for call to function osal_nv_read
   \   0003DC   7425         MOV       A,#0x25
   \   0003DE   12....       LCALL     ?XSTACK_DISP100_8
   \   0003E1   88..         MOV       ?V2,R0
   \   0003E3   89..         MOV       ?V3,R1
   \   0003E5   78..         MOV       R0,#?V2
   \   0003E7   12....       LCALL     ?PUSH_XSTACK_I_TWO
   \   0003EA   75..10       MOV       ?V2,#0x10
   \   0003ED   75..00       MOV       ?V3,#0x0
   \   0003F0   78..         MOV       R0,#?V2
   \   0003F2   12....       LCALL     ?PUSH_XSTACK_I_TWO
   \   0003F5   7C00         MOV       R4,#0x0
   \   0003F7   7D00         MOV       R5,#0x0
   \   0003F9   7A40         MOV       R2,#0x40
   \   0003FB   12....       LCALL     ?Subroutine19 & 0xFFFF
   \                     ??CrossCallReturnLabel_28:
   \   0003FE   12....       LCALL     ?DEALLOC_XSTACK8
   \   000401   E9           MOV       A,R1
   \   000402   7049         JNZ       ??SampleApp_ProcessEvent_32
   \   000404   E5..         MOV       A,?V0
   \   000406   7045         JNZ       ??SampleApp_ProcessEvent_32
    408                          debug("Read Flash Failed\r\n");
    409                          return (events ^ SAMPLEAPP_INITIALIZE_WIFI_EVT);
    410                      }
    411                      debug(MYIP);
   \   000408                ; Setup parameters for call to function _UARTSend
   \   000408   7425         MOV       A,#0x25
   \   00040A   12....       LCALL     ?XSTACK_DISP101_8
   \   00040D   12....       LCALL     ?Subroutine11 & 0xFFFF
    412                      InitNVStatus = osal_nv_item_init(ZD_NV_PORT_ID, PORT_MAX_LENGTH, NULL);
   \                     ??CrossCallReturnLabel_17:
   \   000410   12....       LCALL     ?PUSH_XSTACK_I_TWO
   \   000413   7C08         MOV       R4,#0x8
   \   000415   7D00         MOV       R5,#0x0
   \   000417   7A30         MOV       R2,#0x30
   \   000419   12....       LCALL     ?Subroutine16 & 0xFFFF
   \                     ??CrossCallReturnLabel_39:
   \   00041C   12....       LCALL     ?DEALLOC_XSTACK8
   \   00041F   E9           MOV       A,R1
   \   000420   F5..         MOV       ?V0,A
    413                      readNVStatus = osal_nv_read(ZD_NV_PORT_ID, 0, PORT_MAX_LENGTH, PORT);
    414                      if (readNVStatus != SUCCESS || InitNVStatus != SUCCESS) {
   \   000422                ; Setup parameters for call to function osal_nv_read
   \   000422   A8..         MOV       R0,?XSP + 0
   \   000424   A9..         MOV       R1,?XSP + 1
   \   000426   88..         MOV       ?V2,R0
   \   000428   89..         MOV       ?V3,R1
   \   00042A   78..         MOV       R0,#?V2
   \   00042C   12....       LCALL     ?PUSH_XSTACK_I_TWO
   \   00042F   75..08       MOV       ?V2,#0x8
   \   000432   75..00       MOV       ?V3,#0x0
   \   000435   78..         MOV       R0,#?V2
   \   000437   12....       LCALL     ?PUSH_XSTACK_I_TWO
   \   00043A   7C00         MOV       R4,#0x0
   \   00043C   7D00         MOV       R5,#0x0
   \   00043E   7A30         MOV       R2,#0x30
   \   000440   12....       LCALL     ?Subroutine19 & 0xFFFF
   \                     ??CrossCallReturnLabel_29:
   \   000443   12....       LCALL     ?DEALLOC_XSTACK8
   \   000446   E9           MOV       A,R1
   \   000447   7004         JNZ       ??SampleApp_ProcessEvent_32
   \   000449   E5..         MOV       A,?V0
   \   00044B   600C         JZ        ??SampleApp_ProcessEvent_33
    415                          debug("Read Flash Failed\r\n");
   \                     ??SampleApp_ProcessEvent_32:
   \   00044D                ; Setup parameters for call to function _UARTSend
   \   00044D   7A..         MOV       R2,#`?<Constant "Read Flash Failed\\r\\n">` & 0xff
   \   00044F   7B..         MOV       R3,#(`?<Constant "Read Flash Failed\\r\\n">` >> 8) & 0xff
   \   000451   7900         MOV       R1,#0x0
   \   000453   12....       LCALL     `??_UARTSend::?relay`; Banked call to: _UARTSend
    416                          return (events ^ SAMPLEAPP_INITIALIZE_WIFI_EVT);
   \   000456   02....       LJMP      ??CrossCallReturnLabel_71 & 0xFFFF
    417                      }
    418                      debug(PORT);
   \                     ??SampleApp_ProcessEvent_33:
   \   000459                ; Setup parameters for call to function _UARTSend
   \   000459   AA..         MOV       R2,?XSP + 0
   \   00045B   AB..         MOV       R3,?XSP + 1
   \   00045D   7900         MOV       R1,#0x0
   \   00045F   12....       LCALL     `??_UARTSend::?relay`; Banked call to: _UARTSend
    419          
    420                      do debug_and_print("AT+CWMODE=1\r\n");
   \                     ??SampleApp_ProcessEvent_34:
   \   000462   75....       MOV       ?V0,#`?<Constant "AT+CWMODE=1\\r\\n">` & 0xff
   \   000465   75....       MOV       ?V1,#(`?<Constant "AT+CWMODE=1\\r\\n">` >> 8) & 0xff
   \   000468                ; Setup parameters for call to function _UARTSend
   \   000468   12....       LCALL     ?Subroutine8 & 0xFFFF
    421                      while (wait_for("OK\r\n", "ERROR\r\n", 0));
   \                     ??CrossCallReturnLabel_11:
   \   00046B   12....       LCALL     ?PUSH_XSTACK_I_TWO
   \   00046E   12....       LCALL     ?Subroutine9 & 0xFFFF
   \                     ??CrossCallReturnLabel_56:
   \   000471   12....       LCALL     ?DEALLOC_XSTACK8
   \   000474   B900EB       CJNE      R1,#0x0,??SampleApp_ProcessEvent_34
    422                      do debug_and_print("AT+CWJAP=\"%s\",\"%s\"\r\n", SSID, PSWD);
   \                     ??SampleApp_ProcessEvent_35:
   \   000477   75....       MOV       ?V0,#`?<Constant "AT+CWJAP=\\"%s\\",\\"%s\\"\\r\\n">` & 0xff
   \   00047A   75....       MOV       ?V1,#(`?<Constant "AT+CWJAP=\\"%s\\",\\"%s\\"\\r\\n">` >> 8) & 0xff
   \   00047D                ; Setup parameters for call to function _UARTSend
   \   00047D   7435         MOV       A,#0x35
   \   00047F   12....       LCALL     ?XSTACK_DISP100_8
   \   000482   88..         MOV       ?V2,R0
   \   000484   89..         MOV       ?V3,R1
   \   000486   78..         MOV       R0,#?V2
   \   000488   12....       LCALL     ?PUSH_XSTACK_I_TWO
   \   00048B   744B         MOV       A,#0x4b
   \   00048D   12....       LCALL     ?XSTACK_DISP100_8
   \   000490   88..         MOV       ?V2,R0
   \   000492   89..         MOV       ?V3,R1
   \   000494   78..         MOV       R0,#?V2
   \   000496   12....       LCALL     ?PUSH_XSTACK_I_TWO
   \   000499   12....       LCALL     ?Subroutine14 & 0xFFFF
   \                     ??CrossCallReturnLabel_41:
   \   00049C   12....       LCALL     ?DEALLOC_XSTACK8
   \   00049F                ; Setup parameters for call to function _UARTSend
   \   00049F   7435         MOV       A,#0x35
   \   0004A1   12....       LCALL     ?XSTACK_DISP100_8
   \   0004A4   88..         MOV       ?V2,R0
   \   0004A6   89..         MOV       ?V3,R1
   \   0004A8   78..         MOV       R0,#?V2
   \   0004AA   12....       LCALL     ?PUSH_XSTACK_I_TWO
   \   0004AD   744B         MOV       A,#0x4b
   \   0004AF   12....       LCALL     ?XSTACK_DISP100_8
   \   0004B2   88..         MOV       ?V2,R0
   \   0004B4   89..         MOV       ?V3,R1
   \   0004B6   78..         MOV       R0,#?V2
   \   0004B8   12....       LCALL     ?PUSH_XSTACK_I_TWO
   \   0004BB   AA..         MOV       R2,?V0
   \   0004BD   AB..         MOV       R3,?V1
   \   0004BF   7901         MOV       R1,#0x1
   \   0004C1   12....       LCALL     ??Subroutine24_0 & 0xFFFF
   \                     ??CrossCallReturnLabel_43:
   \   0004C4   12....       LCALL     ?DEALLOC_XSTACK8
    423                      while (wait_for("OK\r\n", "FAIL\r\n", 0));
   \   0004C7                ; Setup parameters for call to function wait_for
   \   0004C7   E4           CLR       A
   \   0004C8   F5..         MOV       ?V0,A
   \   0004CA   F5..         MOV       ?V1,A
   \   0004CC   78..         MOV       R0,#?V0
   \   0004CE   12....       LCALL     ?PUSH_XSTACK_I_TWO
   \   0004D1   7C..         MOV       R4,#`?<Constant "FAIL\\r\\n">` & 0xff
   \   0004D3   7D..         MOV       R5,#(`?<Constant "FAIL\\r\\n">` >> 8) & 0xff
   \   0004D5   12....       LCALL     ??Subroutine26_0 & 0xFFFF
   \                     ??CrossCallReturnLabel_59:
   \   0004D8   12....       LCALL     ?DEALLOC_XSTACK8
   \   0004DB   B90099       CJNE      R1,#0x0,??SampleApp_ProcessEvent_35
    424                      do debug_and_print("AT+CIPMUX=0\r\n");
   \                     ??SampleApp_ProcessEvent_36:
   \   0004DE   75....       MOV       ?V0,#`?<Constant "AT+CIPMUX=0\\r\\n">` & 0xff
   \   0004E1   75....       MOV       ?V1,#(`?<Constant "AT+CIPMUX=0\\r\\n">` >> 8) & 0xff
   \   0004E4                ; Setup parameters for call to function _UARTSend
   \   0004E4   12....       LCALL     ?Subroutine8 & 0xFFFF
    425                      while (wait_for("OK\r\n", "ERROR\r\n", 0));
   \                     ??CrossCallReturnLabel_12:
   \   0004E7   12....       LCALL     ?PUSH_XSTACK_I_TWO
   \   0004EA   12....       LCALL     ?Subroutine9 & 0xFFFF
   \                     ??CrossCallReturnLabel_57:
   \   0004ED   12....       LCALL     ?DEALLOC_XSTACK8
   \   0004F0   B900EB       CJNE      R1,#0x0,??SampleApp_ProcessEvent_36
    426                      do debug_and_print("AT+CIPMODE=1\r\n");
   \                     ??SampleApp_ProcessEvent_37:
   \   0004F3   75....       MOV       ?V0,#`?<Constant "AT+CIPMODE=1\\r\\n">` & 0xff
   \   0004F6   75....       MOV       ?V1,#(`?<Constant "AT+CIPMODE=1\\r\\n">` >> 8) & 0xff
   \   0004F9                ; Setup parameters for call to function _UARTSend
   \   0004F9   12....       LCALL     ?Subroutine8 & 0xFFFF
    427                      while (wait_for("OK\r\n", "ERROR\r\n", 0));
   \                     ??CrossCallReturnLabel_13:
   \   0004FC   12....       LCALL     ?PUSH_XSTACK_I_TWO
   \   0004FF   12....       LCALL     ?Subroutine9 & 0xFFFF
   \                     ??CrossCallReturnLabel_58:
   \   000502   12....       LCALL     ?DEALLOC_XSTACK8
   \   000505   B900EB       CJNE      R1,#0x0,??SampleApp_ProcessEvent_37
    428                      do debug_and_print("AT+CIPSTART=\"TCP\",\"%s\",%s\r\n", MYIP, PORT);
   \                     ??SampleApp_ProcessEvent_38:
   \   000508   75....       MOV       ?V0,#`?<Constant "AT+CIPSTART=\\"TCP\\",\\"%s...">` & 0xff
   \   00050B   75....       MOV       ?V1,#(`?<Constant "AT+CIPSTART=\\"TCP\\",\\"%s...">` >> 8) & 0xff
   \   00050E                ; Setup parameters for call to function _UARTSend
   \   00050E   A8..         MOV       R0,?XSP + 0
   \   000510   A9..         MOV       R1,?XSP + 1
   \   000512   88..         MOV       ?V2,R0
   \   000514   89..         MOV       ?V3,R1
   \   000516   78..         MOV       R0,#?V2
   \   000518   12....       LCALL     ?PUSH_XSTACK_I_TWO
   \   00051B   7427         MOV       A,#0x27
   \   00051D   12....       LCALL     ?XSTACK_DISP100_8
   \   000520   88..         MOV       ?V2,R0
   \   000522   89..         MOV       ?V3,R1
   \   000524   78..         MOV       R0,#?V2
   \   000526   12....       LCALL     ?PUSH_XSTACK_I_TWO
   \   000529   12....       LCALL     ?Subroutine14 & 0xFFFF
   \                     ??CrossCallReturnLabel_42:
   \   00052C   12....       LCALL     ?DEALLOC_XSTACK8
   \   00052F                ; Setup parameters for call to function _UARTSend
   \   00052F   A8..         MOV       R0,?XSP + 0
   \   000531   A9..         MOV       R1,?XSP + 1
   \   000533   88..         MOV       ?V2,R0
   \   000535   89..         MOV       ?V3,R1
   \   000537   78..         MOV       R0,#?V2
   \   000539   12....       LCALL     ?PUSH_XSTACK_I_TWO
   \   00053C   7427         MOV       A,#0x27
   \   00053E   12....       LCALL     ?XSTACK_DISP100_8
   \   000541   88..         MOV       ?V2,R0
   \   000543   89..         MOV       ?V3,R1
   \   000545   78..         MOV       R0,#?V2
   \   000547   12....       LCALL     ?PUSH_XSTACK_I_TWO
   \   00054A   AA..         MOV       R2,?V0
   \   00054C   AB..         MOV       R3,?V1
   \   00054E   7901         MOV       R1,#0x1
   \   000550   12....       LCALL     ??Subroutine24_0 & 0xFFFF
   \                     ??CrossCallReturnLabel_44:
   \   000553   12....       LCALL     ?DEALLOC_XSTACK8
    429                      while (wait_for("OK\r\n", "CLOSED\r\n", 0));
   \   000556                ; Setup parameters for call to function wait_for
   \   000556   E4           CLR       A
   \   000557   F5..         MOV       ?V0,A
   \   000559   F5..         MOV       ?V1,A
   \   00055B   78..         MOV       R0,#?V0
   \   00055D   12....       LCALL     ?PUSH_XSTACK_I_TWO
   \   000560   7C..         MOV       R4,#`?<Constant "CLOSED\\r\\n">` & 0xff
   \   000562   7D..         MOV       R5,#(`?<Constant "CLOSED\\r\\n">` >> 8) & 0xff
   \   000564   12....       LCALL     ??Subroutine26_0 & 0xFFFF
   \                     ??CrossCallReturnLabel_60:
   \   000567   12....       LCALL     ?DEALLOC_XSTACK8
   \   00056A   B9009B       CJNE      R1,#0x0,??SampleApp_ProcessEvent_38
    430                      debug_and_print("AT+CIPSEND\r\n");
   \   00056D   75....       MOV       ?V0,#`?<Constant "AT+CIPSEND\\r\\n">` & 0xff
   \   000570   75....       MOV       ?V1,#(`?<Constant "AT+CIPSEND\\r\\n">` >> 8) & 0xff
   \   000573                ; Setup parameters for call to function _UARTSend
   \   000573   12....       LCALL     ?Subroutine8 & 0xFFFF
    431                  } while (wait_for(">", "ERROR\r\n", 0));
   \                     ??CrossCallReturnLabel_14:
   \   000576   12....       LCALL     ?PUSH_XSTACK_I_TWO
   \   000579   7C..         MOV       R4,#`?<Constant "ERROR\\r\\n">` & 0xff
   \   00057B   7D..         MOV       R5,#(`?<Constant "ERROR\\r\\n">` >> 8) & 0xff
   \   00057D   7A..         MOV       R2,#`?<Constant ">">` & 0xff
   \   00057F   7B..         MOV       R3,#(`?<Constant ">">` >> 8) & 0xff
   \   000581   12....       LCALL     ??Subroutine27_0 & 0xFFFF
   \                     ??CrossCallReturnLabel_62:
   \   000584   12....       LCALL     ?DEALLOC_XSTACK8
   \   000587   E9           MOV       A,R1
   \   000588   6003         JZ        $+5
   \   00058A   02....       LJMP      ??SampleApp_ProcessEvent_31 & 0xFFFF
    432                  
    433                  // drive initial events
    434                  _delay_ms(50);
   \   00058D                ; Setup parameters for call to function _delay_ms
   \   00058D   7A32         MOV       R2,#0x32
   \   00058F   7B00         MOV       R3,#0x0
   \   000591   12....       LCALL     `??_delay_ms::?relay`; Banked call to: _delay_ms
    435                  osal_set_event(SampleApp_TaskID, SAMPLEAPP_SEND_HEART_BEAT_EVT);
   \   000594                ; Setup parameters for call to function osal_set_event
   \   000594   7A08         MOV       R2,#0x8
   \   000596   12....       LCALL     ??Subroutine29_0 & 0xFFFF
    436                  return (events ^ SAMPLEAPP_INITIALIZE_WIFI_EVT);
   \                     ??CrossCallReturnLabel_71:
   \   000599   EE           MOV       A,R6
   \   00059A   6404         XRL       A,#0x4
   \   00059C   8044         SJMP      ??SampleApp_ProcessEvent_8
    437              }
    438          
    439              if (events & SAMPLEAPP_SEND_HEART_BEAT_EVT) {
   \                     ??SampleApp_ProcessEvent_30:
   \   00059E   EA           MOV       A,R2
   \   00059F   5408         ANL       A,#0x8
   \   0005A1   6044         JZ        ??SampleApp_ProcessEvent_39
    440                  debug_and_print("heart beat\r\n");
   \   0005A3   75....       MOV       ?V0,#`?<Constant "heart beat\\r\\n">` & 0xff
   \   0005A6   75....       MOV       ?V1,#(`?<Constant "heart beat\\r\\n">` >> 8) & 0xff
   \   0005A9                ; Setup parameters for call to function _UARTSend
   \   0005A9   12....       LCALL     ?Subroutine22 & 0xFFFF
    441                  if (wait_for("received\r\n", "ERROR\r\n", 200)) {
   \                     ??CrossCallReturnLabel_34:
   \   0005AC                ; Setup parameters for call to function wait_for
   \   0005AC   75..C8       MOV       ?V0,#-0x38
   \   0005AF   75..00       MOV       ?V1,#0x0
   \   0005B2   78..         MOV       R0,#?V0
   \   0005B4   12....       LCALL     ?PUSH_XSTACK_I_TWO
   \   0005B7   7C..         MOV       R4,#`?<Constant "ERROR\\r\\n">` & 0xff
   \   0005B9   7D..         MOV       R5,#(`?<Constant "ERROR\\r\\n">` >> 8) & 0xff
   \   0005BB   7A..         MOV       R2,#`?<Constant "received\\r\\n">` & 0xff
   \   0005BD   7B..         MOV       R3,#(`?<Constant "received\\r\\n">` >> 8) & 0xff
   \   0005BF   12....       LCALL     ??Subroutine27_0 & 0xFFFF
   \                     ??CrossCallReturnLabel_63:
   \   0005C2   12....       LCALL     ?DEALLOC_XSTACK8
   \   0005C5   E9           MOV       A,R1
   \   0005C6   600E         JZ        ??SampleApp_ProcessEvent_40
    442                      debug("WIFI RESET\r\n");
   \   0005C8                ; Setup parameters for call to function _UARTSend
   \   0005C8   7A..         MOV       R2,#`?<Constant "WIFI RESET\\r\\n">` & 0xff
   \   0005CA   7B..         MOV       R3,#(`?<Constant "WIFI RESET\\r\\n">` >> 8) & 0xff
   \   0005CC   7900         MOV       R1,#0x0
   \   0005CE   12....       LCALL     `??_UARTSend::?relay`; Banked call to: _UARTSend
    443                      osal_set_event(SampleApp_TaskID, SAMPLEAPP_INITIALIZE_WIFI_EVT);
   \   0005D1                ; Setup parameters for call to function osal_set_event
   \   0005D1   12....       LCALL     ?Subroutine4 & 0xFFFF
    444                  } else {
   \                     ??CrossCallReturnLabel_68:
   \   0005D4   8009         SJMP      ??CrossCallReturnLabel_66
    445                      osal_start_timerEx(SampleApp_TaskID, SAMPLEAPP_SEND_HEART_BEAT_EVT, 2000);
   \                     ??SampleApp_ProcessEvent_40:
   \   0005D6                ; Setup parameters for call to function osal_start_timerEx
   \   0005D6   7CD0         MOV       R4,#-0x30
   \   0005D8   7D07         MOV       R5,#0x7
   \   0005DA   7A08         MOV       R2,#0x8
   \   0005DC   12....       LCALL     ??Subroutine28_0 & 0xFFFF
    446                  }
    447                  return (events ^ SAMPLEAPP_SEND_HEART_BEAT_EVT);
   \                     ??CrossCallReturnLabel_66:
   \   0005DF   EE           MOV       A,R6
   \   0005E0   6408         XRL       A,#0x8
   \                     ??SampleApp_ProcessEvent_8:
   \   0005E2   FA           MOV       R2,A
   \   0005E3   EF           MOV       A,R7
   \                     ??SampleApp_ProcessEvent_6:
   \   0005E4   FB           MOV       R3,A
   \   0005E5   8004         SJMP      ??SampleApp_ProcessEvent_41
    448              }
    449          
    450              // Discard unknown events
    451              return 0;
   \                     ??SampleApp_ProcessEvent_39:
   \   0005E7   7A00         MOV       R2,#0x0
   \   0005E9   7B00         MOV       R3,#0x0
   \                     ??SampleApp_ProcessEvent_41:
   \   0005EB   748F         MOV       A,#-0x71
   \   0005ED   02....       LJMP      ??Subroutine32_0 & 0xFFFF
   \   0005F0                REQUIRE _A_P0
    452          }

   \                                 In  segment BANKED_CODE, align 1, keep-with-next
   \                     ?Subroutine19:
   \   000000   7B04         MOV       R3,#0x4
   \   000002   12....       LCALL     `??osal_nv_read::?relay`; Banked call to: osal_nv_read
   \   000005   7404         MOV       A,#0x4
   \   000007   22           RET

   \                                 In  segment BANKED_CODE, align 1, keep-with-next
   \                     ?Subroutine16:
   \   000000   7B04         MOV       R3,#0x4
   \   000002                REQUIRE ??Subroutine23_0
   \   000002                ; // Fall through to label ??Subroutine23_0

   \                                 In  segment BANKED_CODE, align 1, keep-with-next
   \                     ??Subroutine23_0:
   \   000000   12....       LCALL     `??osal_nv_item_init::?relay`; Banked call to: osal_nv_item_init
   \   000003   7402         MOV       A,#0x2
   \   000005   22           RET

   \                                 In  segment BANKED_CODE, align 1, keep-with-next
   \                     ?Subroutine14:
   \   000000   AA..         MOV       R2,?V0
   \   000002   AB..         MOV       R3,?V1
   \   000004   7900         MOV       R1,#0x0
   \   000006                REQUIRE ??Subroutine24_0
   \   000006                ; // Fall through to label ??Subroutine24_0

   \                                 In  segment BANKED_CODE, align 1, keep-with-next
   \                     ??Subroutine24_0:
   \   000000   12....       LCALL     `??_UARTSend::?relay`; Banked call to: _UARTSend
   \   000003   7404         MOV       A,#0x4
   \   000005   22           RET

   \                                 In  segment BANKED_CODE, align 1, keep-with-next
   \                     ?Subroutine13:
   \   000000   E5..         MOV       A,?V0
   \   000002   25..         ADD       A,?V6
   \   000004   F8           MOV       R0,A
   \   000005   E4           CLR       A
   \   000006   3400         ADDC      A,#0x0
   \   000008   F9           MOV       R1,A
   \   000009   E8           MOV       A,R0
   \   00000A   2402         ADD       A,#0x2
   \   00000C   22           RET

   \                                 In  segment BANKED_CODE, align 1, keep-with-next
   \                     ?Subroutine12:
   \   000000   A982         MOV       R1,DPL
   \   000002   AA83         MOV       R2,DPH
   \   000004                REQUIRE ??Subroutine25_0
   \   000004                ; // Fall through to label ??Subroutine25_0

   \                                 In  segment BANKED_CODE, align 1, keep-with-next
   \                     ??Subroutine25_0:
   \   000000   7B00         MOV       R3,#0x0
   \   000002   12....       LCALL     `??osal_memcmp::?relay`; Banked call to: osal_memcmp
   \   000005   7403         MOV       A,#0x3
   \   000007   22           RET

   \                                 In  segment BANKED_CODE, align 1, keep-with-next
   \                     ?Subroutine11:
   \   000000   7900         MOV       R1,#0x0
   \   000002   12....       LCALL     `??_UARTSend::?relay`; Banked call to: _UARTSend
   \   000005                ; Setup parameters for call to function osal_nv_item_init
   \   000005                ; Setup parameters for call to function osal_nv_item_init
   \   000005                ; Setup parameters for call to function osal_nv_item_init
   \   000005   E4           CLR       A
   \   000006   F5..         MOV       ?V0,A
   \   000008   78..         MOV       R0,#?V0
   \   00000A   22           RET

   \                                 In  segment BANKED_CODE, align 1, keep-with-next
   \                     ?Subroutine9:
   \   000000   7C..         MOV       R4,#`?<Constant "ERROR\\r\\n">` & 0xff
   \   000002   7D..         MOV       R5,#(`?<Constant "ERROR\\r\\n">` >> 8) & 0xff
   \   000004                REQUIRE ??Subroutine26_0
   \   000004                ; // Fall through to label ??Subroutine26_0

   \                                 In  segment BANKED_CODE, align 1, keep-with-next
   \                     ??Subroutine26_0:
   \   000000   7A..         MOV       R2,#`?<Constant "OK\\r\\n">` & 0xff
   \   000002   7B..         MOV       R3,#(`?<Constant "OK\\r\\n">` >> 8) & 0xff
   \   000004                REQUIRE ??Subroutine27_0
   \   000004                ; // Fall through to label ??Subroutine27_0

   \                                 In  segment BANKED_CODE, align 1, keep-with-next
   \                     ??Subroutine27_0:
   \   000000   12....       LCALL     `??wait_for::?relay`; Banked call to: wait_for
   \   000003   7402         MOV       A,#0x2
   \   000005   22           RET

   \                                 In  segment BANKED_CODE, align 1, keep-with-next
   \                     ?Subroutine8:
   \   000000   12....       LCALL     ?Subroutine22 & 0xFFFF
   \                     ??CrossCallReturnLabel_35:
   \   000003                ; Setup parameters for call to function wait_for
   \   000003                ; Setup parameters for call to function wait_for
   \   000003                ; Setup parameters for call to function wait_for
   \   000003                ; Setup parameters for call to function wait_for
   \   000003                ; Setup parameters for call to function wait_for
   \   000003                ; Setup parameters for call to function wait_for
   \   000003                ; Setup parameters for call to function wait_for
   \   000003                ; Setup parameters for call to function wait_for
   \   000003                ; Setup parameters for call to function wait_for
   \   000003                ; Setup parameters for call to function wait_for
   \   000003   E4           CLR       A
   \   000004   F5..         MOV       ?V0,A
   \   000006   F5..         MOV       ?V1,A
   \   000008   78..         MOV       R0,#?V0
   \   00000A   22           RET

   \                                 In  segment BANKED_CODE, align 1, keep-with-next
   \                     ?Subroutine22:
   \   000000   AA..         MOV       R2,?V0
   \   000002   AB..         MOV       R3,?V1
   \   000004   7900         MOV       R1,#0x0
   \   000006   12....       LCALL     `??_UARTSend::?relay`; Banked call to: _UARTSend
   \   000009                ; Setup parameters for call to function _UARTSend
   \   000009                ; Setup parameters for call to function _UARTSend
   \   000009                ; Setup parameters for call to function _UARTSend
   \   000009                ; Setup parameters for call to function _UARTSend
   \   000009                ; Setup parameters for call to function _UARTSend
   \   000009                ; Setup parameters for call to function _UARTSend
   \   000009                ; Setup parameters for call to function _UARTSend
   \   000009                ; Setup parameters for call to function _UARTSend
   \   000009                ; Setup parameters for call to function _UARTSend
   \   000009                ; Setup parameters for call to function _UARTSend
   \   000009                ; Setup parameters for call to function _UARTSend
   \   000009   AA..         MOV       R2,?V0
   \   00000B   AB..         MOV       R3,?V1
   \   00000D   7901         MOV       R1,#0x1
   \   00000F   12....       LCALL     `??_UARTSend::?relay`; Banked call to: _UARTSend
   \   000012   22           RET

   \                                 In  segment BANKED_CODE, align 1, keep-with-next
   \                     ?Subroutine7:
   \   000000   7A01         MOV       R2,#0x1
   \   000002                REQUIRE ??Subroutine28_0
   \   000002                ; // Fall through to label ??Subroutine28_0

   \                                 In  segment BANKED_CODE, align 1, keep-with-next
   \                     ??Subroutine28_0:
   \   000000   7B00         MOV       R3,#0x0
   \   000002   90....       MOV       DPTR,#SampleApp_TaskID
   \   000005   E0           MOVX      A,@DPTR
   \   000006   F9           MOV       R1,A
   \   000007   12....       LCALL     `??osal_start_timerEx::?relay`; Banked call to: osal_start_timerEx
   \   00000A   22           RET

   \                                 In  segment BANKED_CODE, align 1, keep-with-next
   \                     ?Subroutine4:
   \   000000   7A04         MOV       R2,#0x4
   \   000002                REQUIRE ??Subroutine29_0
   \   000002                ; // Fall through to label ??Subroutine29_0

   \                                 In  segment BANKED_CODE, align 1, keep-with-next
   \                     ??Subroutine32_0:
   \   000000   12....       LCALL     ?DEALLOC_XSTACK8
   \   000003   7F08         MOV       R7,#0x8
   \   000005   02....       LJMP      ?BANKED_LEAVE_XDATA

   \                                 In  segment BANKED_CODE, align 1, keep-with-next
   \                     ?Subroutine17:
   \   000000   E582         MOV       A,DPL
   \   000002   25..         ADD       A,?V4
   \   000004   F582         MOV       DPL,A
   \   000006   E583         MOV       A,DPH
   \   000008   35..         ADDC      A,?V5
   \   00000A   F583         MOV       DPH,A
   \   00000C   22           RET
    453          
    454          /*********************************************************************
    455           * Event Generation Functions
    456           */
    457          /*********************************************************************
    458           * @fn            SampleApp_HandleKeys
    459           *
    460           * @brief     Handles all key events for this device.
    461           *
    462           * @param     shift - true if in shift/alt.
    463           * @param     keys - bit field for key events. Valid entries:
    464           *                                 HAL_KEY_SW_2
    465           *                                 HAL_KEY_SW_1
    466           *
    467           * @return    none
    468           */

   \                                 In  segment BANKED_CODE, align 1, keep-with-next
    469          void SampleApp_HandleKeys( uint8 shift, uint8 keys )
   \                     SampleApp_HandleKeys:
    470          {
   \   000000                ; Saved register size: 0
   \   000000                ; Auto size: 0
    471              (void)shift;    // Intentionally unreferenced parameter
    472              
    473              if ( keys & HAL_KEY_SW_6 ) { // S1
    474              }
    475          
    476              if ( keys & HAL_KEY_SW_7 ) { // S2
    477              }
    478          }
   \   000000   02....       LJMP      ?BRET
    479          
    480          /*********************************************************************
    481           * @fn            SampleApp_MessageMSGCB
    482           *
    483           * @brief     Data message processor callback.    This function processes
    484           *                    any incoming data - probably from other devices.    So, based
    485           *                    on cluster ID, perform the intended action.
    486           *
    487           * @param     none
    488           *
    489           * @return    none
    490           */

   \                                 In  segment BANKED_CODE, align 1, keep-with-next
    491          void SampleApp_MessageMSGCB( afIncomingMSGPacket_t *pkt )
   \                     SampleApp_MessageMSGCB:
    492          {
   \   000000                REQUIRE ?V0
   \   000000                REQUIRE ?V1
   \   000000   74F6         MOV       A,#-0xa
   \   000002   12....       LCALL     ?BANKED_ENTER_XDATA
   \   000005                ; Saved register size: 10
   \   000005                ; Auto size: 0
   \   000005   EA           MOV       A,R2
   \   000006   FE           MOV       R6,A
   \   000007   EB           MOV       A,R3
   \   000008   FF           MOV       R7,A
    493              uint16 flashTime;
    494          
    495              switch ( pkt->clusterId )
   \   000009   8A82         MOV       DPL,R2
   \   00000B   F583         MOV       DPH,A
   \   00000D   A3           INC       DPTR
   \   00000E   A3           INC       DPTR
   \   00000F   A3           INC       DPTR
   \   000010   A3           INC       DPTR
   \   000011   E0           MOVX      A,@DPTR
   \   000012   F5..         MOV       ?V0,A
   \   000014   A3           INC       DPTR
   \   000015   E0           MOVX      A,@DPTR
   \   000016   F5..         MOV       ?V1,A
   \   000018   78..         MOV       R0,#?V0
   \   00001A   12....       LCALL     ?US_SWITCH_DENSE
   \                     `?<Jumptable for SampleApp_MessageMSGCB>_0`:
   \   00001D   0100         DW        1
   \   00001F   01           DB        1
   \   000020   ....         DW        ??SampleApp_MessageMSGCB_0
   \   000022   ....         DW        ??SampleApp_MessageMSGCB_1
   \   000024   ....         DW        ??SampleApp_MessageMSGCB_2
    496              {
    497                  case SAMPLEAPP_PERIODIC_CLUSTERID:
    498                      HalUARTWrite(0,"I get data\n",11);
   \                     ??SampleApp_MessageMSGCB_1:
   \   000026                ; Setup parameters for call to function HalUARTWrite
   \   000026   7C0B         MOV       R4,#0xb
   \   000028   7D00         MOV       R5,#0x0
   \   00002A   7A..         MOV       R2,#`?<Constant "I get data\\n">` & 0xff
   \   00002C   7B..         MOV       R3,#(`?<Constant "I get data\\n">` >> 8) & 0xff
   \   00002E   7900         MOV       R1,#0x0
   \   000030   12....       LCALL     `??HalUARTWrite::?relay`; Banked call to: HalUARTWrite
    499                      HalUARTWrite(0, &pkt->cmd.Data[0],10);
   \   000033                ; Setup parameters for call to function HalUARTWrite
   \   000033   7C0A         MOV       R4,#0xa
   \   000035   7D00         MOV       R5,#0x0
   \   000037   EE           MOV       A,R6
   \   000038   12....       LCALL     ?Subroutine20 & 0xFFFF
   \                     ??CrossCallReturnLabel_30:
   \   00003B   FA           MOV       R2,A
   \   00003C   A3           INC       DPTR
   \   00003D   E0           MOVX      A,@DPTR
   \   00003E   FB           MOV       R3,A
   \   00003F   7900         MOV       R1,#0x0
   \   000041   12....       LCALL     `??HalUARTWrite::?relay`; Banked call to: HalUARTWrite
    500                      HalUARTWrite(0,"\n",1);
   \   000044                ; Setup parameters for call to function HalUARTWrite
   \   000044   7C01         MOV       R4,#0x1
   \   000046   7D00         MOV       R5,#0x0
   \   000048   7A..         MOV       R2,#`?<Constant "\\n">` & 0xff
   \   00004A   7B..         MOV       R3,#(`?<Constant "\\n">` >> 8) & 0xff
   \   00004C   7900         MOV       R1,#0x0
   \   00004E   12....       LCALL     `??HalUARTWrite::?relay`; Banked call to: HalUARTWrite
    501                      break;
   \   000051   8036         SJMP      ??SampleApp_MessageMSGCB_0
   \                     ??SampleApp_MessageMSGCB_2:
   \   000053   EA           MOV       A,R2
   \   000054   12....       LCALL     ?Subroutine20 & 0xFFFF
   \                     ??CrossCallReturnLabel_31:
   \   000057   F8           MOV       R0,A
   \   000058   A3           INC       DPTR
   \   000059   E0           MOVX      A,@DPTR
   \   00005A   F9           MOV       R1,A
   \   00005B                ; Setup parameters for call to function HalLedBlink
   \   00005B   8882         MOV       DPL,R0
   \   00005D   F583         MOV       DPH,A
   \   00005F   A3           INC       DPTR
   \   000060   E0           MOVX      A,@DPTR
   \   000061   FA           MOV       R2,A
   \   000062   8882         MOV       DPL,R0
   \   000064   8983         MOV       DPH,R1
   \   000066   A3           INC       DPTR
   \   000067   A3           INC       DPTR
   \   000068   E0           MOVX      A,@DPTR
   \   000069   F8           MOV       R0,A
   \   00006A   E4           CLR       A
   \   00006B   C8           XCH       A,R0
   \   00006C   F9           MOV       R1,A
   \   00006D   EA           MOV       A,R2
   \   00006E   28           ADD       A,R0
   \   00006F   F5..         MOV       ?V0,A
   \   000071   E4           CLR       A
   \   000072   39           ADDC      A,R1
   \   000073   F5..         MOV       ?V1,A
   \   000075   7402         MOV       A,#0x2
   \   000077   78..         MOV       R0,#?V0
   \   000079   12....       LCALL     ?US_SHR
   \   00007C   AC..         MOV       R4,?V0
   \   00007E   AD..         MOV       R5,?V1
   \   000080   7B32         MOV       R3,#0x32
   \   000082   7A04         MOV       R2,#0x4
   \   000084   7908         MOV       R1,#0x8
    502          
    503                  case SAMPLEAPP_FLASH_CLUSTERID:
    504                      flashTime = BUILD_UINT16(pkt->cmd.Data[1], pkt->cmd.Data[2] );
    505                      HalLedBlink( HAL_LED_4, 4, 50, (flashTime / 4) );
   \   000086   12....       LCALL     `??HalLedBlink::?relay`; Banked call to: HalLedBlink
    506                      break;
    507              }
    508          }
   \                     ??SampleApp_MessageMSGCB_0:
   \   000089   02....       LJMP      ??Subroutine31_0 & 0xFFFF

   \                                 In  segment BANKED_CODE, align 1, keep-with-next
   \                     ?Subroutine20:
   \   000000   2422         ADD       A,#0x22
   \   000002   F582         MOV       DPL,A
   \   000004   E4           CLR       A
   \   000005   3F           ADDC      A,R7
   \   000006   F583         MOV       DPH,A
   \   000008   E0           MOVX      A,@DPTR
   \   000009   22           RET

   \                                 In  segment BANKED_CODE, align 1, keep-with-next
   \                     ??Subroutine31_0:
   \   000000   7F02         MOV       R7,#0x2
   \   000002   02....       LJMP      ?BANKED_LEAVE_XDATA
    509          
    510          /*********************************************************************
    511           * @fn            SampleApp_SendPeriodicMessage
    512           *
    513           * @brief     Send the periodic message.
    514           *
    515           * @param     none
    516           *
    517           * @return    none
    518           */

   \                                 In  segment BANKED_CODE, align 1, keep-with-next
    519          void SampleApp_SendPeriodicMessage( void ) {
   \                     SampleApp_SendPeriodicMessage:
   \   000000                REQUIRE ?V0
   \   000000                REQUIRE ?V1
   \   000000   74F6         MOV       A,#-0xa
   \   000002   12....       LCALL     ?BANKED_ENTER_XDATA
   \   000005                ; Saved register size: 10
   \   000005                ; Auto size: 10
   \   000005   74F6         MOV       A,#-0xa
   \   000007   12....       LCALL     ?ALLOC_XSTACK8
    520              uint8 data[10]={'0','1','2','3','4','5','6','7','8','9'};
   \   00000A   90....       MOV       DPTR,#`?<Constant {48, 49, 50, 51, 52, 53, 54, 55, 56`
   \   00000D   AC..         MOV       R4,?XSP + 0
   \   00000F   AD..         MOV       R5,?XSP + 1
   \   000011   740A         MOV       A,#0xa
   \   000013   12....       LCALL     ?MOVE_LONG8_XDATA_XDATA
    521              if ( AF_DataRequest( &SampleApp_Periodic_DstAddr, &SampleApp_epDesc, SAMPLEAPP_PERIODIC_CLUSTERID,
    522                  10, data, &SampleApp_TransID, AF_DISCV_ROUTE, AF_DEFAULT_RADIUS ) == afStatus_SUCCESS ) {
   \   000016                ; Setup parameters for call to function AF_DataRequest
   \   000016   75..1E       MOV       ?V0,#0x1e
   \   000019   78..         MOV       R0,#?V0
   \   00001B   12....       LCALL     ?PUSH_XSTACK_I_ONE
   \   00001E   75....       MOV       ?V0,#SampleApp_TransID & 0xff
   \   000021   75....       MOV       ?V1,#(SampleApp_TransID >> 8) & 0xff
   \   000024   78..         MOV       R0,#?V0
   \   000026   12....       LCALL     ?PUSH_XSTACK_I_TWO
   \   000029   7403         MOV       A,#0x3
   \   00002B   12....       LCALL     ?XSTACK_DISP100_8
   \   00002E   88..         MOV       ?V0,R0
   \   000030   89..         MOV       ?V1,R1
   \   000032   78..         MOV       R0,#?V0
   \   000034   12....       LCALL     ?PUSH_XSTACK_I_TWO
   \   000037   75..0A       MOV       ?V0,#0xa
   \   00003A   75..00       MOV       ?V1,#0x0
   \   00003D   78..         MOV       R0,#?V0
   \   00003F   12....       LCALL     ?PUSH_XSTACK_I_TWO
   \   000042   75..01       MOV       ?V0,#0x1
   \   000045   78..         MOV       R0,#?V0
   \   000047   12....       LCALL     ?PUSH_XSTACK_I_TWO
   \   00004A   7920         MOV       R1,#0x20
   \   00004C   7C..         MOV       R4,#SampleApp_epDesc & 0xff
   \   00004E   7D..         MOV       R5,#(SampleApp_epDesc >> 8) & 0xff
   \   000050   7A..         MOV       R2,#SampleApp_Periodic_DstAddr & 0xff
   \   000052   7B..         MOV       R3,#(SampleApp_Periodic_DstAddr >> 8) & 0xff
   \   000054   12....       LCALL     `??AF_DataRequest::?relay`; Banked call to: AF_DataRequest
   \   000057   7409         MOV       A,#0x9
   \   000059   12....       LCALL     ?DEALLOC_XSTACK8
    523              } else {
    524                  // Error occurred in request to send.
    525              }
    526          }
   \   00005C   740A         MOV       A,#0xa
   \   00005E   02....       LJMP      ?Subroutine1 & 0xFFFF

   \                                 In  segment BANKED_CODE, align 1, keep-with-next
   \                     ?Subroutine1:
   \   000000   12....       LCALL     ?DEALLOC_XSTACK8
   \   000003                REQUIRE ??Subroutine31_0
   \   000003                ; // Fall through to label ??Subroutine31_0
    527          
    528          /*********************************************************************
    529           * @fn            SampleApp_SendFlashMessage
    530           *
    531           * @brief     Send the flash message to group 1.
    532           *
    533           * @param     flashTime - in milliseconds
    534           *
    535           * @return    none
    536           */

   \                                 In  segment BANKED_CODE, align 1, keep-with-next
    537          void SampleApp_SendFlashMessage(uint16 flashTime) {
   \                     SampleApp_SendFlashMessage:
   \   000000                REQUIRE ?V0
   \   000000                REQUIRE ?V1
   \   000000   74F6         MOV       A,#-0xa
   \   000002   12....       LCALL     ?BANKED_ENTER_XDATA
   \   000005                ; Saved register size: 10
   \   000005                ; Auto size: 3
   \   000005   74FD         MOV       A,#-0x3
   \   000007   12....       LCALL     ?ALLOC_XSTACK8
    538              uint8 buffer[3];
    539              buffer[0] = (uint8)(SampleAppFlashCounter++);
   \   00000A   90....       MOV       DPTR,#SampleAppFlashCounter
   \   00000D   E0           MOVX      A,@DPTR
   \   00000E   85..82       MOV       DPL,?XSP + 0
   \   000011   85..83       MOV       DPH,?XSP + 1
   \   000014   F0           MOVX      @DPTR,A
   \   000015   90....       MOV       DPTR,#SampleAppFlashCounter
   \   000018   E0           MOVX      A,@DPTR
   \   000019   04           INC       A
   \   00001A   F0           MOVX      @DPTR,A
    540              buffer[1] = LO_UINT16( flashTime );
   \   00001B   7401         MOV       A,#0x1
   \   00001D   12....       LCALL     ?XSTACK_DISP0_8
   \   000020   EA           MOV       A,R2
   \   000021   F0           MOVX      @DPTR,A
    541              buffer[2] = HI_UINT16( flashTime );
   \   000022   7402         MOV       A,#0x2
   \   000024   12....       LCALL     ?XSTACK_DISP0_8
   \   000027   EB           MOV       A,R3
   \   000028   F0           MOVX      @DPTR,A
    542          
    543              if ( AF_DataRequest( &SampleApp_Flash_DstAddr, &SampleApp_epDesc, 
    544                  SAMPLEAPP_FLASH_CLUSTERID, 3, buffer, &SampleApp_TransID, AF_DISCV_ROUTE, AF_DEFAULT_RADIUS ) == afStatus_SUCCESS ) {
   \   000029                ; Setup parameters for call to function AF_DataRequest
   \   000029   75..1E       MOV       ?V0,#0x1e
   \   00002C   78..         MOV       R0,#?V0
   \   00002E   12....       LCALL     ?PUSH_XSTACK_I_ONE
   \   000031   75....       MOV       ?V0,#SampleApp_TransID & 0xff
   \   000034   75....       MOV       ?V1,#(SampleApp_TransID >> 8) & 0xff
   \   000037   78..         MOV       R0,#?V0
   \   000039   12....       LCALL     ?PUSH_XSTACK_I_TWO
   \   00003C   7403         MOV       A,#0x3
   \   00003E   12....       LCALL     ?XSTACK_DISP100_8
   \   000041   88..         MOV       ?V0,R0
   \   000043   89..         MOV       ?V1,R1
   \   000045   78..         MOV       R0,#?V0
   \   000047   12....       LCALL     ?PUSH_XSTACK_I_TWO
   \   00004A   75..03       MOV       ?V0,#0x3
   \   00004D   75..00       MOV       ?V1,#0x0
   \   000050   78..         MOV       R0,#?V0
   \   000052   12....       LCALL     ?PUSH_XSTACK_I_TWO
   \   000055   75..02       MOV       ?V0,#0x2
   \   000058   78..         MOV       R0,#?V0
   \   00005A   12....       LCALL     ?PUSH_XSTACK_I_TWO
   \   00005D   7920         MOV       R1,#0x20
   \   00005F   7C..         MOV       R4,#SampleApp_epDesc & 0xff
   \   000061   7D..         MOV       R5,#(SampleApp_epDesc >> 8) & 0xff
   \   000063   7A..         MOV       R2,#SampleApp_Flash_DstAddr & 0xff
   \   000065   7B..         MOV       R3,#(SampleApp_Flash_DstAddr >> 8) & 0xff
   \   000067   12....       LCALL     `??AF_DataRequest::?relay`; Banked call to: AF_DataRequest
   \   00006A   7409         MOV       A,#0x9
   \   00006C   12....       LCALL     ?DEALLOC_XSTACK8
    545              } else {
    546                  // Error occurred in request to send.
    547              }
    548          }
   \   00006F   7403         MOV       A,#0x3
   \   000071   80..         SJMP      ?Subroutine1
    549          

   \                                 In  segment BANKED_CODE, align 1, keep-with-next
    550          void _UARTSend(uint8 port, uint8 *fmt, ...) {
   \                     _UARTSend:
   \   000000                REQUIRE ?V0
   \   000000                REQUIRE ?V1
   \   000000   74F6         MOV       A,#-0xa
   \   000002   12....       LCALL     ?BANKED_ENTER_XDATA
   \   000005                ; Saved register size: 10
   \   000005                ; Auto size: 66
   \   000005   74BE         MOV       A,#-0x42
   \   000007   12....       LCALL     ?ALLOC_XSTACK8
   \   00000A   E9           MOV       A,R1
   \   00000B   FE           MOV       R6,A
    551              va_list arg_ptr;
    552              uint8 _buffer[UartDefaultTxLen], cnt;
    553              uint16 length = 0;
    554              for(cnt = 0 ; cnt < UartDefaultTxLen ; cnt++)
    555                  _buffer[cnt] = 0x00;
   \   00000C   7402         MOV       A,#0x2
   \   00000E   12....       LCALL     ?XSTACK_DISP0_8
   \   000011   E4           CLR       A
   \   000012   7840         MOV       R0,#0x40
   \                     ??_UARTSend_0:
   \   000014   F0           MOVX      @DPTR,A
   \   000015   A3           INC       DPTR
   \   000016   D8FC         DJNZ      R0,??_UARTSend_0
    556              va_start(arg_ptr, fmt);
   \   000018   744C         MOV       A,#0x4c
   \   00001A   12....       LCALL     ?XSTACK_DISP100_8
   \   00001D   85..82       MOV       DPL,?XSP + 0
   \   000020   85..83       MOV       DPH,?XSP + 1
   \   000023   E8           MOV       A,R0
   \   000024   F0           MOVX      @DPTR,A
   \   000025   A3           INC       DPTR
   \   000026   E9           MOV       A,R1
   \   000027   F0           MOVX      @DPTR,A
    557              length = vsprintf((char *)_buffer, (const char *)fmt, arg_ptr);
   \   000028                ; Setup parameters for call to function vsprintf
   \   000028   A8..         MOV       R0,?XSP + 0
   \   00002A   A9..         MOV       R1,?XSP + 1
   \   00002C   88..         MOV       ?V0,R0
   \   00002E   89..         MOV       ?V1,R1
   \   000030   78..         MOV       R0,#?V0
   \   000032   12....       LCALL     ?PUSH_XSTACK_I_TWO
   \   000035   EA           MOV       A,R2
   \   000036   FC           MOV       R4,A
   \   000037   EB           MOV       A,R3
   \   000038   FD           MOV       R5,A
   \   000039   7404         MOV       A,#0x4
   \   00003B   12....       LCALL     ?XSTACK_DISP101_8
   \   00003E   12....       LCALL     `??vsprintf::?relay`; Banked call to: vsprintf
   \   000041   7402         MOV       A,#0x2
   \   000043   12....       LCALL     ?DEALLOC_XSTACK8
   \   000046   8A..         MOV       ?V0,R2
   \   000048   8B..         MOV       ?V1,R3
   \   00004A   AC..         MOV       R4,?V0
   \   00004C   AD..         MOV       R5,?V1
    558              va_end(arg_ptr);
    559              HalUARTWrite(port, (uint8 *)_buffer, length);
   \   00004E                ; Setup parameters for call to function HalUARTWrite
   \   00004E   7402         MOV       A,#0x2
   \   000050   12....       LCALL     ?XSTACK_DISP101_8
   \   000053   EE           MOV       A,R6
   \   000054   F9           MOV       R1,A
   \   000055   12....       LCALL     `??HalUARTWrite::?relay`; Banked call to: HalUARTWrite
    560          }
   \   000058   7442         MOV       A,#0x42
   \   00005A                REQUIRE ?Subroutine1
   \   00005A                ; // Fall through to label ?Subroutine1
    561          

   \                                 In  segment BANKED_CODE, align 1, keep-with-next
    562          void _UARTRead(uint8 port, uint8 *_buffer, uint16 *length) {
   \                     _UARTRead:
   \   000000                REQUIRE ?V0
   \   000000   74F7         MOV       A,#-0x9
   \   000002   12....       LCALL     ?BANKED_ENTER_XDATA
   \   000005                ; Saved register size: 9
   \   000005                ; Auto size: 0
   \   000005   89..         MOV       ?V0,R1
   \   000007   EC           MOV       A,R4
   \   000008   FE           MOV       R6,A
   \   000009   ED           MOV       A,R5
   \   00000A   FF           MOV       R7,A
    563              for(*length = 0 ; *length < UartDefaultRxLen; (*length)++)
   \   00000B   8C82         MOV       DPL,R4
   \   00000D   F583         MOV       DPH,A
   \   00000F   E4           CLR       A
   \   000010   F0           MOVX      @DPTR,A
   \   000011   A3           INC       DPTR
   \   000012   F0           MOVX      @DPTR,A
    564                  _buffer[*length] = 0x00;
   \                     ??_UARTRead_0:
   \   000013   8C82         MOV       DPL,R4
   \   000015   8D83         MOV       DPH,R5
   \   000017   E0           MOVX      A,@DPTR
   \   000018   F8           MOV       R0,A
   \   000019   A3           INC       DPTR
   \   00001A   E0           MOVX      A,@DPTR
   \   00001B   F9           MOV       R1,A
   \   00001C   EA           MOV       A,R2
   \   00001D   28           ADD       A,R0
   \   00001E   F582         MOV       DPL,A
   \   000020   EB           MOV       A,R3
   \   000021   39           ADDC      A,R1
   \   000022   F583         MOV       DPH,A
   \   000024   E4           CLR       A
   \   000025   F0           MOVX      @DPTR,A
   \   000026   8C82         MOV       DPL,R4
   \   000028   8D83         MOV       DPH,R5
   \   00002A   E0           MOVX      A,@DPTR
   \   00002B   2401         ADD       A,#0x1
   \   00002D   F0           MOVX      @DPTR,A
   \   00002E   A3           INC       DPTR
   \   00002F   E0           MOVX      A,@DPTR
   \   000030   3400         ADDC      A,#0x0
   \   000032   F0           MOVX      @DPTR,A
   \   000033   8C82         MOV       DPL,R4
   \   000035   8D83         MOV       DPH,R5
   \   000037   C3           CLR       C
   \   000038   E0           MOVX      A,@DPTR
   \   000039   9432         SUBB      A,#0x32
   \   00003B   A3           INC       DPTR
   \   00003C   E0           MOVX      A,@DPTR
   \   00003D   9400         SUBB      A,#0x0
   \   00003F   40D2         JC        ??_UARTRead_0
    565              *length = HalUARTRead(port, _buffer, UartDefaultRxLen);
   \   000041                ; Setup parameters for call to function HalUARTRead
   \   000041   7C32         MOV       R4,#0x32
   \   000043   7D00         MOV       R5,#0x0
   \   000045   A9..         MOV       R1,?V0
   \   000047   12....       LCALL     `??HalUARTRead::?relay`; Banked call to: HalUARTRead
   \   00004A   8E82         MOV       DPL,R6
   \   00004C   8F83         MOV       DPH,R7
   \   00004E   EA           MOV       A,R2
   \   00004F   F0           MOVX      @DPTR,A
   \   000050   A3           INC       DPTR
   \   000051   EB           MOV       A,R3
   \   000052   F0           MOVX      @DPTR,A
    566          }
   \   000053                REQUIRE ?Subroutine2
   \   000053                ; // Fall through to label ?Subroutine2

   \                                 In  segment BANKED_CODE, align 1, keep-with-next
   \                     ?Subroutine2:
   \   000000   7F01         MOV       R7,#0x1
   \   000002   02....       LJMP      ?BANKED_LEAVE_XDATA
    567          

   \                                 In  segment BANKED_CODE, align 1, keep-with-next
    568          void _delay_ms(uint16 timeout) {
   \                     _delay_ms:
   \   000000   74F7         MOV       A,#-0x9
   \   000002   12....       LCALL     ?BANKED_ENTER_XDATA
   \   000005                ; Saved register size: 9
   \   000005                ; Auto size: 0
   \   000005   EA           MOV       A,R2
   \   000006   FE           MOV       R6,A
   \   000007   EB           MOV       A,R3
   \   000008   FF           MOV       R7,A
   \   000009   8007         SJMP      ??_delay_ms_0
    569              while (timeout --) {
    570                 _delay_us(1000);
   \                     ??_delay_ms_1:
   \   00000B                ; Setup parameters for call to function _delay_us
   \   00000B   7AE8         MOV       R2,#-0x18
   \   00000D   7B03         MOV       R3,#0x3
   \   00000F   12....       LCALL     `??_delay_us::?relay`; Banked call to: _delay_us
    571              }
   \                     ??_delay_ms_0:
   \   000012   EE           MOV       A,R6
   \   000013   F8           MOV       R0,A
   \   000014   EF           MOV       A,R7
   \   000015   F9           MOV       R1,A
   \   000016   E8           MOV       A,R0
   \   000017   24FF         ADD       A,#-0x1
   \   000019   1E           DEC       R6
   \   00001A   E9           MOV       A,R1
   \   00001B   34FF         ADDC      A,#-0x1
   \   00001D   FF           MOV       R7,A
   \   00001E   E8           MOV       A,R0
   \   00001F   49           ORL       A,R1
   \   000020   70E9         JNZ       ??_delay_ms_1
    572          }
   \   000022   80..         SJMP      ?Subroutine2
    573          

   \                                 In  segment BANKED_CODE, align 1, keep-with-next
    574          void _delay_us(uint16 timeout) {
   \                     _delay_us:
   \   000000                ; Saved register size: 0
   \   000000                ; Auto size: 0
    575              uint8 cnt;
    576              while (timeout --) {
   \                     ??_delay_us_0:
   \   000000   EA           MOV       A,R2
   \   000001   F8           MOV       R0,A
   \   000002   EB           MOV       A,R3
   \   000003   F9           MOV       R1,A
   \   000004   E8           MOV       A,R0
   \   000005   24FF         ADD       A,#-0x1
   \   000007   1A           DEC       R2
   \   000008   E9           MOV       A,R1
   \   000009   34FF         ADDC      A,#-0x1
   \   00000B   FB           MOV       R3,A
   \   00000C   E8           MOV       A,R0
   \   00000D   49           ORL       A,R1
   \   00000E   600E         JZ        ??_delay_us_1
    577                  cnt = 32;
   \   000010   7820         MOV       R0,#0x20
    578                  while (cnt --) {
   \                     ??_delay_us_2:
   \   000012   E8           MOV       A,R0
   \   000013   F9           MOV       R1,A
   \   000014   74FF         MOV       A,#-0x1
   \   000016   29           ADD       A,R1
   \   000017   F8           MOV       R0,A
   \   000018   04           INC       A
   \   000019   60E5         JZ        ??_delay_us_0
    579                      asm("NOP");
   \   00001B   00           NOP
   \   00001C   80F4         SJMP      ??_delay_us_2
    580                  }
    581              }    
    582          }
   \                     ??_delay_us_1:
   \   00001E   02....       LJMP      ?BRET
    583          
    584          // 2 for timeout; 1 for error; 0 for clear; timeout = 0 stands for INF

   \                                 In  segment BANKED_CODE, align 1, keep-with-next
    585          uint8 wait_for(uint8 *str, uint8 *err, uint16 timeout) {
   \                     wait_for:
   \   000000                REQUIRE ?V0
   \   000000                REQUIRE ?V1
   \   000000                REQUIRE ?V2
   \   000000                REQUIRE ?V3
   \   000000                REQUIRE ?V4
   \   000000                REQUIRE ?V5
   \   000000                REQUIRE ?V6
   \   000000                REQUIRE ?V7
   \   000000   74F0         MOV       A,#-0x10
   \   000002   12....       LCALL     ?BANKED_ENTER_XDATA
   \   000005                ; Saved register size: 16
   \   000005                ; Auto size: 52
   \   000005   74CC         MOV       A,#-0x34
   \   000007   12....       LCALL     ?ALLOC_XSTACK8
   \   00000A   8A..         MOV       ?V0,R2
   \   00000C   8B..         MOV       ?V1,R3
   \   00000E   EC           MOV       A,R4
   \   00000F   FE           MOV       R6,A
   \   000010   ED           MOV       A,R5
   \   000011   FF           MOV       R7,A
    586              uint16 wait_len, read_len, err_len;
    587              int16 i, index;
    588              uint8 buffer[UartDefaultRxLen], flag;
    589              wait_len = strlen((char *)str);
   \   000012                ; Setup parameters for call to function strlen
   \   000012   12....       LCALL     `??strlen::?relay`; Banked call to: strlen
   \   000015   8A..         MOV       ?V6,R2
   \   000017   8B..         MOV       ?V7,R3
    590              err_len = strlen((char *)err);
   \   000019                ; Setup parameters for call to function strlen
   \   000019   EE           MOV       A,R6
   \   00001A   FA           MOV       R2,A
   \   00001B   EF           MOV       A,R7
   \   00001C   FB           MOV       R3,A
   \   00001D   12....       LCALL     `??strlen::?relay`; Banked call to: strlen
   \   000020   8A..         MOV       ?V2,R2
   \   000022   8B..         MOV       ?V3,R3
   \   000024   7444         MOV       A,#0x44
   \   000026   12....       LCALL     ?XSTACK_DISP0_8
   \   000029   E0           MOVX      A,@DPTR
   \   00002A   F5..         MOV       ?V4,A
   \   00002C   A3           INC       DPTR
   \   00002D   E0           MOVX      A,@DPTR
   \   00002E   F5..         MOV       ?V5,A
    591              while (1) {
    592                  _UARTRead(HAL_UART_PORT_1, buffer, &read_len);
   \                     ??wait_for_0:
   \   000030                ; Setup parameters for call to function _UARTRead
   \   000030   AC..         MOV       R4,?XSP + 0
   \   000032   AD..         MOV       R5,?XSP + 1
   \   000034   7402         MOV       A,#0x2
   \   000036   12....       LCALL     ?XSTACK_DISP101_8
   \   000039   12....       LCALL     ?Subroutine15 & 0xFFFF
    593                  _delay_ms(1);
    594                  if (read_len > 2) { // at least 0x0D 0x0A
   \                     ??CrossCallReturnLabel_20:
   \   00003C   9403         SUBB      A,#0x3
   \   00003E   A3           INC       DPTR
   \   00003F   E0           MOVX      A,@DPTR
   \   000040   9400         SUBB      A,#0x0
   \   000042   5003         JNC       $+5
   \   000044   02....       LJMP      ??wait_for_1 & 0xFFFF
    595                      index = 0;
   \   000047   7A00         MOV       R2,#0x0
   \   000049   7B00         MOV       R3,#0x0
    596                      for (i = read_len - 1; i >= 0; i --) {
   \   00004B   85..82       MOV       DPL,?XSP + 0
   \   00004E   85..83       MOV       DPH,?XSP + 1
   \   000051   E0           MOVX      A,@DPTR
   \   000052   24FF         ADD       A,#-0x1
   \   000054   F8           MOV       R0,A
   \   000055   A3           INC       DPTR
   \   000056   E0           MOVX      A,@DPTR
   \   000057   8005         SJMP      ??wait_for_2
   \                     ??wait_for_3:
   \   000059   E8           MOV       A,R0
   \   00005A   24FF         ADD       A,#-0x1
   \   00005C   18           DEC       R0
   \   00005D   E9           MOV       A,R1
   \                     ??wait_for_2:
   \   00005E   34FF         ADDC      A,#-0x1
   \   000060   F9           MOV       R1,A
   \   000061   C3           CLR       C
   \   000062   E9           MOV       A,R1
   \   000063   9400         SUBB      A,#0x0
   \   000065   A2D2         MOV       C,0xD0 /* PSW */.2
   \   000067   65D0         XRL       A,PSW
   \   000069   33           RLC       A
   \   00006A   4032         JC        ??wait_for_4
    597                          if (buffer[i] == 0x0A && i != read_len - 1) {
   \   00006C   7402         MOV       A,#0x2
   \   00006E   12....       LCALL     ?XSTACK_DISP0_8
   \   000071   E582         MOV       A,DPL
   \   000073   28           ADD       A,R0
   \   000074   F582         MOV       DPL,A
   \   000076   E583         MOV       A,DPH
   \   000078   39           ADDC      A,R1
   \   000079   F583         MOV       DPH,A
   \   00007B   E0           MOVX      A,@DPTR
   \   00007C   640A         XRL       A,#0xa
   \   00007E   70D9         JNZ       ??wait_for_3
   \   000080   85..82       MOV       DPL,?XSP + 0
   \   000083   85..83       MOV       DPH,?XSP + 1
   \   000086   E0           MOVX      A,@DPTR
   \   000087   24FF         ADD       A,#-0x1
   \   000089   FC           MOV       R4,A
   \   00008A   A3           INC       DPTR
   \   00008B   E0           MOVX      A,@DPTR
   \   00008C   34FF         ADDC      A,#-0x1
   \   00008E   FD           MOV       R5,A
   \   00008F   EC           MOV       A,R4
   \   000090   68           XRL       A,R0
   \   000091   7002         JNZ       ??wait_for_5
   \   000093   ED           MOV       A,R5
   \   000094   69           XRL       A,R1
   \                     ??wait_for_5:
   \   000095   60C2         JZ        ??wait_for_3
    598                              index = i + 1;
   \   000097   E8           MOV       A,R0
   \   000098   2401         ADD       A,#0x1
   \   00009A   FA           MOV       R2,A
   \   00009B   E4           CLR       A
   \   00009C   39           ADDC      A,R1
   \   00009D   FB           MOV       R3,A
    599                              break;
    600                          }
    601                      }
    602                      
    603                      if (err_len == (read_len - index)) {
   \                     ??wait_for_4:
   \   00009E   12....       LCALL     ?Subroutine6 & 0xFFFF
   \                     ??CrossCallReturnLabel_3:
   \   0000A1   65..         XRL       A,?V2
   \   0000A3   7003         JNZ       ??wait_for_6
   \   0000A5   E9           MOV       A,R1
   \   0000A6   65..         XRL       A,?V3
   \                     ??wait_for_6:
   \   0000A8   703B         JNZ       ??wait_for_7
    604                          flag = 1;
    605                          for (i = 0; i < err_len; i ++) {
   \   0000AA   7800         MOV       R0,#0x0
   \   0000AC   7900         MOV       R1,#0x0
   \   0000AE   801F         SJMP      ??wait_for_8
    606                              if (buffer[index + i] != err[i]) {
   \                     ??wait_for_9:
   \   0000B0   EA           MOV       A,R2
   \   0000B1   28           ADD       A,R0
   \   0000B2   FC           MOV       R4,A
   \   0000B3   EB           MOV       A,R3
   \   0000B4   39           ADDC      A,R1
   \   0000B5   FD           MOV       R5,A
   \   0000B6   7402         MOV       A,#0x2
   \   0000B8   12....       LCALL     ?XSTACK_DISP0_8
   \   0000BB   12....       LCALL     ?Subroutine18 & 0xFFFF
    607                                  flag = 0;
    608                                  break;
    609                              }
    610                          }
   \                     ??CrossCallReturnLabel_24:
   \   0000BE   EE           MOV       A,R6
   \   0000BF   28           ADD       A,R0
   \   0000C0   F582         MOV       DPL,A
   \   0000C2   EF           MOV       A,R7
   \   0000C3   39           ADDC      A,R1
   \   0000C4   F583         MOV       DPH,A
   \   0000C6   E0           MOVX      A,@DPTR
   \   0000C7   6C           XRL       A,R4
   \   0000C8   701B         JNZ       ??wait_for_7
   \   0000CA   08           INC       R0
   \   0000CB   E8           MOV       A,R0
   \   0000CC   7001         JNZ       ??wait_for_8
   \   0000CE   09           INC       R1
   \                     ??wait_for_8:
   \   0000CF   C3           CLR       C
   \   0000D0   E8           MOV       A,R0
   \   0000D1   95..         SUBB      A,?V2
   \   0000D3   E9           MOV       A,R1
   \   0000D4   95..         SUBB      A,?V3
   \   0000D6   40D8         JC        ??wait_for_9
    611                          if (flag == 1) {
    612                              debug(err);
   \   0000D8                ; Setup parameters for call to function _UARTSend
   \   0000D8   EE           MOV       A,R6
   \   0000D9   FA           MOV       R2,A
   \   0000DA   EF           MOV       A,R7
   \   0000DB   FB           MOV       R3,A
   \   0000DC   7900         MOV       R1,#0x0
   \   0000DE   12....       LCALL     `??_UARTSend::?relay`; Banked call to: _UARTSend
    613                              return 1;
   \   0000E1   7901         MOV       R1,#0x1
   \   0000E3   8060         SJMP      ??wait_for_10
    614                          }
    615                      }
    616          
    617                      if (wait_len == (read_len - index)) {
   \                     ??wait_for_7:
   \   0000E5   12....       LCALL     ?Subroutine6 & 0xFFFF
   \                     ??CrossCallReturnLabel_4:
   \   0000E8   65..         XRL       A,?V6
   \   0000EA   7003         JNZ       ??wait_for_11
   \   0000EC   E9           MOV       A,R1
   \   0000ED   65..         XRL       A,?V7
   \                     ??wait_for_11:
   \   0000EF   703D         JNZ       ??wait_for_1
    618                          flag = 1;
    619                          for (i = 0; i < wait_len; i ++) {
   \   0000F1   7800         MOV       R0,#0x0
   \   0000F3   7900         MOV       R1,#0x0
   \   0000F5   8021         SJMP      ??wait_for_12
    620                              if (buffer[index + i] != str[i]) {
   \                     ??wait_for_13:
   \   0000F7   EA           MOV       A,R2
   \   0000F8   28           ADD       A,R0
   \   0000F9   FC           MOV       R4,A
   \   0000FA   EB           MOV       A,R3
   \   0000FB   39           ADDC      A,R1
   \   0000FC   FD           MOV       R5,A
   \   0000FD   7402         MOV       A,#0x2
   \   0000FF   12....       LCALL     ?XSTACK_DISP0_8
   \   000102   12....       LCALL     ?Subroutine18 & 0xFFFF
    621                                  flag = 0;
    622                                  break;
    623                              }
    624                          }
   \                     ??CrossCallReturnLabel_25:
   \   000105   E5..         MOV       A,?V0
   \   000107   28           ADD       A,R0
   \   000108   F582         MOV       DPL,A
   \   00010A   E5..         MOV       A,?V1
   \   00010C   39           ADDC      A,R1
   \   00010D   F583         MOV       DPH,A
   \   00010F   E0           MOVX      A,@DPTR
   \   000110   6C           XRL       A,R4
   \   000111   701B         JNZ       ??wait_for_1
   \   000113   08           INC       R0
   \   000114   E8           MOV       A,R0
   \   000115   7001         JNZ       ??wait_for_12
   \   000117   09           INC       R1
   \                     ??wait_for_12:
   \   000118   C3           CLR       C
   \   000119   E8           MOV       A,R0
   \   00011A   95..         SUBB      A,?V6
   \   00011C   E9           MOV       A,R1
   \   00011D   95..         SUBB      A,?V7
   \   00011F   40D6         JC        ??wait_for_13
    625                          if (flag == 1) {
    626                              debug(str);
   \   000121                ; Setup parameters for call to function _UARTSend
   \   000121   AA..         MOV       R2,?V0
   \   000123   AB..         MOV       R3,?V1
   \   000125   7900         MOV       R1,#0x0
   \   000127   12....       LCALL     `??_UARTSend::?relay`; Banked call to: _UARTSend
    627                              return 0;
   \   00012A   7900         MOV       R1,#0x0
   \   00012C   8017         SJMP      ??wait_for_10
    628                          }
    629                      }
    630                  }
    631                  timeout --;
    632                  if (!timeout) return 2;
   \                     ??wait_for_1:
   \   00012E   E5..         MOV       A,?V4
   \   000130   24FF         ADD       A,#-0x1
   \   000132   F5..         MOV       ?V4,A
   \   000134   E5..         MOV       A,?V5
   \   000136   34FF         ADDC      A,#-0x1
   \   000138   F5..         MOV       ?V5,A
   \   00013A   E5..         MOV       A,?V4
   \   00013C   45..         ORL       A,?V5
   \   00013E   6003         JZ        $+5
   \   000140   02....       LJMP      ??wait_for_0 & 0xFFFF
   \   000143   7902         MOV       R1,#0x2
    633              }
   \                     ??wait_for_10:
   \   000145                REQUIRE ?Subroutine0
   \   000145                ; // Fall through to label ?Subroutine0
    634          }

   \                                 In  segment BANKED_CODE, align 1, keep-with-next
   \                     ?Subroutine0:
   \   000000   7434         MOV       A,#0x34
   \   000002                REQUIRE ??Subroutine32_0
   \   000002                ; // Fall through to label ??Subroutine32_0

   \                                 In  segment BANKED_CODE, align 1, keep-with-next
   \                     ?Subroutine18:
   \   000000   E582         MOV       A,DPL
   \   000002   2C           ADD       A,R4
   \   000003   F582         MOV       DPL,A
   \   000005   E583         MOV       A,DPH
   \   000007   3D           ADDC      A,R5
   \   000008   F583         MOV       DPH,A
   \   00000A   E0           MOVX      A,@DPTR
   \   00000B   FC           MOV       R4,A
   \   00000C   22           RET

   \                                 In  segment BANKED_CODE, align 1, keep-with-next
   \                     ?Subroutine6:
   \   000000   85..82       MOV       DPL,?XSP + 0
   \   000003   85..83       MOV       DPH,?XSP + 1
   \   000006   E0           MOVX      A,@DPTR
   \   000007   C3           CLR       C
   \   000008   9A           SUBB      A,R2
   \   000009   F8           MOV       R0,A
   \   00000A   A3           INC       DPTR
   \   00000B   E0           MOVX      A,@DPTR
   \   00000C   9B           SUBB      A,R3
   \   00000D   F9           MOV       R1,A
   \   00000E   E8           MOV       A,R0
   \   00000F   22           RET

   \                                 In  segment BANKED_CODE, align 1, keep-with-next
   \                     ?Subroutine15:
   \   000000   7901         MOV       R1,#0x1
   \   000002   12....       LCALL     `??_UARTRead::?relay`; Banked call to: _UARTRead
   \   000005                ; Setup parameters for call to function _delay_ms
   \   000005                ; Setup parameters for call to function _delay_ms
   \   000005   7A01         MOV       R2,#0x1
   \   000007   7B00         MOV       R3,#0x0
   \   000009   12....       LCALL     `??_delay_ms::?relay`; Banked call to: _delay_ms
   \   00000C   85..82       MOV       DPL,?XSP + 0
   \   00000F   85..83       MOV       DPH,?XSP + 1
   \   000012   C3           CLR       C
   \   000013   E0           MOVX      A,@DPTR
   \   000014   22           RET
    635          

   \                                 In  segment BANKED_CODE, align 1, keep-with-next
    636          void exit_send() {
   \                     exit_send:
   \   000000   74F7         MOV       A,#-0x9
   \   000002   12....       LCALL     ?BANKED_ENTER_XDATA
   \   000005                ; Saved register size: 9
   \   000005                ; Auto size: 0
    637              print("+++");
   \   000005                ; Setup parameters for call to function _UARTSend
   \   000005   12....       LCALL     ?Subroutine10 & 0xFFFF
    638              _delay_ms(10);
    639              print("+++");
   \                     ??CrossCallReturnLabel_78:
   \   000008                ; Setup parameters for call to function _UARTSend
   \   000008   12....       LCALL     ?Subroutine10 & 0xFFFF
    640              _delay_ms(10);
    641              print("\r\n");
   \                     ??CrossCallReturnLabel_79:
   \   00000B                ; Setup parameters for call to function _UARTSend
   \   00000B   7A..         MOV       R2,#`?<Constant "\\r\\n">` & 0xff
   \   00000D   7B..         MOV       R3,#(`?<Constant "\\r\\n">` >> 8) & 0xff
   \   00000F   12....       LCALL     ??Subroutine33_0 & 0xFFFF
    642              _delay_ms(10);
    643          }
   \                     ??CrossCallReturnLabel_80:
   \   000012   02....       LJMP      ?Subroutine2 & 0xFFFF

   \                                 In  segment BANKED_CODE, align 1, keep-with-next
   \                     ?Subroutine10:
   \   000000   7A..         MOV       R2,#`?<Constant "+++">` & 0xff
   \   000002   7B..         MOV       R3,#(`?<Constant "+++">` >> 8) & 0xff
   \   000004                REQUIRE ??Subroutine33_0
   \   000004                ; // Fall through to label ??Subroutine33_0

   \                                 In  segment BANKED_CODE, align 1, keep-with-next
   \                     ??Subroutine33_0:
   \   000000   7901         MOV       R1,#0x1
   \   000002   12....       LCALL     `??_UARTSend::?relay`; Banked call to: _UARTSend
   \   000005                ; Setup parameters for call to function _delay_ms
   \   000005                ; Setup parameters for call to function _delay_ms
   \   000005                ; Setup parameters for call to function _delay_ms
   \   000005   7A0A         MOV       R2,#0xa
   \   000007   7B00         MOV       R3,#0x0
   \   000009   12....       LCALL     `??_delay_ms::?relay`; Banked call to: _delay_ms
   \   00000C   22           RET
    644          
    645          
    646          // 当前逻辑下每次连接只能发送一条消息，之后就要断开连接

   \                                 In  segment BANKED_CODE, align 1, keep-with-next
    647          uint16 WiFiRecv(uint8 *buff) {
   \                     WiFiRecv:
   \   000000                REQUIRE ?V0
   \   000000                REQUIRE ?V1
   \   000000                REQUIRE ?V2
   \   000000                REQUIRE ?V4
   \   000000                REQUIRE ?V5
   \   000000                REQUIRE ?V6
   \   000000                REQUIRE ?V7
   \   000000   74F0         MOV       A,#-0x10
   \   000002   12....       LCALL     ?BANKED_ENTER_XDATA
   \   000005                ; Saved register size: 16
   \   000005                ; Auto size: 52
   \   000005   74CC         MOV       A,#-0x34
   \   000007   12....       LCALL     ?ALLOC_XSTACK8
   \   00000A   8A..         MOV       ?V6,R2
   \   00000C   8B..         MOV       ?V7,R3
    648              uint16 read_len, l_index, r_index, comma;
    649              uint8 buffer[UartDefaultRxLen];
    650              while (1) {
    651                  _UARTRead(HAL_UART_PORT_1, buffer, &read_len);
   \                     ??WiFiRecv_0:
   \   00000E                ; Setup parameters for call to function _UARTRead
   \   00000E   AC..         MOV       R4,?XSP + 0
   \   000010   AD..         MOV       R5,?XSP + 1
   \   000012   7402         MOV       A,#0x2
   \   000014   12....       LCALL     ?XSTACK_DISP101_8
   \   000017   12....       LCALL     ?Subroutine15 & 0xFFFF
    652                  _delay_ms(1);
    653                  if (read_len > 34) { // at least "0,CONNECT\r\n\r\n+IPD,0,2:\r\n0,CLOSED\r\n"
   \                     ??CrossCallReturnLabel_21:
   \   00001A   9423         SUBB      A,#0x23
   \   00001C   A3           INC       DPTR
   \   00001D   E0           MOVX      A,@DPTR
   \   00001E   9400         SUBB      A,#0x0
   \   000020   40EC         JC        ??WiFiRecv_0
    654                      l_index = 0;
   \   000022   75..00       MOV       ?V4,#0x0
   \   000025   75..00       MOV       ?V5,#0x0
   \                     ??WiFiRecv_1:
   \   000028   7402         MOV       A,#0x2
   \   00002A   12....       LCALL     ?XSTACK_DISP0_8
   \   00002D   12....       LCALL     ?Subroutine17 & 0xFFFF
   \                     ??CrossCallReturnLabel_23:
   \   000030   E0           MOVX      A,@DPTR
   \   000031   643A         XRL       A,#0x3a
   \   000033   6013         JZ        ??WiFiRecv_2
    655                      while (l_index < read_len && buffer[l_index] != ':') {
    656                          l_index ++;
   \   000035   05..         INC       ?V4
   \   000037   E5..         MOV       A,?V4
   \   000039   7002         JNZ       ??WiFiRecv_3
   \   00003B   05..         INC       ?V5
    657                      }
   \                     ??WiFiRecv_3:
   \   00003D   12....       LCALL     ?Subroutine5 & 0xFFFF
   \                     ??CrossCallReturnLabel_0:
   \   000040   E5..         MOV       A,?V4
   \   000042   98           SUBB      A,R0
   \   000043   E5..         MOV       A,?V5
   \   000045   99           SUBB      A,R1
   \   000046   40E0         JC        ??WiFiRecv_1
    658                      if (l_index == read_len) continue;
   \                     ??WiFiRecv_2:
   \   000048   85..82       MOV       DPL,?XSP + 0
   \   00004B   85..83       MOV       DPH,?XSP + 1
   \   00004E   E0           MOVX      A,@DPTR
   \   00004F   65..         XRL       A,?V4
   \   000051   7004         JNZ       ??WiFiRecv_4
   \   000053   A3           INC       DPTR
   \   000054   E0           MOVX      A,@DPTR
   \   000055   65..         XRL       A,?V5
   \                     ??WiFiRecv_4:
   \   000057   60B5         JZ        ??WiFiRecv_0
    659                      r_index = ++ l_index;
   \   000059   05..         INC       ?V4
   \   00005B   E5..         MOV       A,?V4
   \   00005D   7002         JNZ       ??WiFiRecv_5
   \   00005F   05..         INC       ?V5
   \                     ??WiFiRecv_5:
   \   000061   FE           MOV       R6,A
   \   000062   AF..         MOV       R7,?V5
   \   000064   8012         SJMP      ??WiFiRecv_6
    660                      while (r_index < read_len && buffer[r_index] != '\n') {
   \                     ??WiFiRecv_7:
   \   000066   7402         MOV       A,#0x2
   \   000068   12....       LCALL     ?XSTACK_DISP0_8
   \   00006B   12....       LCALL     ?Subroutine21 & 0xFFFF
   \                     ??CrossCallReturnLabel_32:
   \   00006E   E0           MOVX      A,@DPTR
   \   00006F   640A         XRL       A,#0xa
   \   000071   6020         JZ        ??WiFiRecv_8
    661                          r_index ++;
   \   000073   0E           INC       R6
   \   000074   EE           MOV       A,R6
   \   000075   7001         JNZ       ??WiFiRecv_6
   \   000077   0F           INC       R7
    662                      }
   \                     ??WiFiRecv_6:
   \   000078   12....       LCALL     ?Subroutine5 & 0xFFFF
   \                     ??CrossCallReturnLabel_1:
   \   00007B   EE           MOV       A,R6
   \   00007C   98           SUBB      A,R0
   \   00007D   EF           MOV       A,R7
   \   00007E   99           SUBB      A,R1
   \   00007F   40E5         JC        ??WiFiRecv_7
    663                      if (r_index == read_len) continue;
   \   000081   85..82       MOV       DPL,?XSP + 0
   \   000084   85..83       MOV       DPH,?XSP + 1
   \   000087   E0           MOVX      A,@DPTR
   \   000088   6E           XRL       A,R6
   \   000089   7003         JNZ       ??WiFiRecv_9
   \   00008B   A3           INC       DPTR
   \   00008C   E0           MOVX      A,@DPTR
   \   00008D   6F           XRL       A,R7
   \                     ??WiFiRecv_9:
   \   00008E   7003         JNZ       $+5
   \   000090   02....       LJMP      ??WiFiRecv_0 & 0xFFFF
    664                      buffer[++ r_index] = '\0';
   \                     ??WiFiRecv_8:
   \   000093   0E           INC       R6
   \   000094   EE           MOV       A,R6
   \   000095   7001         JNZ       ??WiFiRecv_10
   \   000097   0F           INC       R7
   \                     ??WiFiRecv_10:
   \   000098   7402         MOV       A,#0x2
   \   00009A   12....       LCALL     ?XSTACK_DISP0_8
   \   00009D   12....       LCALL     ?Subroutine21 & 0xFFFF
   \                     ??CrossCallReturnLabel_33:
   \   0000A0   E4           CLR       A
   \   0000A1   F0           MOVX      @DPTR,A
    665                      comma = r_index;
   \   0000A2   EE           MOV       A,R6
   \   0000A3   FA           MOV       R2,A
   \   0000A4   EF           MOV       A,R7
   \   0000A5   FB           MOV       R3,A
   \   0000A6   8005         SJMP      ??WiFiRecv_11
    666                      while (comma < read_len && buffer[comma] != ',') comma ++;
   \                     ??WiFiRecv_12:
   \   0000A8   0A           INC       R2
   \   0000A9   EA           MOV       A,R2
   \   0000AA   7001         JNZ       ??WiFiRecv_11
   \   0000AC   0B           INC       R3
   \                     ??WiFiRecv_11:
   \   0000AD   12....       LCALL     ?Subroutine5 & 0xFFFF
   \                     ??CrossCallReturnLabel_2:
   \   0000B0   EA           MOV       A,R2
   \   0000B1   98           SUBB      A,R0
   \   0000B2   EB           MOV       A,R3
   \   0000B3   99           SUBB      A,R1
   \   0000B4   5014         JNC       ??WiFiRecv_13
   \   0000B6   7402         MOV       A,#0x2
   \   0000B8   12....       LCALL     ?XSTACK_DISP0_8
   \   0000BB   E582         MOV       A,DPL
   \   0000BD   2A           ADD       A,R2
   \   0000BE   F582         MOV       DPL,A
   \   0000C0   E583         MOV       A,DPH
   \   0000C2   3B           ADDC      A,R3
   \   0000C3   F583         MOV       DPH,A
   \   0000C5   E0           MOVX      A,@DPTR
   \   0000C6   642C         XRL       A,#0x2c
   \   0000C8   70DE         JNZ       ??WiFiRecv_12
    667                      if (osal_memcmp(buffer + comma, ",CLOSED\r\n", 9)) {
   \                     ??WiFiRecv_13:
   \   0000CA                ; Setup parameters for call to function osal_memcmp
   \   0000CA   75....       MOV       ?V0,#`?<Constant ",CLOSED\\r\\n">` & 0xff
   \   0000CD   75....       MOV       ?V1,#(`?<Constant ",CLOSED\\r\\n">` >> 8) & 0xff
   \   0000D0   75..00       MOV       ?V2,#0x0
   \   0000D3   78..         MOV       R0,#?V0
   \   0000D5   12....       LCALL     ?PUSH_XSTACK_I_THREE
   \   0000D8   7C09         MOV       R4,#0x9
   \   0000DA   7D00         MOV       R5,#0x0
   \   0000DC   7405         MOV       A,#0x5
   \   0000DE   12....       LCALL     ?XSTACK_DISP0_8
   \   0000E1   E582         MOV       A,DPL
   \   0000E3   2A           ADD       A,R2
   \   0000E4   F5..         MOV       ?V0,A
   \   0000E6   E583         MOV       A,DPH
   \   0000E8   3B           ADDC      A,R3
   \   0000E9   A9..         MOV       R1,?V0
   \   0000EB   FA           MOV       R2,A
   \   0000EC   12....       LCALL     ??Subroutine25_0 & 0xFFFF
   \                     ??CrossCallReturnLabel_50:
   \   0000EF   12....       LCALL     ?DEALLOC_XSTACK8
   \   0000F2   E9           MOV       A,R1
   \   0000F3   7003         JNZ       $+5
   \   0000F5   02....       LJMP      ??WiFiRecv_0 & 0xFFFF
    668                          debug(buffer + l_index);
   \   0000F8   7402         MOV       A,#0x2
   \   0000FA   12....       LCALL     ?XSTACK_DISP0_8
   \   0000FD   E582         MOV       A,DPL
   \   0000FF   25..         ADD       A,?V4
   \   000101   F5..         MOV       ?V0,A
   \   000103   E583         MOV       A,DPH
   \   000105   35..         ADDC      A,?V5
   \   000107   F5..         MOV       ?V1,A
   \   000109                ; Setup parameters for call to function _UARTSend
   \   000109   AA..         MOV       R2,?V0
   \   00010B   FB           MOV       R3,A
   \   00010C   7900         MOV       R1,#0x0
   \   00010E   12....       LCALL     `??_UARTSend::?relay`; Banked call to: _UARTSend
    669                          strcpy((char *)buff, (char *)(buffer + l_index));
   \   000111                ; Setup parameters for call to function strcpy
   \   000111   AC..         MOV       R4,?V0
   \   000113   AD..         MOV       R5,?V1
   \   000115   AA..         MOV       R2,?V6
   \   000117   AB..         MOV       R3,?V7
   \   000119   12....       LCALL     `??strcpy::?relay`; Banked call to: strcpy
    670                          return (r_index - l_index);
   \   00011C   EE           MOV       A,R6
   \   00011D   C3           CLR       C
   \   00011E   95..         SUBB      A,?V4
   \   000120   FA           MOV       R2,A
   \   000121   EF           MOV       A,R7
   \   000122   95..         SUBB      A,?V5
   \   000124   FB           MOV       R3,A
   \   000125   02....       LJMP      ?Subroutine0 & 0xFFFF
    671                      }
    672                  }
    673              }
    674          }

   \                                 In  segment BANKED_CODE, align 1, keep-with-next
   \                     ?Subroutine21:
   \   000000   E582         MOV       A,DPL
   \   000002   2E           ADD       A,R6
   \   000003   F582         MOV       DPL,A
   \   000005   E583         MOV       A,DPH
   \   000007   3F           ADDC      A,R7
   \   000008   F583         MOV       DPH,A
   \   00000A   22           RET

   \                                 In  segment BANKED_CODE, align 1, keep-with-next
   \                     ?Subroutine5:
   \   000000   85..82       MOV       DPL,?XSP + 0
   \   000003   85..83       MOV       DPH,?XSP + 1
   \   000006   E0           MOVX      A,@DPTR
   \   000007   F8           MOV       R0,A
   \   000008   A3           INC       DPTR
   \   000009   E0           MOVX      A,@DPTR
   \   00000A   F9           MOV       R1,A
   \   00000B   C3           CLR       C
   \   00000C   22           RET

   \                                 In  segment BANK_RELAYS, align 1
   \                     `??SampleApp_Init::?relay`:
   \   000000   12....       LCALL   ?BDISPATCH
   \   000003   ......       DC24    SampleApp_Init

   \                                 In  segment BANK_RELAYS, align 1
   \                     `??SampleApp_ProcessEvent::?relay`:
   \   000000   12....       LCALL   ?BDISPATCH
   \   000003   ......       DC24    SampleApp_ProcessEvent

   \                                 In  segment BANK_RELAYS, align 1
   \                     `??SampleApp_HandleKeys::?relay`:
   \   000000   12....       LCALL   ?BDISPATCH
   \   000003   ......       DC24    SampleApp_HandleKeys

   \                                 In  segment BANK_RELAYS, align 1
   \                     `??SampleApp_MessageMSGCB::?relay`:
   \   000000   12....       LCALL   ?BDISPATCH
   \   000003   ......       DC24    SampleApp_MessageMSGCB

   \                                 In  segment BANK_RELAYS, align 1
   \                     `??SampleApp_SendPeriodicMessage::?relay`:
   \   000000   12....       LCALL   ?BDISPATCH
   \   000003   ......       DC24    SampleApp_SendPeriodicMessage

   \                                 In  segment BANK_RELAYS, align 1
   \                     `??SampleApp_SendFlashMessage::?relay`:
   \   000000   12....       LCALL   ?BDISPATCH
   \   000003   ......       DC24    SampleApp_SendFlashMessage

   \                                 In  segment BANK_RELAYS, align 1
   \                     `??_UARTSend::?relay`:
   \   000000   12....       LCALL   ?BDISPATCH
   \   000003   ......       DC24    _UARTSend

   \                                 In  segment BANK_RELAYS, align 1
   \                     `??_UARTRead::?relay`:
   \   000000   12....       LCALL   ?BDISPATCH
   \   000003   ......       DC24    _UARTRead

   \                                 In  segment BANK_RELAYS, align 1
   \                     `??_delay_ms::?relay`:
   \   000000   12....       LCALL   ?BDISPATCH
   \   000003   ......       DC24    _delay_ms

   \                                 In  segment BANK_RELAYS, align 1
   \                     `??_delay_us::?relay`:
   \   000000   12....       LCALL   ?BDISPATCH
   \   000003   ......       DC24    _delay_us

   \                                 In  segment BANK_RELAYS, align 1
   \                     `??wait_for::?relay`:
   \   000000   12....       LCALL   ?BDISPATCH
   \   000003   ......       DC24    wait_for

   \                                 In  segment BANK_RELAYS, align 1
   \                     `??exit_send::?relay`:
   \   000000   12....       LCALL   ?BDISPATCH
   \   000003   ......       DC24    exit_send

   \                                 In  segment BANK_RELAYS, align 1
   \                     `??WiFiRecv::?relay`:
   \   000000   12....       LCALL   ?BDISPATCH
   \   000003   ......       DC24    WiFiRecv

   \                                 In  segment XDATA_ROM_C, align 1
   \                     `?<Constant "Group 1">`:
   \   000000   47726F75     DB "Group 1"
   \            70203100

   \                                 In  segment XDATA_ROM_C, align 1
   \                     `?<Constant "UART_1 INITIALIZED!\\r\\n">`:
   \   000000   55415254     DB "UART_1 INITIALIZED!\015\012"
   \            5F312049
   \            4E495449
   \            414C495A
   \            4544210D
   \            0A00    

   \                                 In  segment XDATA_ROM_C, align 1
   \                     `?<Constant "Enter AP Mode\\r\\n">`:
   \   000000   456E7465     DB "Enter AP Mode\015\012"
   \            72204150
   \            204D6F64
   \            650D0A00

   \                                 In  segment XDATA_ROM_C, align 1
   \                     `?<Constant "Enter STA Mode\\r\\n">`:
   \   000000   456E7465     DB "Enter STA Mode\015\012"
   \            72205354
   \            41204D6F
   \            64650D0A
   \            00      

   \                                 In  segment XDATA_ROM_C, align 1
   \                     `?<Constant "AT+CWMODE=2\\r\\n">`:
   \   000000   41542B43     DB "AT+CWMODE=2\015\012"
   \            574D4F44
   \            453D320D
   \            0A00    

   \                                 In  segment XDATA_ROM_C, align 1
   \                     `?<Constant "OK\\r\\n">`:
   \   000000   4F4B0D0A     DB "OK\015\012"
   \            00      

   \                                 In  segment XDATA_ROM_C, align 1
   \                     `?<Constant "ERROR\\r\\n">`:
   \   000000   4552524F     DB "ERROR\015\012"
   \            520D0A00

   \                                 In  segment XDATA_ROM_C, align 1
   \                     `?<Constant "AT+CWSAP=\\"ESP8266\\",\\"1...">`:
   \   000000   41542B43     DB "AT+CWSAP=\"ESP8266\",\"123456\",11,0\015\012"
   \            57534150
   \            3D224553
   \            50383236
   \            36222C22
   \            31323334
   \            3536222C
   \            31312C30
   \            0D0A00  

   \                                 In  segment XDATA_ROM_C, align 1
   \                     `?<Constant "AT+CIPMODE=0\\r\\n">`:
   \   000000   41542B43     DB "AT+CIPMODE=0\015\012"
   \            49504D4F
   \            44453D30
   \            0D0A00  

   \                                 In  segment XDATA_ROM_C, align 1
   \                     `?<Constant "AT+CIPMUX=1\\r\\n">`:
   \   000000   41542B43     DB "AT+CIPMUX=1\015\012"
   \            49504D55
   \            583D310D
   \            0A00    

   \                                 In  segment XDATA_ROM_C, align 1
   \                     `?<Constant "AT+CIPSERVER=1,8266\\r\\n">`:
   \   000000   41542B43     DB "AT+CIPSERVER=1,8266\015\012"
   \            49505345
   \            52564552
   \            3D312C38
   \            3236360D
   \            0A00    

   \                                 In  segment XDATA_ROM_C, align 1
   \                     `?<Constant "IP">`:
   \   000000   495000       DB "IP"

   \                                 In  segment XDATA_ROM_C, align 1
   \                     `?<Constant "PORT">`:
   \   000000   504F5254     DB "PORT"
   \            00      

   \                                 In  segment XDATA_ROM_C, align 1
   \                     `?<Constant "SSID">`:
   \   000000   53534944     DB "SSID"
   \            00      

   \                                 In  segment XDATA_ROM_C, align 1
   \                     `?<Constant "PSWD">`:
   \   000000   50535744     DB "PSWD"
   \            00      

   \                                 In  segment XDATA_ROM_C, align 1
   \                     `?<Constant "AT+RST\\r\\n">`:
   \   000000   41542B52     DB "AT+RST\015\012"
   \            53540D0A
   \            00      

   \                                 In  segment XDATA_ROM_C, align 1
   \                     `?<Constant "ready\\r\\n">`:
   \   000000   72656164     DB "ready\015\012"
   \            790D0A00

   \                                 In  segment XDATA_ROM_C, align 1
   \                     `?<Constant "Read Flash Failed\\r\\n">`:
   \   000000   52656164     DB "Read Flash Failed\015\012"
   \            20466C61
   \            73682046
   \            61696C65
   \            640D0A00

   \                                 In  segment XDATA_ROM_C, align 1
   \                     `?<Constant "AT+CWMODE=1\\r\\n">`:
   \   000000   41542B43     DB "AT+CWMODE=1\015\012"
   \            574D4F44
   \            453D310D
   \            0A00    

   \                                 In  segment XDATA_ROM_C, align 1
   \                     `?<Constant "AT+CWJAP=\\"%s\\",\\"%s\\"\\r\\n">`:
   \   000000   41542B43     DB "AT+CWJAP=\"%s\",\"%s\"\015\012"
   \            574A4150
   \            3D222573
   \            222C2225
   \            73220D0A
   \            00      

   \                                 In  segment XDATA_ROM_C, align 1
   \                     `?<Constant "FAIL\\r\\n">`:
   \   000000   4641494C     DB "FAIL\015\012"
   \            0D0A00  

   \                                 In  segment XDATA_ROM_C, align 1
   \                     `?<Constant "AT+CIPMUX=0\\r\\n">`:
   \   000000   41542B43     DB "AT+CIPMUX=0\015\012"
   \            49504D55
   \            583D300D
   \            0A00    

   \                                 In  segment XDATA_ROM_C, align 1
   \                     `?<Constant "AT+CIPMODE=1\\r\\n">`:
   \   000000   41542B43     DB "AT+CIPMODE=1\015\012"
   \            49504D4F
   \            44453D31
   \            0D0A00  

   \                                 In  segment XDATA_ROM_C, align 1
   \                     `?<Constant "AT+CIPSTART=\\"TCP\\",\\"%s...">`:
   \   000000   41542B43     DB "AT+CIPSTART=\"TCP\",\"%s\",%s\015\012"
   \            49505354
   \            4152543D
   \            22544350
   \            222C2225
   \            73222C25
   \            730D0A00

   \                                 In  segment XDATA_ROM_C, align 1
   \                     `?<Constant "CLOSED\\r\\n">`:
   \   000000   434C4F53     DB "CLOSED\015\012"
   \            45440D0A
   \            00      

   \                                 In  segment XDATA_ROM_C, align 1
   \                     `?<Constant "AT+CIPSEND\\r\\n">`:
   \   000000   41542B43     DB "AT+CIPSEND\015\012"
   \            49505345
   \            4E440D0A
   \            00      

   \                                 In  segment XDATA_ROM_C, align 1
   \                     `?<Constant ">">`:
   \   000000   3E00         DB ">"

   \                                 In  segment XDATA_ROM_C, align 1
   \                     `?<Constant "heart beat\\r\\n">`:
   \   000000   68656172     DB "heart beat\015\012"
   \            74206265
   \            61740D0A
   \            00      

   \                                 In  segment XDATA_ROM_C, align 1
   \                     `?<Constant "received\\r\\n">`:
   \   000000   72656365     DB "received\015\012"
   \            69766564
   \            0D0A00  

   \                                 In  segment XDATA_ROM_C, align 1
   \                     `?<Constant "WIFI RESET\\r\\n">`:
   \   000000   57494649     DB "WIFI RESET\015\012"
   \            20524553
   \            45540D0A
   \            00      

   \                                 In  segment XDATA_ROM_C, align 1
   \                     `?<Constant "I get data\\n">`:
   \   000000   49206765     DB "I get data\012"
   \            74206461
   \            74610A00

   \                                 In  segment XDATA_ROM_C, align 1
   \                     `?<Constant "\\n">`:
   \   000000   0A00         DB "\012"

   \                                 In  segment XDATA_ROM_C, align 1
   \                     `?<Constant {48, 49, 50, 51, 52, 53, 54, 55, 56`:
   \   000000   30           DB 48
   \   000001   31           DB 49
   \   000002   32           DB 50
   \   000003   33           DB 51
   \   000004   34           DB 52
   \   000005   35           DB 53
   \   000006   36           DB 54
   \   000007   37           DB 55
   \   000008   38           DB 56
   \   000009   39           DB 57

   \                                 In  segment XDATA_ROM_C, align 1
   \                     `?<Constant "+++">`:
   \   000000   2B2B2B00     DB "+++"

   \                                 In  segment XDATA_ROM_C, align 1
   \                     `?<Constant "\\r\\n">`:
   \   000000   0D0A00       DB "\015\012"

   \                                 In  segment XDATA_ROM_C, align 1
   \                     `?<Constant ",CLOSED\\r\\n">`:
   \   000000   2C434C4F     DB ",CLOSED\015\012"
   \            5345440D
   \            0A00    

   Maximum stack usage in bytes:

   ISTACK XSTACK Function
   ------ ------ --------
      0      0   SampleApp_HandleKeys
      0     14   SampleApp_Init
        0     11   -> MT_UartInit
        0     11   -> MT_UartRegisterTaskID
        0     11   -> RegisterForKeys
        0     11   -> afRegister
        0     11   -> aps_AddGroup
        0     14   -> osal_memcpy
        0     11   -> osal_set_event
      0    169   SampleApp_MessageMSGCB
        0     10   -> HalLedBlink
        0     10   -> HalUARTWrite
      0    163   SampleApp_ProcessEvent
        0    159   -> HalUARTOpen
        0    159   -> SampleApp_MessageMSGCB
        0    159   -> SampleApp_SendPeriodicMessage
        0    159   -> WiFiRecv
        0    159   -> _UARTSend
        0    163   -> _UARTSend
        0    159   -> _delay_ms
        0    159   -> exit_send
        0    162   -> osal_memcmp
        0    159   -> osal_msg_deallocate
        0    159   -> osal_msg_receive
        0    161   -> osal_nv_item_init
        0    163   -> osal_nv_read
        0    163   -> osal_nv_write
        0    159   -> osal_rand
        0    159   -> osal_set_event
        0    159   -> osal_start_timerEx
        0    161   -> wait_for
      1     22   SampleApp_SendFlashMessage
        0     22   -> AF_DataRequest
      0    188   SampleApp_SendPeriodicMessage
        0     29   -> AF_DataRequest
      0    230   WiFiRecv
        0     68   -> _UARTRead
        0     68   -> _UARTSend
        0     68   -> _delay_ms
        0     71   -> osal_memcmp
        0     68   -> strcpy
      0     77   _UARTRead
        0      9   -> HalUARTRead
      1    241   _UARTSend
        0     76   -> HalUARTWrite
        0     78   -> vsprintf
      0    168   _delay_ms
        0      9   -> _delay_us
      0      9   _delay_us
      0    168   exit_send
        0      9   -> _UARTSend
        0      9   -> _delay_ms
      0    229   wait_for
        0     68   -> _UARTRead
        0     68   -> _UARTSend
        0     68   -> _delay_ms
        0     68   -> strlen


   Segment part sizes:

   Bytes  Function/Label
   -----  --------------
       4  ?<Constant "+++">
      10  ?<Constant ",CLOSED\r\n">
       2  ?<Constant ">">
      15  ?<Constant "AT+CIPMODE=0\r\n">
      15  ?<Constant "AT+CIPMODE=1\r\n">
      14  ?<Constant "AT+CIPMUX=0\r\n">
      14  ?<Constant "AT+CIPMUX=1\r\n">
      13  ?<Constant "AT+CIPSEND\r\n">
      22  ?<Constant "AT+CIPSERVER=1,8266\r\n">
      28  ?<Constant "AT+CIPSTART=\"TCP\",\"%s...">
      21  ?<Constant "AT+CWJAP=\"%s\",\"%s\"\r\n">
      14  ?<Constant "AT+CWMODE=1\r\n">
      14  ?<Constant "AT+CWMODE=2\r\n">
      35  ?<Constant "AT+CWSAP=\"ESP8266\",\"1...">
       9  ?<Constant "AT+RST\r\n">
       9  ?<Constant "CLOSED\r\n">
       8  ?<Constant "ERROR\r\n">
      16  ?<Constant "Enter AP Mode\r\n">
      17  ?<Constant "Enter STA Mode\r\n">
       7  ?<Constant "FAIL\r\n">
       8  ?<Constant "Group 1">
      12  ?<Constant "I get data\n">
       3  ?<Constant "IP">
       5  ?<Constant "OK\r\n">
       5  ?<Constant "PORT">
       5  ?<Constant "PSWD">
      20  ?<Constant "Read Flash Failed\r\n">
       5  ?<Constant "SSID">
      22  ?<Constant "UART_1 INITIALIZED!\r\n">
      13  ?<Constant "WIFI RESET\r\n">
       2  ?<Constant "\n">
       3  ?<Constant "\r\n">
      13  ?<Constant "heart beat\r\n">
       8  ?<Constant "ready\r\n">
      11  ?<Constant "received\r\n">
      10  ?<Constant {48, 49, 50, 51, 52, 53, 54, 55, 56
       6  ??Subroutine23_0
       6  ??Subroutine24_0
       8  ??Subroutine25_0
       4  ??Subroutine26_0
       6  ??Subroutine27_0
      11  ??Subroutine28_0
      11  ??Subroutine29_0
       5  ??Subroutine30_0
       5  ??Subroutine31_0
       8  ??Subroutine32_0
      13  ??Subroutine33_0
       2  ?Subroutine0
       3  ?Subroutine1
       4  ?Subroutine10
      11  ?Subroutine11
       4  ?Subroutine12
      13  ?Subroutine13
       6  ?Subroutine14
      21  ?Subroutine15
       2  ?Subroutine16
      13  ?Subroutine17
      13  ?Subroutine18
       8  ?Subroutine19
       5  ?Subroutine2
      10  ?Subroutine20
      11  ?Subroutine21
      19  ?Subroutine22
       2  ?Subroutine3
       2  ?Subroutine4
      13  ?Subroutine5
      16  ?Subroutine6
       2  ?Subroutine7
      11  ?Subroutine8
       4  ?Subroutine9
       1  SampleAppFlashCounter
       1  SampleAppPeriodicCounter
       4  SampleApp_ClusterList
      12  SampleApp_Flash_DstAddr
      18  SampleApp_Group
       3  SampleApp_HandleKeys
       6  SampleApp_HandleKeys::?relay
     157  SampleApp_Init
       6  SampleApp_Init::?relay
     140  SampleApp_MessageMSGCB
       6  SampleApp_MessageMSGCB::?relay
       1  SampleApp_NwkState
      12  SampleApp_Periodic_DstAddr
    1520  SampleApp_ProcessEvent
       6  SampleApp_ProcessEvent::?relay
     115  SampleApp_SendFlashMessage
       6  SampleApp_SendFlashMessage::?relay
      97  SampleApp_SendPeriodicMessage
       6  SampleApp_SendPeriodicMessage::?relay
      12  SampleApp_SimpleDesc
       1  SampleApp_TaskID
       1  SampleApp_TransID
       6  SampleApp_epDesc
     296  WiFiRecv
       6  WiFiRecv::?relay
       1  _A_P0
      83  _UARTRead
       6  _UARTRead::?relay
      90  _UARTSend
       6  _UARTSend::?relay
      36  _delay_ms
       6  _delay_ms::?relay
      33  _delay_us
       6  _delay_us::?relay
      21  exit_send
       6  exit_send::?relay
     325  wait_for
       6  wait_for::?relay

 
 3 194 bytes in segment BANKED_CODE
    78 bytes in segment BANK_RELAYS
     1 byte  in segment SFR_AN
   448 bytes in segment XDATA_ROM_C
    53 bytes in segment XDATA_Z
 
    78 bytes of CODE     memory
   448 bytes of CONST    memory
     0 bytes of DATA     memory (+ 1 byte shared)
 3 194 bytes of HUGECODE memory
    53 bytes of XDATA    memory

Errors: none
Warnings: none
