///////////////////////////////////////////////////////////////////////////////
//
// IAR C/C++ Compiler V10.20.1.5333 for 8051              26/Jul/2019  15:41:32
// Copyright 2004-2018 IAR Systems AB.
// PC-locked license - IAR Embedded Workbench for 8051
//
//    Core               =  plain
//    Code model         =  banked
//    Data model         =  large
//    Calling convention =  xdata reentrant
//    Constant location  =  data_rom
//    Dptr setup         =  1,16
//                          
//    Source file        =  
//        F:\IAR\8051_work\IOTSystem\GatewayIntegrated\Projects\zstack\Samples\SampleApp\Source\SampleApp.c
//    Command line       =  
//        -f C:\Users\MAC\AppData\Local\Temp\EWC963.tmp
//        (F:\IAR\8051_work\IOTSystem\GatewayIntegrated\Projects\zstack\Samples\SampleApp\Source\SampleApp.c
//        -D ZTOOL_P1 -D xMT_TASK -D xMT_SYS_FUNC -D xMT_ZDO_FUNC -D
//        HAL_UART_DMA=1 -D HAL_UART_ISR=2 -D HAL_LCD=FALSE -lC
//        F:\IAR\8051_work\IOTSystem\GatewayIntegrated\Projects\zstack\Samples\SampleApp\CC2530DB\CoordinatorEB\List
//        -lA
//        F:\IAR\8051_work\IOTSystem\GatewayIntegrated\Projects\zstack\Samples\SampleApp\CC2530DB\CoordinatorEB\List
//        --diag_suppress Pe001,Pa010 -o
//        F:\IAR\8051_work\IOTSystem\GatewayIntegrated\Projects\zstack\Samples\SampleApp\CC2530DB\CoordinatorEB\Obj
//        -e --debug --core=plain --dptr=16,1 --data_model=large
//        --code_model=banked --calling_convention=xdata_reentrant
//        --place_constants=data_rom --nr_virtual_regs 8 -f
//        F:\IAR\8051_work\IOTSystem\GatewayIntegrated\Projects\zstack\Samples\SampleApp\CC2530DB\..\..\..\Tools\CC2530DB\f8wCoord.cfg
//        (-DCPU32MHZ -DROOT=__near_func -DMAC_CFG_APP_PENDING_QUEUE=TRUE
//        -DMAC_CFG_TX_DATA_MAX=5 -DMAC_CFG_TX_MAX=8 -DMAC_CFG_RX_MAX=5
//        -DZDO_COORDINATOR -DRTR_NWK) -f
//        F:\IAR\8051_work\IOTSystem\GatewayIntegrated\Projects\zstack\Samples\SampleApp\CC2530DB\..\..\..\Tools\CC2530DB\f8wConfig.cfg
//        (-DZIGBEEPRO -DSECURE=0 -DZG_SECURE_DYNAMIC=0 -DREFLECTOR
//        -DDEFAULT_CHANLIST=0x00000800 -DZDAPP_CONFIG_PAN_ID=0xFF00
//        -DNWK_START_DELAY=100 -DEXTENDED_JOINING_RANDOM_MASK=0x007F
//        -DBEACON_REQUEST_DELAY=100 -DBEACON_REQ_DELAY_MASK=0x00FF
//        -DLINK_STATUS_JITTER_MASK=0x007F -DROUTE_EXPIRY_TIME=30
//        -DAPSC_ACK_WAIT_DURATION_POLLED=3000 -DNWK_INDIRECT_MSG_TIMEOUT=7
//        -DMAX_RREQ_ENTRIES=8 -DAPSC_MAX_FRAME_RETRIES=3
//        -DNWK_MAX_DATA_RETRIES=2 -DMAX_POLL_FAILURE_RETRIES=2 -DMAX_BCAST=9
//        -DAPS_MAX_GROUPS=16 -DMAX_RTG_ENTRIES=40 -DNWK_MAX_BINDING_ENTRIES=4
//        -DMAX_BINDING_CLUSTER_IDS=4 "-DDEFAULT_KEY={0x01, 0x03, 0x05, 0x07,
//        0x09, 0x0B, 0x0D, 0x0F, 0x00, 0x02, 0x04, 0x06, 0x08, 0x0A, 0x0C,
//        0x0D}" -DMAC_MAX_FRAME_SIZE=116 -DZDNWKMGR_MIN_TRANSMISSIONS=20
//        "-DCONST=const __code" -DGENERIC=__generic -DRFD_RCVC_ALWAYS_ON=TRUE
//        -DPOLL_RATE=1000 -DQUEUED_POLL_RATE=100 -DRESPONSE_POLL_RATE=100
//        -DREJOIN_POLL_RATE=440) -I
//        F:\IAR\8051_work\IOTSystem\GatewayIntegrated\Projects\zstack\Samples\SampleApp\CC2530DB\
//        -I
//        F:\IAR\8051_work\IOTSystem\GatewayIntegrated\Projects\zstack\Samples\SampleApp\CC2530DB\..\Source\
//        -I
//        F:\IAR\8051_work\IOTSystem\GatewayIntegrated\Projects\zstack\Samples\SampleApp\CC2530DB\..\..\..\ZMain\TI2530DB\
//        -I
//        F:\IAR\8051_work\IOTSystem\GatewayIntegrated\Projects\zstack\Samples\SampleApp\CC2530DB\..\..\..\..\..\Components\hal\include\
//        -I
//        F:\IAR\8051_work\IOTSystem\GatewayIntegrated\Projects\zstack\Samples\SampleApp\CC2530DB\..\..\..\..\..\Components\hal\target\CC2530EB\
//        -I
//        F:\IAR\8051_work\IOTSystem\GatewayIntegrated\Projects\zstack\Samples\SampleApp\CC2530DB\..\..\..\..\..\Components\mac\include\
//        -I
//        F:\IAR\8051_work\IOTSystem\GatewayIntegrated\Projects\zstack\Samples\SampleApp\CC2530DB\..\..\..\..\..\Components\mac\high_level\
//        -I
//        F:\IAR\8051_work\IOTSystem\GatewayIntegrated\Projects\zstack\Samples\SampleApp\CC2530DB\..\..\..\..\..\Components\mac\low_level\srf04\
//        -I
//        F:\IAR\8051_work\IOTSystem\GatewayIntegrated\Projects\zstack\Samples\SampleApp\CC2530DB\..\..\..\..\..\Components\mac\low_level\srf04\single_chip\
//        -I
//        F:\IAR\8051_work\IOTSystem\GatewayIntegrated\Projects\zstack\Samples\SampleApp\CC2530DB\..\..\..\..\..\Components\mt\
//        -I
//        F:\IAR\8051_work\IOTSystem\GatewayIntegrated\Projects\zstack\Samples\SampleApp\CC2530DB\..\..\..\..\..\Components\osal\include\
//        -I
//        F:\IAR\8051_work\IOTSystem\GatewayIntegrated\Projects\zstack\Samples\SampleApp\CC2530DB\..\..\..\..\..\Components\services\saddr\
//        -I
//        F:\IAR\8051_work\IOTSystem\GatewayIntegrated\Projects\zstack\Samples\SampleApp\CC2530DB\..\..\..\..\..\Components\services\sdata\
//        -I
//        F:\IAR\8051_work\IOTSystem\GatewayIntegrated\Projects\zstack\Samples\SampleApp\CC2530DB\..\..\..\..\..\Components\stack\af\
//        -I
//        F:\IAR\8051_work\IOTSystem\GatewayIntegrated\Projects\zstack\Samples\SampleApp\CC2530DB\..\..\..\..\..\Components\stack\nwk\
//        -I
//        F:\IAR\8051_work\IOTSystem\GatewayIntegrated\Projects\zstack\Samples\SampleApp\CC2530DB\..\..\..\..\..\Components\stack\sapi\
//        -I
//        F:\IAR\8051_work\IOTSystem\GatewayIntegrated\Projects\zstack\Samples\SampleApp\CC2530DB\..\..\..\..\..\Components\stack\sec\
//        -I
//        F:\IAR\8051_work\IOTSystem\GatewayIntegrated\Projects\zstack\Samples\SampleApp\CC2530DB\..\..\..\..\..\Components\stack\sys\
//        -I
//        F:\IAR\8051_work\IOTSystem\GatewayIntegrated\Projects\zstack\Samples\SampleApp\CC2530DB\..\..\..\..\..\Components\stack\zdo\
//        -I
//        F:\IAR\8051_work\IOTSystem\GatewayIntegrated\Projects\zstack\Samples\SampleApp\CC2530DB\..\..\..\..\..\Components\zmac\
//        -I
//        F:\IAR\8051_work\IOTSystem\GatewayIntegrated\Projects\zstack\Samples\SampleApp\CC2530DB\..\..\..\..\..\Components\zmac\f8w\
//        -Ohz --no_code_motion)
//    Locale             =  Chinese (Simplified)_CHN.936
//    List file          =  
//        F:\IAR\8051_work\IOTSystem\GatewayIntegrated\Projects\zstack\Samples\SampleApp\CC2530DB\CoordinatorEB\List\SampleApp.s51
//
///////////////////////////////////////////////////////////////////////////////

        NAME SampleApp

        RTMODEL "__SystemLibrary", "CLib"
        RTMODEL "__calling_convention", "xdata_reentrant"
        RTMODEL "__code_model", "banked"
        RTMODEL "__core", "plain"
        RTMODEL "__data_model", "large"
        RTMODEL "__dptr_size", "16"
        RTMODEL "__extended_stack", "disabled"
        RTMODEL "__iar_require _formatted_write", "unknown"
        RTMODEL "__location_for_constants", "data"
        RTMODEL "__number_of_dptrs", "1"
        RTMODEL "__register_banks", "*"
        RTMODEL "__rt_version", "1"

        RSEG DOVERLAY:DATA:NOROOT(0)
        RSEG IOVERLAY:IDATA:NOROOT(0)
        RSEG ISTACK:IDATA:NOROOT(0)
        RSEG PSTACK:XDATA:NOROOT(0)
        RSEG XSTACK:XDATA:NOROOT(0)

        EXTERN ?V0
        EXTERN ?V1
        EXTERN ?V2
        EXTERN ?V3
        EXTERN ?V4
        EXTERN ?V5
        EXTERN ?V6
        EXTERN ?V7
        EXTERN ?ALLOC_XSTACK8
        EXTERN ?BANKED_ENTER_XDATA
        EXTERN ?BANKED_LEAVE_XDATA
        EXTERN ?BDISPATCH
        EXTERN ?BRET
        EXTERN ?DEALLOC_XSTACK8
        EXTERN ?MOVE_LONG8_XDATA_XDATA
        EXTERN ?PUSH_XSTACK_I_ONE
        EXTERN ?PUSH_XSTACK_I_THREE
        EXTERN ?PUSH_XSTACK_I_TWO
        EXTERN ?US_SWITCH_DENSE
        EXTERN ?XSP
        EXTERN ?XSTACK_DISP0_8
        EXTERN ?XSTACK_DISP100_8
        EXTERN ?XSTACK_DISP101_8
        EXTERN __INIT_XDATA_Z

        PUBLIC `??SampleApp_HandleKeys::?relay`
        FUNCTION `??SampleApp_HandleKeys::?relay`,0203H
        PUBLIC `??SampleApp_Init::?relay`
        FUNCTION `??SampleApp_Init::?relay`,0203H
        PUBLIC `??SampleApp_MessageMSGCB::?relay`
        FUNCTION `??SampleApp_MessageMSGCB::?relay`,0203H
        PUBLIC `??SampleApp_ProcessEvent::?relay`
        FUNCTION `??SampleApp_ProcessEvent::?relay`,0203H
        PUBLIC `??SampleApp_SendFlashMessage::?relay`
        FUNCTION `??SampleApp_SendFlashMessage::?relay`,0203H
        PUBLIC `??SampleApp_SendGroupMessage::?relay`
        FUNCTION `??SampleApp_SendGroupMessage::?relay`,0203H
        PUBLIC `??SampleApp_SendPeriodicMessage::?relay`
        FUNCTION `??SampleApp_SendPeriodicMessage::?relay`,0203H
        PUBLIC `??WiFiRecv::?relay`
        FUNCTION `??WiFiRecv::?relay`,0203H
        PUBLIC `??WiFiSend::?relay`
        FUNCTION `??WiFiSend::?relay`,0203H
        PUBLIC `??_UARTRead::?relay`
        FUNCTION `??_UARTRead::?relay`,0203H
        PUBLIC `??_UARTSend::?relay`
        FUNCTION `??_UARTSend::?relay`,0203H
        PUBLIC `??_delay_ms::?relay`
        FUNCTION `??_delay_ms::?relay`,0203H
        PUBLIC `??_delay_us::?relay`
        FUNCTION `??_delay_us::?relay`,0203H
        PUBLIC `??_zigbeeSend::?relay`
        FUNCTION `??_zigbeeSend::?relay`,0203H
        PUBLIC `??exit_send::?relay`
        FUNCTION `??exit_send::?relay`,0203H
        PUBLIC `??wait_for::?relay`
        FUNCTION `??wait_for::?relay`,0203H
        PUBLIC SampleAppFlashCounter
        PUBLIC SampleAppPeriodicCounter
        PUBLIC SampleApp_ClusterList
        PUBLIC SampleApp_Flash_DstAddr
        PUBLIC SampleApp_Group
        PUBLIC SampleApp_HandleKeys
        FUNCTION SampleApp_HandleKeys,0a1203H
        ARGFRAME XSTACK, 175, STACK
        ARGFRAME IOVERLAY, 0, STATIC
        ARGFRAME DOVERLAY, 0, STATIC
        LOCFRAME XSTACK, 10, STACK
        PUBLIC SampleApp_Init
        FUNCTION SampleApp_Init,0a1203H
        ARGFRAME XSTACK, 0, STACK
        LOCFRAME XSTACK, 14, STACK
        PUBLIC SampleApp_MessageMSGCB
        FUNCTION SampleApp_MessageMSGCB,0a1203H
        ARGFRAME XSTACK, 175, STACK
        ARGFRAME IOVERLAY, 0, STATIC
        ARGFRAME DOVERLAY, 0, STATIC
        LOCFRAME XSTACK, 10, STACK
        PUBLIC SampleApp_NwkState
        PUBLIC SampleApp_Periodic_DstAddr
        PUBLIC SampleApp_ProcessEvent
        FUNCTION SampleApp_ProcessEvent,0a1203H
        ARGFRAME XSTACK, 0, STACK
        LOCFRAME XSTACK, 179, STACK
        PUBLIC SampleApp_SendFlashMessage
        FUNCTION SampleApp_SendFlashMessage,0a1203H
        ARGFRAME XSTACK, 10, STACK
        ARGFRAME IOVERLAY, 0, STATIC
        ARGFRAME DOVERLAY, 0, STATIC
        LOCFRAME ISTACK, 1, STACK
        LOCFRAME XSTACK, 22, STACK
        PUBLIC SampleApp_SendGroupMessage
        FUNCTION SampleApp_SendGroupMessage,0a1203H
        ARGFRAME XSTACK, 0, STACK
        LOCFRAME XSTACK, 39, STACK
        PUBLIC SampleApp_SendPeriodicMessage
        FUNCTION SampleApp_SendPeriodicMessage,0a1203H
        ARGFRAME XSTACK, 0, STACK
        LOCFRAME XSTACK, 29, STACK
        PUBLIC SampleApp_SimpleDesc
        PUBLIC SampleApp_TaskID
        PUBLIC SampleApp_TransID
        PUBLIC SampleApp_epDesc
        PUBLIC WiFiRecv
        FUNCTION WiFiRecv,0a1203H
        ARGFRAME XSTACK, 175, STACK
        ARGFRAME IOVERLAY, 0, STATIC
        ARGFRAME DOVERLAY, 0, STATIC
        LOCFRAME XSTACK, 83, STACK
        PUBLIC WiFiSend
        FUNCTION WiFiSend,0a1203H
        ARGFRAME XSTACK, 175, STACK
        ARGFRAME IOVERLAY, 0, STATIC
        ARGFRAME DOVERLAY, 0, STATIC
        LOCFRAME ISTACK, 1, STACK
        LOCFRAME XSTACK, 80, STACK
        PUBWEAK _A_P0
        PUBLIC _UARTRead
        FUNCTION _UARTRead,0a1203H
        ARGFRAME XSTACK, 175, STACK
        ARGFRAME IOVERLAY, 0, STATIC
        ARGFRAME DOVERLAY, 0, STATIC
        LOCFRAME XSTACK, 9, STACK
        PUBLIC _UARTSend
        FUNCTION _UARTSend,0a1203H
        ARGFRAME XSTACK, 179, STACK
        ARGFRAME IOVERLAY, 0, STATIC
        ARGFRAME DOVERLAY, 0, STATIC
        LOCFRAME ISTACK, 1, STACK
        LOCFRAME XSTACK, 78, STACK
        PUBLIC _delay_ms
        FUNCTION _delay_ms,021203H
        ARGFRAME XSTACK, 175, STACK
        ARGFRAME IOVERLAY, 0, STATIC
        ARGFRAME DOVERLAY, 0, STATIC
        LOCFRAME XSTACK, 9, STACK
        PUBLIC _delay_us
        FUNCTION _delay_us,080203H
        ARGFRAME XSTACK, 9, STACK
        ARGFRAME IOVERLAY, 0, STATIC
        ARGFRAME DOVERLAY, 0, STATIC
        PUBLIC _zigbeeSend
        FUNCTION _zigbeeSend,0a1203H
        ARGFRAME XSTACK, 175, STACK
        ARGFRAME IOVERLAY, 0, STATIC
        ARGFRAME DOVERLAY, 0, STATIC
        LOCFRAME ISTACK, 1, STACK
        LOCFRAME XSTACK, 87, STACK
        PUBLIC exit_send
        FUNCTION exit_send,021203H
        ARGFRAME XSTACK, 175, STACK
        ARGFRAME IOVERLAY, 0, STATIC
        ARGFRAME DOVERLAY, 0, STATIC
        LOCFRAME XSTACK, 9, STACK
        PUBLIC wait_for
        FUNCTION wait_for,0a1203H
        ARGFRAME XSTACK, 177, STACK
        ARGFRAME IOVERLAY, 0, STATIC
        ARGFRAME DOVERLAY, 0, STATIC
        LOCFRAME XSTACK, 82, STACK
        
          CFI Names cfiNames0
          CFI StackFrame CFA_SP SP IDATA
          CFI StackFrame CFA_PSP16 PSP16 XDATA
          CFI StackFrame CFA_XSP16 XSP16 XDATA
          CFI StaticOverlayFrame CFA_IOVERLAY IOVERLAY
          CFI StaticOverlayFrame CFA_DOVERLAY DOVERLAY
          CFI Resource `PSW.CY`:1, `B.BR0`:1, `B.BR1`:1, `B.BR2`:1, `B.BR3`:1
          CFI Resource `B.BR4`:1, `B.BR5`:1, `B.BR6`:1, `B.BR7`:1, `VB.BR8`:1
          CFI Resource `VB.BR9`:1, `VB.BR10`:1, `VB.BR11`:1, `VB.BR12`:1
          CFI Resource `VB.BR13`:1, `VB.BR14`:1, `VB.BR15`:1, VB:8, B:8, A:8
          CFI Resource PSW:8, DPL0:8, DPH0:8, R0:8, R1:8, R2:8, R3:8, R4:8, R5:8
          CFI Resource R6:8, R7:8, V0:8, V1:8, V2:8, V3:8, V4:8, V5:8, V6:8, V7:8
          CFI Resource SP:8, PSPH:8, PSPL:8, PSP16:16, XSPH:8, XSPL:8, XSP16:16
          CFI VirtualResource ?RET:24
          CFI Resource ?BRET_EXT:8
          CFI VirtualResource ?RET_HIGH:8, ?RET_LOW:8
          CFI ResourceParts PSP16 PSPH, PSPL
          CFI ResourceParts XSP16 XSPH, XSPL
          CFI ResourceParts ?RET ?BRET_EXT, ?RET_HIGH, ?RET_LOW
          CFI EndNames cfiNames0
        
          CFI Common cfiCommon0 Using cfiNames0
          CFI CodeAlign 1
          CFI DataAlign -1
          CFI ReturnAddress ?RET CODE
          CFI CFA_DOVERLAY Used
          CFI CFA_IOVERLAY Used
          CFI CFA_SP SP+-3
          CFI CFA_PSP16 PSP16+0
          CFI CFA_XSP16 XSP16+0
          CFI `PSW.CY` SameValue
          CFI `B.BR0` SameValue
          CFI `B.BR1` SameValue
          CFI `B.BR2` SameValue
          CFI `B.BR3` SameValue
          CFI `B.BR4` SameValue
          CFI `B.BR5` SameValue
          CFI `B.BR6` SameValue
          CFI `B.BR7` SameValue
          CFI `VB.BR8` SameValue
          CFI `VB.BR9` SameValue
          CFI `VB.BR10` SameValue
          CFI `VB.BR11` SameValue
          CFI `VB.BR12` SameValue
          CFI `VB.BR13` SameValue
          CFI `VB.BR14` SameValue
          CFI `VB.BR15` SameValue
          CFI VB SameValue
          CFI B Undefined
          CFI A Undefined
          CFI PSW SameValue
          CFI DPL0 SameValue
          CFI DPH0 SameValue
          CFI R0 Undefined
          CFI R1 Undefined
          CFI R2 Undefined
          CFI R3 Undefined
          CFI R4 Undefined
          CFI R5 Undefined
          CFI R6 SameValue
          CFI R7 SameValue
          CFI V0 SameValue
          CFI V1 SameValue
          CFI V2 SameValue
          CFI V3 SameValue
          CFI V4 SameValue
          CFI V5 SameValue
          CFI V6 SameValue
          CFI V7 SameValue
          CFI PSPH Undefined
          CFI PSPL Undefined
          CFI XSPH Undefined
          CFI XSPL Undefined
          CFI ?RET Concat
          CFI ?BRET_EXT Frame(CFA_SP, 3)
          CFI ?RET_HIGH Frame(CFA_SP, 2)
          CFI ?RET_LOW Frame(CFA_SP, 1)
          CFI EndCommon cfiCommon0
        
        
          CFI Common cfiCommon1 Using cfiNames0
          CFI CodeAlign 1
          CFI DataAlign -1
          CFI ReturnAddress ?RET CODE
          CFI CFA_DOVERLAY Used
          CFI CFA_IOVERLAY Used
          CFI CFA_SP SP+-2
          CFI CFA_PSP16 PSP16+0
          CFI CFA_XSP16 XSP16+0
          CFI `PSW.CY` SameValue
          CFI `B.BR0` SameValue
          CFI `B.BR1` SameValue
          CFI `B.BR2` SameValue
          CFI `B.BR3` SameValue
          CFI `B.BR4` SameValue
          CFI `B.BR5` SameValue
          CFI `B.BR6` SameValue
          CFI `B.BR7` SameValue
          CFI `VB.BR8` SameValue
          CFI `VB.BR9` SameValue
          CFI `VB.BR10` SameValue
          CFI `VB.BR11` SameValue
          CFI `VB.BR12` SameValue
          CFI `VB.BR13` SameValue
          CFI `VB.BR14` SameValue
          CFI `VB.BR15` SameValue
          CFI VB SameValue
          CFI B SameValue
          CFI A SameValue
          CFI PSW SameValue
          CFI DPL0 SameValue
          CFI DPH0 SameValue
          CFI R0 SameValue
          CFI R1 SameValue
          CFI R2 SameValue
          CFI R3 SameValue
          CFI R4 SameValue
          CFI R5 SameValue
          CFI R6 SameValue
          CFI R7 SameValue
          CFI V0 SameValue
          CFI V1 SameValue
          CFI V2 SameValue
          CFI V3 SameValue
          CFI V4 SameValue
          CFI V5 SameValue
          CFI V6 SameValue
          CFI V7 SameValue
          CFI PSPH Undefined
          CFI PSPL Undefined
          CFI XSPH Undefined
          CFI XSPL Undefined
          CFI ?RET Concat
          CFI ?BRET_EXT SameValue
          CFI ?RET_HIGH Frame(CFA_SP, 2)
          CFI ?RET_LOW Frame(CFA_SP, 1)
          CFI EndCommon cfiCommon1
        
AF_DataRequest      SYMBOL "AF_DataRequest"
`??AF_DataRequest::?relay` SYMBOL "?relay", AF_DataRequest
HalUARTOpen         SYMBOL "HalUARTOpen"
`??HalUARTOpen::?relay` SYMBOL "?relay", HalUARTOpen
HalUARTRead         SYMBOL "HalUARTRead"
`??HalUARTRead::?relay` SYMBOL "?relay", HalUARTRead
HalUARTWrite        SYMBOL "HalUARTWrite"
`??HalUARTWrite::?relay` SYMBOL "?relay", HalUARTWrite
MT_UartInit         SYMBOL "MT_UartInit"
`??MT_UartInit::?relay` SYMBOL "?relay", MT_UartInit
MT_UartRegisterTaskID SYMBOL "MT_UartRegisterTaskID"
`??MT_UartRegisterTaskID::?relay` SYMBOL "?relay", MT_UartRegisterTaskID
RegisterForKeys     SYMBOL "RegisterForKeys"
`??RegisterForKeys::?relay` SYMBOL "?relay", RegisterForKeys
afRegister          SYMBOL "afRegister"
`??afRegister::?relay` SYMBOL "?relay", afRegister
aps_AddGroup        SYMBOL "aps_AddGroup"
`??aps_AddGroup::?relay` SYMBOL "?relay", aps_AddGroup
aps_FindGroup       SYMBOL "aps_FindGroup"
`??aps_FindGroup::?relay` SYMBOL "?relay", aps_FindGroup
aps_RemoveGroup     SYMBOL "aps_RemoveGroup"
`??aps_RemoveGroup::?relay` SYMBOL "?relay", aps_RemoveGroup
osal_memcmp         SYMBOL "osal_memcmp"
`??osal_memcmp::?relay` SYMBOL "?relay", osal_memcmp
osal_memcpy         SYMBOL "osal_memcpy"
`??osal_memcpy::?relay` SYMBOL "?relay", osal_memcpy
osal_msg_deallocate SYMBOL "osal_msg_deallocate"
`??osal_msg_deallocate::?relay` SYMBOL "?relay", osal_msg_deallocate
osal_msg_receive    SYMBOL "osal_msg_receive"
`??osal_msg_receive::?relay` SYMBOL "?relay", osal_msg_receive
osal_nv_item_init   SYMBOL "osal_nv_item_init"
`??osal_nv_item_init::?relay` SYMBOL "?relay", osal_nv_item_init
osal_nv_read        SYMBOL "osal_nv_read"
`??osal_nv_read::?relay` SYMBOL "?relay", osal_nv_read
osal_nv_write       SYMBOL "osal_nv_write"
`??osal_nv_write::?relay` SYMBOL "?relay", osal_nv_write
osal_set_event      SYMBOL "osal_set_event"
`??osal_set_event::?relay` SYMBOL "?relay", osal_set_event
osal_start_timerEx  SYMBOL "osal_start_timerEx"
`??osal_start_timerEx::?relay` SYMBOL "?relay", osal_start_timerEx
strlen              SYMBOL "strlen"
`??strlen::?relay`  SYMBOL "?relay", strlen
vsprintf            SYMBOL "vsprintf"
`??vsprintf::?relay` SYMBOL "?relay", vsprintf
SampleApp_HandleKeys SYMBOL "SampleApp_HandleKeys"
`??SampleApp_HandleKeys::?relay` SYMBOL "?relay", SampleApp_HandleKeys
SampleApp_Init      SYMBOL "SampleApp_Init"
`??SampleApp_Init::?relay` SYMBOL "?relay", SampleApp_Init
SampleApp_MessageMSGCB SYMBOL "SampleApp_MessageMSGCB"
`??SampleApp_MessageMSGCB::?relay` SYMBOL "?relay", SampleApp_MessageMSGCB
SampleApp_ProcessEvent SYMBOL "SampleApp_ProcessEvent"
`??SampleApp_ProcessEvent::?relay` SYMBOL "?relay", SampleApp_ProcessEvent
SampleApp_SendFlashMessage SYMBOL "SampleApp_SendFlashMessage"
`??SampleApp_SendFlashMessage::?relay` SYMBOL "?relay", SampleApp_SendFlashMessage
SampleApp_SendGroupMessage SYMBOL "SampleApp_SendGroupMessage"
`??SampleApp_SendGroupMessage::?relay` SYMBOL "?relay", SampleApp_SendGroupMessage
SampleApp_SendPeriodicMessage SYMBOL "SampleApp_SendPeriodicMessage"
`??SampleApp_SendPeriodicMessage::?relay` SYMBOL "?relay", SampleApp_SendPeriodicMessage
WiFiRecv            SYMBOL "WiFiRecv"
`??WiFiRecv::?relay` SYMBOL "?relay", WiFiRecv
WiFiSend            SYMBOL "WiFiSend"
`??WiFiSend::?relay` SYMBOL "?relay", WiFiSend
_UARTRead           SYMBOL "_UARTRead"
`??_UARTRead::?relay` SYMBOL "?relay", _UARTRead
_UARTSend           SYMBOL "_UARTSend"
`??_UARTSend::?relay` SYMBOL "?relay", _UARTSend
_delay_ms           SYMBOL "_delay_ms"
`??_delay_ms::?relay` SYMBOL "?relay", _delay_ms
_delay_us           SYMBOL "_delay_us"
`??_delay_us::?relay` SYMBOL "?relay", _delay_us
_zigbeeSend         SYMBOL "_zigbeeSend"
`??_zigbeeSend::?relay` SYMBOL "?relay", _zigbeeSend
exit_send           SYMBOL "exit_send"
`??exit_send::?relay` SYMBOL "?relay", exit_send
wait_for            SYMBOL "wait_for"
`??wait_for::?relay` SYMBOL "?relay", wait_for

        EXTERN `??AF_DataRequest::?relay`
        FUNCTION `??AF_DataRequest::?relay`,00H
        EXTERN `??HalUARTOpen::?relay`
        FUNCTION `??HalUARTOpen::?relay`,00H
        EXTERN `??HalUARTRead::?relay`
        FUNCTION `??HalUARTRead::?relay`,00H
        EXTERN `??HalUARTWrite::?relay`
        FUNCTION `??HalUARTWrite::?relay`,00H
        EXTERN `??MT_UartInit::?relay`
        FUNCTION `??MT_UartInit::?relay`,00H
        EXTERN `??MT_UartRegisterTaskID::?relay`
        FUNCTION `??MT_UartRegisterTaskID::?relay`,00H
        EXTERN `??RegisterForKeys::?relay`
        FUNCTION `??RegisterForKeys::?relay`,00H
        EXTERN `??afRegister::?relay`
        FUNCTION `??afRegister::?relay`,00H
        EXTERN `??aps_AddGroup::?relay`
        FUNCTION `??aps_AddGroup::?relay`,00H
        EXTERN `??aps_FindGroup::?relay`
        FUNCTION `??aps_FindGroup::?relay`,00H
        EXTERN `??aps_RemoveGroup::?relay`
        FUNCTION `??aps_RemoveGroup::?relay`,00H
        EXTERN `??osal_memcmp::?relay`
        FUNCTION `??osal_memcmp::?relay`,00H
        EXTERN `??osal_memcpy::?relay`
        FUNCTION `??osal_memcpy::?relay`,00H
        EXTERN `??osal_msg_deallocate::?relay`
        FUNCTION `??osal_msg_deallocate::?relay`,00H
        EXTERN `??osal_msg_receive::?relay`
        FUNCTION `??osal_msg_receive::?relay`,00H
        EXTERN `??osal_nv_item_init::?relay`
        FUNCTION `??osal_nv_item_init::?relay`,00H
        EXTERN `??osal_nv_read::?relay`
        FUNCTION `??osal_nv_read::?relay`,00H
        EXTERN `??osal_nv_write::?relay`
        FUNCTION `??osal_nv_write::?relay`,00H
        EXTERN `??osal_set_event::?relay`
        FUNCTION `??osal_set_event::?relay`,00H
        EXTERN `??osal_start_timerEx::?relay`
        FUNCTION `??osal_start_timerEx::?relay`,00H
        EXTERN `??strlen::?relay`
        FUNCTION `??strlen::?relay`,00H
        EXTERN `??vsprintf::?relay`
        FUNCTION `??vsprintf::?relay`,00H
        EXTERN AF_DataRequest
        FUNCTION AF_DataRequest,0202H
        ARGFRAME ISTACK, 0, STACK
        ARGFRAME PSTACK, 0, STACK
        ARGFRAME XSTACK, 87, STACK
        ARGFRAME IOVERLAY, 0, STATIC
        ARGFRAME DOVERLAY, 0, STATIC
        EXTERN HalUARTOpen
        FUNCTION HalUARTOpen,0202H
        ARGFRAME ISTACK, 0, STACK
        ARGFRAME PSTACK, 0, STACK
        ARGFRAME XSTACK, 175, STACK
        ARGFRAME IOVERLAY, 0, STATIC
        ARGFRAME DOVERLAY, 0, STATIC
        EXTERN HalUARTRead
        FUNCTION HalUARTRead,0202H
        ARGFRAME ISTACK, 0, STACK
        ARGFRAME PSTACK, 0, STACK
        ARGFRAME XSTACK, 9, STACK
        ARGFRAME IOVERLAY, 0, STATIC
        ARGFRAME DOVERLAY, 0, STATIC
        EXTERN HalUARTWrite
        FUNCTION HalUARTWrite,0202H
        ARGFRAME ISTACK, 0, STACK
        ARGFRAME PSTACK, 0, STACK
        ARGFRAME XSTACK, 175, STACK
        ARGFRAME IOVERLAY, 0, STATIC
        ARGFRAME DOVERLAY, 0, STATIC
        EXTERN MT_UartInit
        FUNCTION MT_UartInit,0202H
        ARGFRAME ISTACK, 0, STACK
        ARGFRAME PSTACK, 0, STACK
        ARGFRAME XSTACK, 11, STACK
        ARGFRAME IOVERLAY, 0, STATIC
        ARGFRAME DOVERLAY, 0, STATIC
        EXTERN MT_UartRegisterTaskID
        FUNCTION MT_UartRegisterTaskID,0202H
        ARGFRAME ISTACK, 0, STACK
        ARGFRAME PSTACK, 0, STACK
        ARGFRAME XSTACK, 11, STACK
        ARGFRAME IOVERLAY, 0, STATIC
        ARGFRAME DOVERLAY, 0, STATIC
        EXTERN RegisterForKeys
        FUNCTION RegisterForKeys,0202H
        ARGFRAME ISTACK, 0, STACK
        ARGFRAME PSTACK, 0, STACK
        ARGFRAME XSTACK, 11, STACK
        ARGFRAME IOVERLAY, 0, STATIC
        ARGFRAME DOVERLAY, 0, STATIC
        EXTERN afRegister
        FUNCTION afRegister,0202H
        ARGFRAME ISTACK, 0, STACK
        ARGFRAME PSTACK, 0, STACK
        ARGFRAME XSTACK, 11, STACK
        ARGFRAME IOVERLAY, 0, STATIC
        ARGFRAME DOVERLAY, 0, STATIC
        EXTERN aps_AddGroup
        FUNCTION aps_AddGroup,0202H
        ARGFRAME ISTACK, 0, STACK
        ARGFRAME PSTACK, 0, STACK
        ARGFRAME XSTACK, 11, STACK
        ARGFRAME IOVERLAY, 0, STATIC
        ARGFRAME DOVERLAY, 0, STATIC
        EXTERN aps_FindGroup
        FUNCTION aps_FindGroup,0202H
        ARGFRAME ISTACK, 0, STACK
        ARGFRAME PSTACK, 0, STACK
        ARGFRAME XSTACK, 10, STACK
        ARGFRAME IOVERLAY, 0, STATIC
        ARGFRAME DOVERLAY, 0, STATIC
        EXTERN aps_RemoveGroup
        FUNCTION aps_RemoveGroup,0202H
        ARGFRAME ISTACK, 0, STACK
        ARGFRAME PSTACK, 0, STACK
        ARGFRAME XSTACK, 10, STACK
        ARGFRAME IOVERLAY, 0, STATIC
        ARGFRAME DOVERLAY, 0, STATIC
        EXTERN osal_memcmp
        FUNCTION osal_memcmp,0202H
        ARGFRAME ISTACK, 0, STACK
        ARGFRAME PSTACK, 0, STACK
        ARGFRAME XSTACK, 178, STACK
        ARGFRAME IOVERLAY, 0, STATIC
        ARGFRAME DOVERLAY, 0, STATIC
        EXTERN osal_memcpy
        FUNCTION osal_memcpy,0202H
        ARGFRAME ISTACK, 0, STACK
        ARGFRAME PSTACK, 0, STACK
        ARGFRAME XSTACK, 83, STACK
        ARGFRAME IOVERLAY, 0, STATIC
        ARGFRAME DOVERLAY, 0, STATIC
        EXTERN osal_msg_deallocate
        FUNCTION osal_msg_deallocate,0202H
        ARGFRAME ISTACK, 0, STACK
        ARGFRAME PSTACK, 0, STACK
        ARGFRAME XSTACK, 175, STACK
        ARGFRAME IOVERLAY, 0, STATIC
        ARGFRAME DOVERLAY, 0, STATIC
        EXTERN osal_msg_receive
        FUNCTION osal_msg_receive,0202H
        ARGFRAME ISTACK, 0, STACK
        ARGFRAME PSTACK, 0, STACK
        ARGFRAME XSTACK, 175, STACK
        ARGFRAME IOVERLAY, 0, STATIC
        ARGFRAME DOVERLAY, 0, STATIC
        EXTERN osal_nv_item_init
        FUNCTION osal_nv_item_init,0202H
        ARGFRAME ISTACK, 0, STACK
        ARGFRAME PSTACK, 0, STACK
        ARGFRAME XSTACK, 177, STACK
        ARGFRAME IOVERLAY, 0, STATIC
        ARGFRAME DOVERLAY, 0, STATIC
        EXTERN osal_nv_read
        FUNCTION osal_nv_read,0202H
        ARGFRAME ISTACK, 0, STACK
        ARGFRAME PSTACK, 0, STACK
        ARGFRAME XSTACK, 179, STACK
        ARGFRAME IOVERLAY, 0, STATIC
        ARGFRAME DOVERLAY, 0, STATIC
        EXTERN osal_nv_write
        FUNCTION osal_nv_write,0202H
        ARGFRAME ISTACK, 0, STACK
        ARGFRAME PSTACK, 0, STACK
        ARGFRAME XSTACK, 179, STACK
        ARGFRAME IOVERLAY, 0, STATIC
        ARGFRAME DOVERLAY, 0, STATIC
        EXTERN osal_set_event
        FUNCTION osal_set_event,0202H
        ARGFRAME ISTACK, 0, STACK
        ARGFRAME PSTACK, 0, STACK
        ARGFRAME XSTACK, 175, STACK
        ARGFRAME IOVERLAY, 0, STATIC
        ARGFRAME DOVERLAY, 0, STATIC
        EXTERN osal_start_timerEx
        FUNCTION osal_start_timerEx,0202H
        ARGFRAME ISTACK, 0, STACK
        ARGFRAME PSTACK, 0, STACK
        ARGFRAME XSTACK, 175, STACK
        ARGFRAME IOVERLAY, 0, STATIC
        ARGFRAME DOVERLAY, 0, STATIC
        EXTERN strlen
        FUNCTION strlen,010202H
        ARGFRAME ISTACK, 0, STACK
        ARGFRAME PSTACK, 0, STACK
        ARGFRAME XSTACK, 82, STACK
        ARGFRAME IOVERLAY, 0, STATIC
        ARGFRAME DOVERLAY, 0, STATIC
        EXTERN vsprintf
        FUNCTION vsprintf,0202H
        ARGFRAME ISTACK, 0, STACK
        ARGFRAME PSTACK, 0, STACK
        ARGFRAME XSTACK, 80, STACK
        ARGFRAME IOVERLAY, 0, STATIC
        ARGFRAME DOVERLAY, 0, STATIC

// F:\IAR\8051_work\IOTSystem\GatewayIntegrated\Projects\zstack\Samples\SampleApp\Source\SampleApp.c
//    1 /**************************************************************************************************
//    2   Filename:       SampleApp.c
//    3   Revised:        $Date: 2009-03-18 15:56:27 -0700 (Wed, 18 Mar 2009) $
//    4   Revision:       $Revision: 19453 $
//    5 
//    6   Description:    Sample Application (no Profile).
//    7 
//    8 
//    9   Copyright 2007 Texas Instruments Incorporated. All rights reserved.
//   10 
//   11   IMPORTANT: Your use of this Software is limited to those specific rights
//   12   granted under the terms of a software license agreement between the user
//   13   who downloaded the software, his/her employer (which must be your employer)
//   14   and Texas Instruments Incorporated (the "License").  You may not use this
//   15   Software unless you agree to abide by the terms of the License. The License
//   16   limits your use, and you acknowledge, that the Software may not be modified,
//   17   copied or distributed unless embedded on a Texas Instruments microcontroller
//   18   or used solely and exclusively in conjunction with a Texas Instruments radio
//   19   frequency transceiver, which is integrated into your product.  Other than for
//   20   the foregoing purpose, you may not use, reproduce, copy, prepare derivative
//   21   works of, modify, distribute, perform, display or sell this Software and/or
//   22   its documentation for any purpose.
//   23 
//   24   YOU FURTHER ACKNOWLEDGE AND AGREE THAT THE SOFTWARE AND DOCUMENTATION ARE
//   25   PROVIDED AS IS?WITHOUT WARRANTY OF ANY KIND, EITHER EXPRESS OR IMPLIED,
//   26   INCLUDING WITHOUT LIMITATION, ANY WARRANTY OF MERCHANTABILITY, TITLE,
//   27   NON-INFRINGEMENT AND FITNESS FOR A PARTICULAR PURPOSE. IN NO EVENT SHALL
//   28   TEXAS INSTRUMENTS OR ITS LICENSORS BE LIABLE OR OBLIGATED UNDER CONTRACT,
//   29   NEGLIGENCE, STRICT LIABILITY, CONTRIBUTION, BREACH OF WARRANTY, OR OTHER
//   30   LEGAL EQUITABLE THEORY ANY DIRECT OR INDIRECT DAMAGES OR EXPENSES
//   31   INCLUDING BUT NOT LIMITED TO ANY INCIDENTAL, SPECIAL, INDIRECT, PUNITIVE
//   32   OR CONSEQUENTIAL DAMAGES, LOST PROFITS OR LOST DATA, COST OF PROCUREMENT
//   33   OF SUBSTITUTE GOODS, TECHNOLOGY, SERVICES, OR ANY CLAIMS BY THIRD PARTIES
//   34   (INCLUDING BUT NOT LIMITED TO ANY DEFENSE THEREOF), OR OTHER SIMILAR COSTS.
//   35 
//   36   Should you have any questions regarding your right to use this Software,
//   37   contact Texas Instruments Incorporated at www.TI.com.
//   38 **************************************************************************************************/
//   39 
//   40 /*********************************************************************
//   41   This application isn't intended to do anything useful, it is
//   42   intended to be a simple example of an application's structure.
//   43 
//   44   This application sends it's messages either as broadcast or
//   45   broadcast filtered group messages.  The other (more normal)
//   46   message addressing is unicast.  Most of the other sample
//   47   applications are written to support the unicast message model.
//   48 
//   49   Key control:
//   50 	SW1:  Sends a flash command to all devices in Group 1.
//   51 	SW2:  Adds/Removes (toggles) this device in and out
//   52 		  of Group 1.  This will enable and disable the
//   53 		  reception of the flash command.
//   54 *********************************************************************/
//   55 
//   56 /*********************************************************************
//   57  * INCLUDES
//   58  */
//   59 #include "OSAL.h"
//   60 #include "OSAL_Nv.h"
//   61 #include "ZGlobals.h"
//   62 #include "AF.h"
//   63 #include "aps_groups.h"
//   64 #include "ZDApp.h"
//   65 
//   66 #include "SampleApp.h"
//   67 #include "SampleAppHw.h"
//   68 
//   69 #include "OnBoard.h"

        ASEGN SFR_AN:DATA:NOROOT,080H
// union <unnamed> volatile __sfr _A_P0
_A_P0:
        DATA8
        DS 1
//   70 
//   71 /* HAL */
//   72 #include "hal_lcd.h"
//   73 #include "hal_led.h"
//   74 #include "hal_key.h"
//   75 #include "hal_uart.h"
//   76 #include "MT_UART.h"
//   77 
//   78 /* SYS */
//   79 #include <string.h>
//   80 #include <stdio.h>
//   81 #include <stdarg.h>
//   82 
//   83 #define UartDefaultRxLen 64
//   84 #define UartDefaultTxLen 64
//   85 #define Key_S1 P0_0
//   86 #define Key_S2 P0_1
//   87 #define Key_Active 0
//   88 #define LED_RED P1_0
//   89 #define LED_YELLOW P1_1
//   90 #define LED_ORANGE P1_4
//   91 
//   92 // 可行范围：0x0401 ― 0x0FFF
//   93 #define ZD_NV_IP_ID 0x0440
//   94 #define ZD_NV_PORT_ID 0x0430
//   95 #define ZD_NV_SSID_ID 0x0420
//   96 #define ZD_NV_PSWD_ID 0x0410
//   97 
//   98 // 长度定义，需为4的整数倍
//   99 // 实际长度 <= LENGTH - 1
//  100 #define SSID_MAX_LENGTH 20
//  101 #define PSWD_MAX_LENGTH 20
//  102 #define PORT_MAX_LENGTH 8
//  103 #define IP_MAX_LENGTH   16
//  104 
//  105 #define isPressed(x) (x == Key_Active)
//  106 #define print(x,...) _UARTSend(1,x,##__VA_ARGS__)
//  107 #define debug(x,...) _UARTSend(0,x,##__VA_ARGS__)
//  108 #define debug_and_print(x,...) do{\ 
//  109 	_UARTSend(0,x,##__VA_ARGS__);\ 
//  110 	_UARTSend(1,x,##__VA_ARGS__);\ 
//  111 }while(0)
//  112 
//  113 void _UARTSend(uint8 port, uint8 *fmt, ...);
//  114 void _UARTRead(uint8 port, uint8 *buf, uint16 *len);
//  115 void _delay_us(uint16 n);
//  116 void _delay_ms(uint16 n);
//  117 uint8 wait_for(uint8 *str, uint8 *err, uint16 timeout);
//  118 void exit_send(void);
//  119 uint16 WiFiRecv(uint8 *buff);
//  120 uint8 WiFiSend(uint8 *fmt, ...);
//  121 void _zigbeeSend(uint8 *fmt, ...);
//  122 
//  123 // This list should be filled with Application specific Cluster IDs.

        RSEG XDATA_ROM_C:CONST:REORDER:NOROOT(0)
        DATA32
//  124 const cId_t SampleApp_ClusterList[SAMPLEAPP_MAX_CLUSTERS] =
SampleApp_ClusterList:
        DATA16
        DW 1
        DW 2
//  125 {
//  126   SAMPLEAPP_PERIODIC_CLUSTERID,
//  127   SAMPLEAPP_FLASH_CLUSTERID,
//  128 };
//  129 

        RSEG XDATA_ROM_C:CONST:REORDER:NOROOT(0)
        DATA8
//  130 const SimpleDescriptionFormat_t SampleApp_SimpleDesc =
SampleApp_SimpleDesc:
        DB 20
        DATA16
        DW 3848
        DW 1
        DATA8
        DB 0
        DB 2
        DATA16
        DW SampleApp_ClusterList
        DATA8
        DB 2
        DATA16
        DW SampleApp_ClusterList
//  131 {
//  132   SAMPLEAPP_ENDPOINT,              //  int Endpoint;
//  133   SAMPLEAPP_PROFID,                //  uint16 AppProfId[2];
//  134   SAMPLEAPP_DEVICEID,              //  uint16 AppDeviceId[2];
//  135   SAMPLEAPP_DEVICE_VERSION,        //  int   AppDevVer:4;
//  136   SAMPLEAPP_FLAGS,                 //  int   AppFlags:4;
//  137   SAMPLEAPP_MAX_CLUSTERS,          //  uint8  AppNumInClusters;
//  138   (cId_t *)SampleApp_ClusterList,  //  uint8 *pAppInClusterList;
//  139   SAMPLEAPP_MAX_CLUSTERS,          //  uint8  AppNumInClusters;
//  140   (cId_t *)SampleApp_ClusterList   //  uint8 *pAppInClusterList;
//  141 };
//  142 
//  143 // This is the Endpoint/Interface description.  It is defined here, but
//  144 // filled-in in SampleApp_Init().  Another way to go would be to fill
//  145 // in the structure here and make it a "const" (in code space).  The
//  146 // way it's defined in this sample app it is define in RAM.

        RSEG XDATA_Z:XDATA:NOROOT(0)
        DATA8
//  147 endPointDesc_t SampleApp_epDesc;
SampleApp_epDesc:
        DS 6
        REQUIRE __INIT_XDATA_Z
//  148 
//  149 /*********************************************************************
//  150  * EXTERNAL VARIABLES
//  151  */
//  152 
//  153 /*********************************************************************
//  154  * EXTERNAL FUNCTIONS
//  155  */
//  156 
//  157 /*********************************************************************
//  158  * LOCAL VARIABLES
//  159  */

        RSEG XDATA_Z:XDATA:NOROOT(0)
        DATA8
//  160 uint8 SampleApp_TaskID;   // Task ID for internal task/event processing
SampleApp_TaskID:
        DS 1
        REQUIRE __INIT_XDATA_Z
//  161 						  // This variable will be received when
//  162 						  // SampleApp_Init() is called.

        RSEG XDATA_Z:XDATA:NOROOT(0)
        DATA8
//  163 devStates_t SampleApp_NwkState;
SampleApp_NwkState:
        DS 1
        REQUIRE __INIT_XDATA_Z
//  164 

        RSEG XDATA_Z:XDATA:NOROOT(0)
        DATA8
//  165 uint8 SampleApp_TransID;  // This is the unique message ID (counter)
SampleApp_TransID:
        DS 1
        REQUIRE __INIT_XDATA_Z
//  166 

        RSEG XDATA_Z:XDATA:NOROOT(0)
        DATA8
//  167 afAddrType_t SampleApp_Periodic_DstAddr;
SampleApp_Periodic_DstAddr:
        DS 12
        REQUIRE __INIT_XDATA_Z

        RSEG XDATA_Z:XDATA:NOROOT(0)
        DATA8
//  168 afAddrType_t SampleApp_Flash_DstAddr; //组播
SampleApp_Flash_DstAddr:
        DS 12
        REQUIRE __INIT_XDATA_Z
//  169 

        RSEG XDATA_Z:XDATA:NOROOT(0)
        DATA8
//  170 aps_Group_t SampleApp_Group; //组
SampleApp_Group:
        DS 18
        REQUIRE __INIT_XDATA_Z
//  171 

        RSEG XDATA_Z:XDATA:NOROOT(0)
        DATA8
//  172 uint8 SampleAppPeriodicCounter = 0;
SampleAppPeriodicCounter:
        DS 1
        REQUIRE __INIT_XDATA_Z

        RSEG XDATA_Z:XDATA:NOROOT(0)
        DATA8
//  173 uint8 SampleAppFlashCounter = 0;
SampleAppFlashCounter:
        DS 1
        REQUIRE __INIT_XDATA_Z
//  174 
//  175 /*********************************************************************
//  176  * LOCAL FUNCTIONS
//  177  */
//  178 void SampleApp_HandleKeys( uint8 shift, uint8 keys );
//  179 void SampleApp_MessageMSGCB( afIncomingMSGPacket_t *pckt );
//  180 void SampleApp_SendPeriodicMessage( void );
//  181 void SampleApp_SendFlashMessage( uint16 flashTime );
//  182 void SampleApp_SendGroupMessage(void); //网蜂组播通讯发送函数定义.
//  183 
//  184 /*********************************************************************
//  185  * NETWORK LAYER CALLBACKS
//  186  */
//  187 
//  188 /*********************************************************************
//  189  * PUBLIC FUNCTIONS
//  190  */
//  191 
//  192 /*********************************************************************
//  193  * @fn      SampleApp_Init
//  194  *
//  195  * @brief   Initialization function for the Generic App Task.
//  196  *          This is called during initialization and should contain
//  197  *          any application specific initialization (ie. hardware
//  198  *          initialization/setup, table initialization, power up
//  199  *          notificaiton ... ).
//  200  *
//  201  * @param   task_id - the ID assigned by OSAL.  This ID should be
//  202  *                    used to send messages and set timers.
//  203  *
//  204  * @return  none
//  205  */

        RSEG BANKED_CODE:HUGECODE:NOROOT(0)
//  206 void SampleApp_Init( uint8 task_id )
SampleApp_Init:
          CFI Block cfiBlock0 Using cfiCommon0
          CFI Function SampleApp_Init
        CODE
//  207 {
        FUNCALL SampleApp_Init, MT_UartInit
        LOCFRAME ISTACK, 0, STACK
        LOCFRAME PSTACK, 0, STACK
        LOCFRAME XSTACK, 11, STACK
        LOCFRAME IOVERLAY, 0, STATIC
        LOCFRAME DOVERLAY, 0, STATIC
        ARGFRAME ISTACK, 0, STACK
        ARGFRAME PSTACK, 0, STACK
        ARGFRAME XSTACK, 11, STACK
        ARGFRAME IOVERLAY, 0, STATIC
        ARGFRAME DOVERLAY, 0, STATIC
        FUNCALL SampleApp_Init, MT_UartRegisterTaskID
        LOCFRAME ISTACK, 0, STACK
        LOCFRAME PSTACK, 0, STACK
        LOCFRAME XSTACK, 11, STACK
        LOCFRAME IOVERLAY, 0, STATIC
        LOCFRAME DOVERLAY, 0, STATIC
        ARGFRAME ISTACK, 0, STACK
        ARGFRAME PSTACK, 0, STACK
        ARGFRAME XSTACK, 11, STACK
        ARGFRAME IOVERLAY, 0, STATIC
        ARGFRAME DOVERLAY, 0, STATIC
        FUNCALL SampleApp_Init, afRegister
        LOCFRAME ISTACK, 0, STACK
        LOCFRAME PSTACK, 0, STACK
        LOCFRAME XSTACK, 11, STACK
        LOCFRAME IOVERLAY, 0, STATIC
        LOCFRAME DOVERLAY, 0, STATIC
        ARGFRAME ISTACK, 0, STACK
        ARGFRAME PSTACK, 0, STACK
        ARGFRAME XSTACK, 11, STACK
        ARGFRAME IOVERLAY, 0, STATIC
        ARGFRAME DOVERLAY, 0, STATIC
        FUNCALL SampleApp_Init, RegisterForKeys
        LOCFRAME ISTACK, 0, STACK
        LOCFRAME PSTACK, 0, STACK
        LOCFRAME XSTACK, 11, STACK
        LOCFRAME IOVERLAY, 0, STATIC
        LOCFRAME DOVERLAY, 0, STATIC
        ARGFRAME ISTACK, 0, STACK
        ARGFRAME PSTACK, 0, STACK
        ARGFRAME XSTACK, 11, STACK
        ARGFRAME IOVERLAY, 0, STATIC
        ARGFRAME DOVERLAY, 0, STATIC
        FUNCALL SampleApp_Init, osal_memcpy
        LOCFRAME ISTACK, 0, STACK
        LOCFRAME PSTACK, 0, STACK
        LOCFRAME XSTACK, 14, STACK
        LOCFRAME IOVERLAY, 0, STATIC
        LOCFRAME DOVERLAY, 0, STATIC
        ARGFRAME ISTACK, 0, STACK
        ARGFRAME PSTACK, 0, STACK
        ARGFRAME XSTACK, 14, STACK
        ARGFRAME IOVERLAY, 0, STATIC
        ARGFRAME DOVERLAY, 0, STATIC
        FUNCALL SampleApp_Init, aps_AddGroup
        LOCFRAME ISTACK, 0, STACK
        LOCFRAME PSTACK, 0, STACK
        LOCFRAME XSTACK, 11, STACK
        LOCFRAME IOVERLAY, 0, STATIC
        LOCFRAME DOVERLAY, 0, STATIC
        ARGFRAME ISTACK, 0, STACK
        ARGFRAME PSTACK, 0, STACK
        ARGFRAME XSTACK, 11, STACK
        ARGFRAME IOVERLAY, 0, STATIC
        ARGFRAME DOVERLAY, 0, STATIC
        REQUIRE ?V0
        REQUIRE ?V1
        REQUIRE ?V2
        MOV       A,#-0xb
        LCALL     ?BANKED_ENTER_XDATA
          CFI DPH0 load(1, XDATA, add(CFA_XSP16, literal(-1)))
          CFI DPL0 load(1, XDATA, add(CFA_XSP16, literal(-2)))
          CFI ?BRET_EXT load(1, XDATA, add(CFA_XSP16, literal(-3)))
          CFI ?RET_HIGH load(1, XDATA, add(CFA_XSP16, literal(-4)))
          CFI ?RET_LOW load(1, XDATA, add(CFA_XSP16, literal(-5)))
          CFI R7 load(1, XDATA, add(CFA_XSP16, literal(-6)))
          CFI V2 load(1, XDATA, add(CFA_XSP16, literal(-7)))
          CFI V1 load(1, XDATA, add(CFA_XSP16, literal(-8)))
          CFI V0 load(1, XDATA, add(CFA_XSP16, literal(-9)))
          CFI VB load(1, XDATA, add(CFA_XSP16, literal(-10)))
          CFI R6 load(1, XDATA, add(CFA_XSP16, literal(-11)))
          CFI CFA_SP SP+0
          CFI CFA_XSP16 add(XSP16, 11)
        ; Saved register size: 11
        ; Auto size: 0
        MOV       A,R1
        MOV       R6,A
//  208   SampleApp_TaskID = task_id;
        MOV       DPTR,#SampleApp_TaskID
        MOVX      @DPTR,A
//  209   SampleApp_NwkState = DEV_INIT;
        MOV       DPTR,#SampleApp_NwkState
        MOV       A,#0x1
        MOVX      @DPTR,A
//  210   SampleApp_TransID = 0;
        MOV       DPTR,#SampleApp_TransID
        CLR       A
        MOVX      @DPTR,A
//  211   
//  212   MT_UartInit();//串口初始化
        ; Setup parameters for call to function MT_UartInit
        LCALL     `??MT_UartInit::?relay`; Banked call to: MT_UartInit
//  213   MT_UartRegisterTaskID(task_id);//登记任务号
        ; Setup parameters for call to function MT_UartRegisterTaskID
        MOV       A,R6
        MOV       R1,A
        LCALL     `??MT_UartRegisterTaskID::?relay`; Banked call to: MT_UartRegisterTaskID
//  214   
//  215   // Device hardware initialization can be added here or in main() (Zmain.c).
//  216   // If the hardware is application specific - add it here.
//  217   // If the hardware is other parts of the device add it in main().
//  218 
//  219  #if defined ( BUILD_ALL_DEVICES )
//  220   // The "Demo" target is setup to have BUILD_ALL_DEVICES and HOLD_AUTO_START
//  221   // We are looking at a jumper (defined in SampleAppHw.c) to be jumpered
//  222   // together - if they are - we will start up a coordinator. Otherwise,
//  223   // the device will start as a router.
//  224   if ( readCoordinatorJumper() )
//  225 	zgDeviceLogicalType = ZG_DEVICETYPE_COORDINATOR;
//  226   else
//  227 	zgDeviceLogicalType = ZG_DEVICETYPE_ROUTER;
//  228 #endif // BUILD_ALL_DEVICES
//  229 
//  230 #if defined ( HOLD_AUTO_START )
//  231   // HOLD_AUTO_START is a compile option that will surpress ZDApp
//  232   //  from starting the device and wait for the application to
//  233   //  start the device.
//  234   ZDOInitDevice(0);
//  235 #endif
//  236 
//  237   // Setup for the periodic message's destination address
//  238   // Broadcast to everyone
//  239   SampleApp_Periodic_DstAddr.addrMode = (afAddrMode_t)AddrBroadcast;
        MOV       DPTR,#SampleApp_Periodic_DstAddr + 8
        MOV       A,#0xf
        MOVX      @DPTR,A
//  240   SampleApp_Periodic_DstAddr.endPoint = SAMPLEAPP_ENDPOINT;
        INC       DPTR
        MOV       A,#0x14
        MOVX      @DPTR,A
//  241   SampleApp_Periodic_DstAddr.addr.shortAddr = 0xFFFF;
        MOV       DPTR,#SampleApp_Periodic_DstAddr
        MOV       A,#-0x1
        MOVX      @DPTR,A
        INC       DPTR
        MOVX      @DPTR,A
//  242 
//  243   // Setup for the flash command's destination address - Group 1
//  244   SampleApp_Flash_DstAddr.addrMode = (afAddrMode_t)afAddrGroup;
        MOV       DPTR,#SampleApp_Flash_DstAddr + 8
        MOV       A,#0x1
        MOVX      @DPTR,A
//  245   SampleApp_Flash_DstAddr.endPoint = SAMPLEAPP_ENDPOINT;
        INC       DPTR
        MOV       A,#0x14
        MOVX      @DPTR,A
//  246   SampleApp_Flash_DstAddr.addr.shortAddr = SAMPLEAPP_FLASH_GROUP;
        MOV       DPTR,#SampleApp_Flash_DstAddr
        LCALL     ?Subroutine6 & 0xFFFF
//  247   
//  248 
//  249   // Fill out the endpoint description.
//  250   SampleApp_epDesc.endPoint = SAMPLEAPP_ENDPOINT;
??CrossCallReturnLabel_70:
        MOV       DPTR,#SampleApp_epDesc
        MOV       A,#0x14
        MOVX      @DPTR,A
//  251   SampleApp_epDesc.task_id = &SampleApp_TaskID;
        INC       DPTR
        MOV       A,#SampleApp_TaskID & 0xff
        MOVX      @DPTR,A
        INC       DPTR
        MOV       A,#(SampleApp_TaskID >> 8) & 0xff
        MOVX      @DPTR,A
//  252   SampleApp_epDesc.simpleDesc
//  253 			= (SimpleDescriptionFormat_t *)&SampleApp_SimpleDesc;
        INC       DPTR
        MOV       A,#SampleApp_SimpleDesc & 0xff
        MOVX      @DPTR,A
        INC       DPTR
        MOV       A,#(SampleApp_SimpleDesc >> 8) & 0xff
        LCALL     ??Subroutine29_0 & 0xFFFF
//  254   SampleApp_epDesc.latencyReq = noLatencyReqs;
//  255 
//  256   // Register the endpoint description with the AF
//  257   afRegister( &SampleApp_epDesc );
??CrossCallReturnLabel_66:
        ; Setup parameters for call to function afRegister
        MOV       R2,#SampleApp_epDesc & 0xff
        MOV       R3,#(SampleApp_epDesc >> 8) & 0xff
        LCALL     `??afRegister::?relay`; Banked call to: afRegister
//  258 
//  259   // Register for all key events - This app will handle all key events
//  260   RegisterForKeys( SampleApp_TaskID );
        ; Setup parameters for call to function RegisterForKeys
        MOV       DPTR,#SampleApp_TaskID
        MOVX      A,@DPTR
        MOV       R1,A
        LCALL     `??RegisterForKeys::?relay`; Banked call to: RegisterForKeys
//  261 
//  262   // By default, all devices start out in Group 1
//  263   SampleApp_Group.ID = SAMPLEAPP_FLASH_GROUP;//0x0001;
        MOV       DPTR,#SampleApp_Group
        LCALL     ?Subroutine6 & 0xFFFF
//  264   osal_memcpy( SampleApp_Group.name, "Group 1", 7  );
??CrossCallReturnLabel_71:
        ; Setup parameters for call to function osal_memcpy
        MOV       ?V0,#`?<Constant "Group 1">` & 0xff
        MOV       ?V1,#(`?<Constant "Group 1">` >> 8) & 0xff
        MOV       ?V2,A
        MOV       R0,#?V0
        LCALL     ?PUSH_XSTACK_I_THREE
          CFI CFA_XSP16 add(XSP16, 14)
        MOV       R4,#0x7
        MOV       R5,#0x0
        MOV       R2,#(SampleApp_Group + 2) & 0xff
        MOV       R3,#((SampleApp_Group + 2) >> 8) & 0xff
        LCALL     `??osal_memcpy::?relay`; Banked call to: osal_memcpy
        MOV       A,#0x3
        LCALL     ?DEALLOC_XSTACK8
          CFI CFA_XSP16 add(XSP16, 11)
//  265   aps_AddGroup( SAMPLEAPP_ENDPOINT, &SampleApp_Group );
        ; Setup parameters for call to function aps_AddGroup
        MOV       R2,#SampleApp_Group & 0xff
        MOV       R3,#(SampleApp_Group >> 8) & 0xff
        MOV       R1,#0x14
        LCALL     `??aps_AddGroup::?relay`; Banked call to: aps_AddGroup
//  266   
//  267 
//  268 #if defined ( LCD_SUPPORTED )
//  269   HalLcdWriteString( "SampleApp", HAL_LCD_LINE_1 );
//  270 #endif
//  271 }
        MOV       R7,#0x3
        LJMP      ?BANKED_LEAVE_XDATA
          CFI EndBlock cfiBlock0
//  272 
//  273 /*********************************************************************
//  274  * @fn      SampleApp_ProcessEvent
//  275  *
//  276  * @brief   Generic Application Task event processor.  This function
//  277  *          is called to process all events for the task.  Events
//  278  *          include timers, messages and any other user defined events.
//  279  *
//  280  * @param   task_id  - The OSAL assigned task ID.
//  281  * @param   events - events to process.  This is a bit map and can
//  282  *                   contain more than one event.
//  283  *
//  284  * @return  none
//  285  */

        RSEG BANKED_CODE:HUGECODE:NOROOT(0)
//  286 uint16 SampleApp_ProcessEvent( uint8 task_id, uint16 events ) {
SampleApp_ProcessEvent:
          CFI Block cfiBlock1 Using cfiCommon0
          CFI Function SampleApp_ProcessEvent
        CODE
        FUNCALL SampleApp_ProcessEvent, osal_msg_receive
        LOCFRAME ISTACK, 0, STACK
        LOCFRAME PSTACK, 0, STACK
        LOCFRAME XSTACK, 175, STACK
        LOCFRAME IOVERLAY, 0, STATIC
        LOCFRAME DOVERLAY, 0, STATIC
        ARGFRAME ISTACK, 0, STACK
        ARGFRAME PSTACK, 0, STACK
        ARGFRAME XSTACK, 175, STACK
        ARGFRAME IOVERLAY, 0, STATIC
        ARGFRAME DOVERLAY, 0, STATIC
        FUNCALL SampleApp_ProcessEvent, osal_set_event
        LOCFRAME ISTACK, 0, STACK
        LOCFRAME PSTACK, 0, STACK
        LOCFRAME XSTACK, 175, STACK
        LOCFRAME IOVERLAY, 0, STATIC
        LOCFRAME DOVERLAY, 0, STATIC
        ARGFRAME ISTACK, 0, STACK
        ARGFRAME PSTACK, 0, STACK
        ARGFRAME XSTACK, 175, STACK
        ARGFRAME IOVERLAY, 0, STATIC
        ARGFRAME DOVERLAY, 0, STATIC
        FUNCALL SampleApp_ProcessEvent, osal_msg_deallocate
        LOCFRAME ISTACK, 0, STACK
        LOCFRAME PSTACK, 0, STACK
        LOCFRAME XSTACK, 175, STACK
        LOCFRAME IOVERLAY, 0, STATIC
        LOCFRAME DOVERLAY, 0, STATIC
        ARGFRAME ISTACK, 0, STACK
        ARGFRAME PSTACK, 0, STACK
        ARGFRAME XSTACK, 175, STACK
        ARGFRAME IOVERLAY, 0, STATIC
        ARGFRAME DOVERLAY, 0, STATIC
        FUNCALL SampleApp_ProcessEvent, osal_msg_receive
        LOCFRAME ISTACK, 0, STACK
        LOCFRAME PSTACK, 0, STACK
        LOCFRAME XSTACK, 175, STACK
        LOCFRAME IOVERLAY, 0, STATIC
        LOCFRAME DOVERLAY, 0, STATIC
        ARGFRAME ISTACK, 0, STACK
        ARGFRAME PSTACK, 0, STACK
        ARGFRAME XSTACK, 175, STACK
        ARGFRAME IOVERLAY, 0, STATIC
        ARGFRAME DOVERLAY, 0, STATIC
        FUNCALL SampleApp_ProcessEvent, SampleApp_HandleKeys
        LOCFRAME ISTACK, 0, STACK
        LOCFRAME PSTACK, 0, STACK
        LOCFRAME XSTACK, 175, STACK
        LOCFRAME IOVERLAY, 0, STATIC
        LOCFRAME DOVERLAY, 0, STATIC
        ARGFRAME ISTACK, 0, STACK
        ARGFRAME PSTACK, 0, STACK
        ARGFRAME XSTACK, 175, STACK
        ARGFRAME IOVERLAY, 0, STATIC
        ARGFRAME DOVERLAY, 0, STATIC
        FUNCALL SampleApp_ProcessEvent, SampleApp_MessageMSGCB
        LOCFRAME ISTACK, 0, STACK
        LOCFRAME PSTACK, 0, STACK
        LOCFRAME XSTACK, 175, STACK
        LOCFRAME IOVERLAY, 0, STATIC
        LOCFRAME DOVERLAY, 0, STATIC
        ARGFRAME ISTACK, 0, STACK
        ARGFRAME PSTACK, 0, STACK
        ARGFRAME XSTACK, 175, STACK
        ARGFRAME IOVERLAY, 0, STATIC
        ARGFRAME DOVERLAY, 0, STATIC
        FUNCALL SampleApp_ProcessEvent, HalUARTOpen
        LOCFRAME ISTACK, 0, STACK
        LOCFRAME PSTACK, 0, STACK
        LOCFRAME XSTACK, 175, STACK
        LOCFRAME IOVERLAY, 0, STATIC
        LOCFRAME DOVERLAY, 0, STATIC
        ARGFRAME ISTACK, 0, STACK
        ARGFRAME PSTACK, 0, STACK
        ARGFRAME XSTACK, 175, STACK
        ARGFRAME IOVERLAY, 0, STATIC
        ARGFRAME DOVERLAY, 0, STATIC
        FUNCALL SampleApp_ProcessEvent, _UARTSend
        LOCFRAME ISTACK, 0, STACK
        LOCFRAME PSTACK, 0, STACK
        LOCFRAME XSTACK, 175, STACK
        LOCFRAME IOVERLAY, 0, STATIC
        LOCFRAME DOVERLAY, 0, STATIC
        ARGFRAME ISTACK, 0, STACK
        ARGFRAME PSTACK, 0, STACK
        ARGFRAME XSTACK, 175, STACK
        ARGFRAME IOVERLAY, 0, STATIC
        ARGFRAME DOVERLAY, 0, STATIC
        FUNCALL SampleApp_ProcessEvent, _UARTSend
        LOCFRAME ISTACK, 0, STACK
        LOCFRAME PSTACK, 0, STACK
        LOCFRAME XSTACK, 175, STACK
        LOCFRAME IOVERLAY, 0, STATIC
        LOCFRAME DOVERLAY, 0, STATIC
        ARGFRAME ISTACK, 0, STACK
        ARGFRAME PSTACK, 0, STACK
        ARGFRAME XSTACK, 175, STACK
        ARGFRAME IOVERLAY, 0, STATIC
        ARGFRAME DOVERLAY, 0, STATIC
        FUNCALL SampleApp_ProcessEvent, osal_set_event
        LOCFRAME ISTACK, 0, STACK
        LOCFRAME PSTACK, 0, STACK
        LOCFRAME XSTACK, 175, STACK
        LOCFRAME IOVERLAY, 0, STATIC
        LOCFRAME DOVERLAY, 0, STATIC
        ARGFRAME ISTACK, 0, STACK
        ARGFRAME PSTACK, 0, STACK
        ARGFRAME XSTACK, 175, STACK
        ARGFRAME IOVERLAY, 0, STATIC
        ARGFRAME DOVERLAY, 0, STATIC
        FUNCALL SampleApp_ProcessEvent, _UARTSend
        LOCFRAME ISTACK, 0, STACK
        LOCFRAME PSTACK, 0, STACK
        LOCFRAME XSTACK, 175, STACK
        LOCFRAME IOVERLAY, 0, STATIC
        LOCFRAME DOVERLAY, 0, STATIC
        ARGFRAME ISTACK, 0, STACK
        ARGFRAME PSTACK, 0, STACK
        ARGFRAME XSTACK, 175, STACK
        ARGFRAME IOVERLAY, 0, STATIC
        ARGFRAME DOVERLAY, 0, STATIC
        FUNCALL SampleApp_ProcessEvent, osal_set_event
        LOCFRAME ISTACK, 0, STACK
        LOCFRAME PSTACK, 0, STACK
        LOCFRAME XSTACK, 175, STACK
        LOCFRAME IOVERLAY, 0, STATIC
        LOCFRAME DOVERLAY, 0, STATIC
        ARGFRAME ISTACK, 0, STACK
        ARGFRAME PSTACK, 0, STACK
        ARGFRAME XSTACK, 175, STACK
        ARGFRAME IOVERLAY, 0, STATIC
        ARGFRAME DOVERLAY, 0, STATIC
        FUNCALL SampleApp_ProcessEvent, exit_send
        LOCFRAME ISTACK, 0, STACK
        LOCFRAME PSTACK, 0, STACK
        LOCFRAME XSTACK, 175, STACK
        LOCFRAME IOVERLAY, 0, STATIC
        LOCFRAME DOVERLAY, 0, STATIC
        ARGFRAME ISTACK, 0, STACK
        ARGFRAME PSTACK, 0, STACK
        ARGFRAME XSTACK, 175, STACK
        ARGFRAME IOVERLAY, 0, STATIC
        ARGFRAME DOVERLAY, 0, STATIC
        FUNCALL SampleApp_ProcessEvent, _UARTRead
        LOCFRAME ISTACK, 0, STACK
        LOCFRAME PSTACK, 0, STACK
        LOCFRAME XSTACK, 175, STACK
        LOCFRAME IOVERLAY, 0, STATIC
        LOCFRAME DOVERLAY, 0, STATIC
        ARGFRAME ISTACK, 0, STACK
        ARGFRAME PSTACK, 0, STACK
        ARGFRAME XSTACK, 175, STACK
        ARGFRAME IOVERLAY, 0, STATIC
        ARGFRAME DOVERLAY, 0, STATIC
        FUNCALL SampleApp_ProcessEvent, _UARTSend
        LOCFRAME ISTACK, 0, STACK
        LOCFRAME PSTACK, 0, STACK
        LOCFRAME XSTACK, 175, STACK
        LOCFRAME IOVERLAY, 0, STATIC
        LOCFRAME DOVERLAY, 0, STATIC
        ARGFRAME ISTACK, 0, STACK
        ARGFRAME PSTACK, 0, STACK
        ARGFRAME XSTACK, 175, STACK
        ARGFRAME IOVERLAY, 0, STATIC
        ARGFRAME DOVERLAY, 0, STATIC
        FUNCALL SampleApp_ProcessEvent, _UARTSend
        LOCFRAME ISTACK, 0, STACK
        LOCFRAME PSTACK, 0, STACK
        LOCFRAME XSTACK, 175, STACK
        LOCFRAME IOVERLAY, 0, STATIC
        LOCFRAME DOVERLAY, 0, STATIC
        ARGFRAME ISTACK, 0, STACK
        ARGFRAME PSTACK, 0, STACK
        ARGFRAME XSTACK, 175, STACK
        ARGFRAME IOVERLAY, 0, STATIC
        ARGFRAME DOVERLAY, 0, STATIC
        FUNCALL SampleApp_ProcessEvent, wait_for
        LOCFRAME ISTACK, 0, STACK
        LOCFRAME PSTACK, 0, STACK
        LOCFRAME XSTACK, 177, STACK
        LOCFRAME IOVERLAY, 0, STATIC
        LOCFRAME DOVERLAY, 0, STATIC
        ARGFRAME ISTACK, 0, STACK
        ARGFRAME PSTACK, 0, STACK
        ARGFRAME XSTACK, 177, STACK
        ARGFRAME IOVERLAY, 0, STATIC
        ARGFRAME DOVERLAY, 0, STATIC
        FUNCALL SampleApp_ProcessEvent, _UARTSend
        LOCFRAME ISTACK, 0, STACK
        LOCFRAME PSTACK, 0, STACK
        LOCFRAME XSTACK, 175, STACK
        LOCFRAME IOVERLAY, 0, STATIC
        LOCFRAME DOVERLAY, 0, STATIC
        ARGFRAME ISTACK, 0, STACK
        ARGFRAME PSTACK, 0, STACK
        ARGFRAME XSTACK, 175, STACK
        ARGFRAME IOVERLAY, 0, STATIC
        ARGFRAME DOVERLAY, 0, STATIC
        FUNCALL SampleApp_ProcessEvent, _UARTSend
        LOCFRAME ISTACK, 0, STACK
        LOCFRAME PSTACK, 0, STACK
        LOCFRAME XSTACK, 175, STACK
        LOCFRAME IOVERLAY, 0, STATIC
        LOCFRAME DOVERLAY, 0, STATIC
        ARGFRAME ISTACK, 0, STACK
        ARGFRAME PSTACK, 0, STACK
        ARGFRAME XSTACK, 175, STACK
        ARGFRAME IOVERLAY, 0, STATIC
        ARGFRAME DOVERLAY, 0, STATIC
        FUNCALL SampleApp_ProcessEvent, wait_for
        LOCFRAME ISTACK, 0, STACK
        LOCFRAME PSTACK, 0, STACK
        LOCFRAME XSTACK, 177, STACK
        LOCFRAME IOVERLAY, 0, STATIC
        LOCFRAME DOVERLAY, 0, STATIC
        ARGFRAME ISTACK, 0, STACK
        ARGFRAME PSTACK, 0, STACK
        ARGFRAME XSTACK, 177, STACK
        ARGFRAME IOVERLAY, 0, STATIC
        ARGFRAME DOVERLAY, 0, STATIC
        FUNCALL SampleApp_ProcessEvent, _UARTSend
        LOCFRAME ISTACK, 0, STACK
        LOCFRAME PSTACK, 0, STACK
        LOCFRAME XSTACK, 175, STACK
        LOCFRAME IOVERLAY, 0, STATIC
        LOCFRAME DOVERLAY, 0, STATIC
        ARGFRAME ISTACK, 0, STACK
        ARGFRAME PSTACK, 0, STACK
        ARGFRAME XSTACK, 175, STACK
        ARGFRAME IOVERLAY, 0, STATIC
        ARGFRAME DOVERLAY, 0, STATIC
        FUNCALL SampleApp_ProcessEvent, _UARTSend
        LOCFRAME ISTACK, 0, STACK
        LOCFRAME PSTACK, 0, STACK
        LOCFRAME XSTACK, 175, STACK
        LOCFRAME IOVERLAY, 0, STATIC
        LOCFRAME DOVERLAY, 0, STATIC
        ARGFRAME ISTACK, 0, STACK
        ARGFRAME PSTACK, 0, STACK
        ARGFRAME XSTACK, 175, STACK
        ARGFRAME IOVERLAY, 0, STATIC
        ARGFRAME DOVERLAY, 0, STATIC
        FUNCALL SampleApp_ProcessEvent, wait_for
        LOCFRAME ISTACK, 0, STACK
        LOCFRAME PSTACK, 0, STACK
        LOCFRAME XSTACK, 177, STACK
        LOCFRAME IOVERLAY, 0, STATIC
        LOCFRAME DOVERLAY, 0, STATIC
        ARGFRAME ISTACK, 0, STACK
        ARGFRAME PSTACK, 0, STACK
        ARGFRAME XSTACK, 177, STACK
        ARGFRAME IOVERLAY, 0, STATIC
        ARGFRAME DOVERLAY, 0, STATIC
        FUNCALL SampleApp_ProcessEvent, _UARTSend
        LOCFRAME ISTACK, 0, STACK
        LOCFRAME PSTACK, 0, STACK
        LOCFRAME XSTACK, 175, STACK
        LOCFRAME IOVERLAY, 0, STATIC
        LOCFRAME DOVERLAY, 0, STATIC
        ARGFRAME ISTACK, 0, STACK
        ARGFRAME PSTACK, 0, STACK
        ARGFRAME XSTACK, 175, STACK
        ARGFRAME IOVERLAY, 0, STATIC
        ARGFRAME DOVERLAY, 0, STATIC
        FUNCALL SampleApp_ProcessEvent, _UARTSend
        LOCFRAME ISTACK, 0, STACK
        LOCFRAME PSTACK, 0, STACK
        LOCFRAME XSTACK, 175, STACK
        LOCFRAME IOVERLAY, 0, STATIC
        LOCFRAME DOVERLAY, 0, STATIC
        ARGFRAME ISTACK, 0, STACK
        ARGFRAME PSTACK, 0, STACK
        ARGFRAME XSTACK, 175, STACK
        ARGFRAME IOVERLAY, 0, STATIC
        ARGFRAME DOVERLAY, 0, STATIC
        FUNCALL SampleApp_ProcessEvent, wait_for
        LOCFRAME ISTACK, 0, STACK
        LOCFRAME PSTACK, 0, STACK
        LOCFRAME XSTACK, 177, STACK
        LOCFRAME IOVERLAY, 0, STATIC
        LOCFRAME DOVERLAY, 0, STATIC
        ARGFRAME ISTACK, 0, STACK
        ARGFRAME PSTACK, 0, STACK
        ARGFRAME XSTACK, 177, STACK
        ARGFRAME IOVERLAY, 0, STATIC
        ARGFRAME DOVERLAY, 0, STATIC
        FUNCALL SampleApp_ProcessEvent, _UARTSend
        LOCFRAME ISTACK, 0, STACK
        LOCFRAME PSTACK, 0, STACK
        LOCFRAME XSTACK, 175, STACK
        LOCFRAME IOVERLAY, 0, STATIC
        LOCFRAME DOVERLAY, 0, STATIC
        ARGFRAME ISTACK, 0, STACK
        ARGFRAME PSTACK, 0, STACK
        ARGFRAME XSTACK, 175, STACK
        ARGFRAME IOVERLAY, 0, STATIC
        ARGFRAME DOVERLAY, 0, STATIC
        FUNCALL SampleApp_ProcessEvent, _UARTSend
        LOCFRAME ISTACK, 0, STACK
        LOCFRAME PSTACK, 0, STACK
        LOCFRAME XSTACK, 175, STACK
        LOCFRAME IOVERLAY, 0, STATIC
        LOCFRAME DOVERLAY, 0, STATIC
        ARGFRAME ISTACK, 0, STACK
        ARGFRAME PSTACK, 0, STACK
        ARGFRAME XSTACK, 175, STACK
        ARGFRAME IOVERLAY, 0, STATIC
        ARGFRAME DOVERLAY, 0, STATIC
        FUNCALL SampleApp_ProcessEvent, wait_for
        LOCFRAME ISTACK, 0, STACK
        LOCFRAME PSTACK, 0, STACK
        LOCFRAME XSTACK, 177, STACK
        LOCFRAME IOVERLAY, 0, STATIC
        LOCFRAME DOVERLAY, 0, STATIC
        ARGFRAME ISTACK, 0, STACK
        ARGFRAME PSTACK, 0, STACK
        ARGFRAME XSTACK, 177, STACK
        ARGFRAME IOVERLAY, 0, STATIC
        ARGFRAME DOVERLAY, 0, STATIC
        FUNCALL SampleApp_ProcessEvent, _UARTSend
        LOCFRAME ISTACK, 0, STACK
        LOCFRAME PSTACK, 0, STACK
        LOCFRAME XSTACK, 175, STACK
        LOCFRAME IOVERLAY, 0, STATIC
        LOCFRAME DOVERLAY, 0, STATIC
        ARGFRAME ISTACK, 0, STACK
        ARGFRAME PSTACK, 0, STACK
        ARGFRAME XSTACK, 175, STACK
        ARGFRAME IOVERLAY, 0, STATIC
        ARGFRAME DOVERLAY, 0, STATIC
        FUNCALL SampleApp_ProcessEvent, _UARTSend
        LOCFRAME ISTACK, 0, STACK
        LOCFRAME PSTACK, 0, STACK
        LOCFRAME XSTACK, 175, STACK
        LOCFRAME IOVERLAY, 0, STATIC
        LOCFRAME DOVERLAY, 0, STATIC
        ARGFRAME ISTACK, 0, STACK
        ARGFRAME PSTACK, 0, STACK
        ARGFRAME XSTACK, 175, STACK
        ARGFRAME IOVERLAY, 0, STATIC
        ARGFRAME DOVERLAY, 0, STATIC
        FUNCALL SampleApp_ProcessEvent, wait_for
        LOCFRAME ISTACK, 0, STACK
        LOCFRAME PSTACK, 0, STACK
        LOCFRAME XSTACK, 177, STACK
        LOCFRAME IOVERLAY, 0, STATIC
        LOCFRAME DOVERLAY, 0, STATIC
        ARGFRAME ISTACK, 0, STACK
        ARGFRAME PSTACK, 0, STACK
        ARGFRAME XSTACK, 177, STACK
        ARGFRAME IOVERLAY, 0, STATIC
        ARGFRAME DOVERLAY, 0, STATIC
        FUNCALL SampleApp_ProcessEvent, wait_for
        LOCFRAME ISTACK, 0, STACK
        LOCFRAME PSTACK, 0, STACK
        LOCFRAME XSTACK, 177, STACK
        LOCFRAME IOVERLAY, 0, STATIC
        LOCFRAME DOVERLAY, 0, STATIC
        ARGFRAME ISTACK, 0, STACK
        ARGFRAME PSTACK, 0, STACK
        ARGFRAME XSTACK, 177, STACK
        ARGFRAME IOVERLAY, 0, STATIC
        ARGFRAME DOVERLAY, 0, STATIC
        FUNCALL SampleApp_ProcessEvent, WiFiSend
        LOCFRAME ISTACK, 0, STACK
        LOCFRAME PSTACK, 0, STACK
        LOCFRAME XSTACK, 175, STACK
        LOCFRAME IOVERLAY, 0, STATIC
        LOCFRAME DOVERLAY, 0, STATIC
        ARGFRAME ISTACK, 0, STACK
        ARGFRAME PSTACK, 0, STACK
        ARGFRAME XSTACK, 175, STACK
        ARGFRAME IOVERLAY, 0, STATIC
        ARGFRAME DOVERLAY, 0, STATIC
        FUNCALL SampleApp_ProcessEvent, WiFiRecv
        LOCFRAME ISTACK, 0, STACK
        LOCFRAME PSTACK, 0, STACK
        LOCFRAME XSTACK, 175, STACK
        LOCFRAME IOVERLAY, 0, STATIC
        LOCFRAME DOVERLAY, 0, STATIC
        ARGFRAME ISTACK, 0, STACK
        ARGFRAME PSTACK, 0, STACK
        ARGFRAME XSTACK, 175, STACK
        ARGFRAME IOVERLAY, 0, STATIC
        ARGFRAME DOVERLAY, 0, STATIC
        FUNCALL SampleApp_ProcessEvent, osal_memcmp
        LOCFRAME ISTACK, 0, STACK
        LOCFRAME PSTACK, 0, STACK
        LOCFRAME XSTACK, 178, STACK
        LOCFRAME IOVERLAY, 0, STATIC
        LOCFRAME DOVERLAY, 0, STATIC
        ARGFRAME ISTACK, 0, STACK
        ARGFRAME PSTACK, 0, STACK
        ARGFRAME XSTACK, 178, STACK
        ARGFRAME IOVERLAY, 0, STATIC
        ARGFRAME DOVERLAY, 0, STATIC
        FUNCALL SampleApp_ProcessEvent, WiFiSend
        LOCFRAME ISTACK, 0, STACK
        LOCFRAME PSTACK, 0, STACK
        LOCFRAME XSTACK, 175, STACK
        LOCFRAME IOVERLAY, 0, STATIC
        LOCFRAME DOVERLAY, 0, STATIC
        ARGFRAME ISTACK, 0, STACK
        ARGFRAME PSTACK, 0, STACK
        ARGFRAME XSTACK, 175, STACK
        ARGFRAME IOVERLAY, 0, STATIC
        ARGFRAME DOVERLAY, 0, STATIC
        FUNCALL SampleApp_ProcessEvent, osal_memcmp
        LOCFRAME ISTACK, 0, STACK
        LOCFRAME PSTACK, 0, STACK
        LOCFRAME XSTACK, 178, STACK
        LOCFRAME IOVERLAY, 0, STATIC
        LOCFRAME DOVERLAY, 0, STATIC
        ARGFRAME ISTACK, 0, STACK
        ARGFRAME PSTACK, 0, STACK
        ARGFRAME XSTACK, 178, STACK
        ARGFRAME IOVERLAY, 0, STATIC
        ARGFRAME DOVERLAY, 0, STATIC
        FUNCALL SampleApp_ProcessEvent, WiFiSend
        LOCFRAME ISTACK, 0, STACK
        LOCFRAME PSTACK, 0, STACK
        LOCFRAME XSTACK, 175, STACK
        LOCFRAME IOVERLAY, 0, STATIC
        LOCFRAME DOVERLAY, 0, STATIC
        ARGFRAME ISTACK, 0, STACK
        ARGFRAME PSTACK, 0, STACK
        ARGFRAME XSTACK, 175, STACK
        ARGFRAME IOVERLAY, 0, STATIC
        ARGFRAME DOVERLAY, 0, STATIC
        FUNCALL SampleApp_ProcessEvent, osal_memcmp
        LOCFRAME ISTACK, 0, STACK
        LOCFRAME PSTACK, 0, STACK
        LOCFRAME XSTACK, 178, STACK
        LOCFRAME IOVERLAY, 0, STATIC
        LOCFRAME DOVERLAY, 0, STATIC
        ARGFRAME ISTACK, 0, STACK
        ARGFRAME PSTACK, 0, STACK
        ARGFRAME XSTACK, 178, STACK
        ARGFRAME IOVERLAY, 0, STATIC
        ARGFRAME DOVERLAY, 0, STATIC
        FUNCALL SampleApp_ProcessEvent, WiFiSend
        LOCFRAME ISTACK, 0, STACK
        LOCFRAME PSTACK, 0, STACK
        LOCFRAME XSTACK, 175, STACK
        LOCFRAME IOVERLAY, 0, STATIC
        LOCFRAME DOVERLAY, 0, STATIC
        ARGFRAME ISTACK, 0, STACK
        ARGFRAME PSTACK, 0, STACK
        ARGFRAME XSTACK, 175, STACK
        ARGFRAME IOVERLAY, 0, STATIC
        ARGFRAME DOVERLAY, 0, STATIC
        FUNCALL SampleApp_ProcessEvent, osal_memcmp
        LOCFRAME ISTACK, 0, STACK
        LOCFRAME PSTACK, 0, STACK
        LOCFRAME XSTACK, 178, STACK
        LOCFRAME IOVERLAY, 0, STATIC
        LOCFRAME DOVERLAY, 0, STATIC
        ARGFRAME ISTACK, 0, STACK
        ARGFRAME PSTACK, 0, STACK
        ARGFRAME XSTACK, 178, STACK
        ARGFRAME IOVERLAY, 0, STATIC
        ARGFRAME DOVERLAY, 0, STATIC
        FUNCALL SampleApp_ProcessEvent, WiFiSend
        LOCFRAME ISTACK, 0, STACK
        LOCFRAME PSTACK, 0, STACK
        LOCFRAME XSTACK, 175, STACK
        LOCFRAME IOVERLAY, 0, STATIC
        LOCFRAME DOVERLAY, 0, STATIC
        ARGFRAME ISTACK, 0, STACK
        ARGFRAME PSTACK, 0, STACK
        ARGFRAME XSTACK, 175, STACK
        ARGFRAME IOVERLAY, 0, STATIC
        ARGFRAME DOVERLAY, 0, STATIC
        FUNCALL SampleApp_ProcessEvent, osal_nv_item_init
        LOCFRAME ISTACK, 0, STACK
        LOCFRAME PSTACK, 0, STACK
        LOCFRAME XSTACK, 177, STACK
        LOCFRAME IOVERLAY, 0, STATIC
        LOCFRAME DOVERLAY, 0, STATIC
        ARGFRAME ISTACK, 0, STACK
        ARGFRAME PSTACK, 0, STACK
        ARGFRAME XSTACK, 177, STACK
        ARGFRAME IOVERLAY, 0, STATIC
        ARGFRAME DOVERLAY, 0, STATIC
        FUNCALL SampleApp_ProcessEvent, osal_nv_write
        LOCFRAME ISTACK, 0, STACK
        LOCFRAME PSTACK, 0, STACK
        LOCFRAME XSTACK, 179, STACK
        LOCFRAME IOVERLAY, 0, STATIC
        LOCFRAME DOVERLAY, 0, STATIC
        ARGFRAME ISTACK, 0, STACK
        ARGFRAME PSTACK, 0, STACK
        ARGFRAME XSTACK, 179, STACK
        ARGFRAME IOVERLAY, 0, STATIC
        ARGFRAME DOVERLAY, 0, STATIC
        FUNCALL SampleApp_ProcessEvent, HalUARTWrite
        LOCFRAME ISTACK, 0, STACK
        LOCFRAME PSTACK, 0, STACK
        LOCFRAME XSTACK, 175, STACK
        LOCFRAME IOVERLAY, 0, STATIC
        LOCFRAME DOVERLAY, 0, STATIC
        ARGFRAME ISTACK, 0, STACK
        ARGFRAME PSTACK, 0, STACK
        ARGFRAME XSTACK, 175, STACK
        ARGFRAME IOVERLAY, 0, STATIC
        ARGFRAME DOVERLAY, 0, STATIC
        FUNCALL SampleApp_ProcessEvent, osal_memcmp
        LOCFRAME ISTACK, 0, STACK
        LOCFRAME PSTACK, 0, STACK
        LOCFRAME XSTACK, 178, STACK
        LOCFRAME IOVERLAY, 0, STATIC
        LOCFRAME DOVERLAY, 0, STATIC
        ARGFRAME ISTACK, 0, STACK
        ARGFRAME PSTACK, 0, STACK
        ARGFRAME XSTACK, 178, STACK
        ARGFRAME IOVERLAY, 0, STATIC
        ARGFRAME DOVERLAY, 0, STATIC
        FUNCALL SampleApp_ProcessEvent, WiFiSend
        LOCFRAME ISTACK, 0, STACK
        LOCFRAME PSTACK, 0, STACK
        LOCFRAME XSTACK, 175, STACK
        LOCFRAME IOVERLAY, 0, STATIC
        LOCFRAME DOVERLAY, 0, STATIC
        ARGFRAME ISTACK, 0, STACK
        ARGFRAME PSTACK, 0, STACK
        ARGFRAME XSTACK, 175, STACK
        ARGFRAME IOVERLAY, 0, STATIC
        ARGFRAME DOVERLAY, 0, STATIC
        FUNCALL SampleApp_ProcessEvent, _delay_ms
        LOCFRAME ISTACK, 0, STACK
        LOCFRAME PSTACK, 0, STACK
        LOCFRAME XSTACK, 175, STACK
        LOCFRAME IOVERLAY, 0, STATIC
        LOCFRAME DOVERLAY, 0, STATIC
        ARGFRAME ISTACK, 0, STACK
        ARGFRAME PSTACK, 0, STACK
        ARGFRAME XSTACK, 175, STACK
        ARGFRAME IOVERLAY, 0, STATIC
        ARGFRAME DOVERLAY, 0, STATIC
        FUNCALL SampleApp_ProcessEvent, _UARTSend
        LOCFRAME ISTACK, 0, STACK
        LOCFRAME PSTACK, 0, STACK
        LOCFRAME XSTACK, 175, STACK
        LOCFRAME IOVERLAY, 0, STATIC
        LOCFRAME DOVERLAY, 0, STATIC
        ARGFRAME ISTACK, 0, STACK
        ARGFRAME PSTACK, 0, STACK
        ARGFRAME XSTACK, 175, STACK
        ARGFRAME IOVERLAY, 0, STATIC
        ARGFRAME DOVERLAY, 0, STATIC
        FUNCALL SampleApp_ProcessEvent, _UARTSend
        LOCFRAME ISTACK, 0, STACK
        LOCFRAME PSTACK, 0, STACK
        LOCFRAME XSTACK, 175, STACK
        LOCFRAME IOVERLAY, 0, STATIC
        LOCFRAME DOVERLAY, 0, STATIC
        ARGFRAME ISTACK, 0, STACK
        ARGFRAME PSTACK, 0, STACK
        ARGFRAME XSTACK, 175, STACK
        ARGFRAME IOVERLAY, 0, STATIC
        ARGFRAME DOVERLAY, 0, STATIC
        FUNCALL SampleApp_ProcessEvent, wait_for
        LOCFRAME ISTACK, 0, STACK
        LOCFRAME PSTACK, 0, STACK
        LOCFRAME XSTACK, 177, STACK
        LOCFRAME IOVERLAY, 0, STATIC
        LOCFRAME DOVERLAY, 0, STATIC
        ARGFRAME ISTACK, 0, STACK
        ARGFRAME PSTACK, 0, STACK
        ARGFRAME XSTACK, 177, STACK
        ARGFRAME IOVERLAY, 0, STATIC
        ARGFRAME DOVERLAY, 0, STATIC
        FUNCALL SampleApp_ProcessEvent, osal_set_event
        LOCFRAME ISTACK, 0, STACK
        LOCFRAME PSTACK, 0, STACK
        LOCFRAME XSTACK, 175, STACK
        LOCFRAME IOVERLAY, 0, STATIC
        LOCFRAME DOVERLAY, 0, STATIC
        ARGFRAME ISTACK, 0, STACK
        ARGFRAME PSTACK, 0, STACK
        ARGFRAME XSTACK, 175, STACK
        ARGFRAME IOVERLAY, 0, STATIC
        ARGFRAME DOVERLAY, 0, STATIC
        FUNCALL SampleApp_ProcessEvent, exit_send
        LOCFRAME ISTACK, 0, STACK
        LOCFRAME PSTACK, 0, STACK
        LOCFRAME XSTACK, 175, STACK
        LOCFRAME IOVERLAY, 0, STATIC
        LOCFRAME DOVERLAY, 0, STATIC
        ARGFRAME ISTACK, 0, STACK
        ARGFRAME PSTACK, 0, STACK
        ARGFRAME XSTACK, 175, STACK
        ARGFRAME IOVERLAY, 0, STATIC
        ARGFRAME DOVERLAY, 0, STATIC
        FUNCALL SampleApp_ProcessEvent, osal_nv_item_init
        LOCFRAME ISTACK, 0, STACK
        LOCFRAME PSTACK, 0, STACK
        LOCFRAME XSTACK, 177, STACK
        LOCFRAME IOVERLAY, 0, STATIC
        LOCFRAME DOVERLAY, 0, STATIC
        ARGFRAME ISTACK, 0, STACK
        ARGFRAME PSTACK, 0, STACK
        ARGFRAME XSTACK, 177, STACK
        ARGFRAME IOVERLAY, 0, STATIC
        ARGFRAME DOVERLAY, 0, STATIC
        FUNCALL SampleApp_ProcessEvent, osal_nv_read
        LOCFRAME ISTACK, 0, STACK
        LOCFRAME PSTACK, 0, STACK
        LOCFRAME XSTACK, 179, STACK
        LOCFRAME IOVERLAY, 0, STATIC
        LOCFRAME DOVERLAY, 0, STATIC
        ARGFRAME ISTACK, 0, STACK
        ARGFRAME PSTACK, 0, STACK
        ARGFRAME XSTACK, 179, STACK
        ARGFRAME IOVERLAY, 0, STATIC
        ARGFRAME DOVERLAY, 0, STATIC
        FUNCALL SampleApp_ProcessEvent, _UARTSend
        LOCFRAME ISTACK, 0, STACK
        LOCFRAME PSTACK, 0, STACK
        LOCFRAME XSTACK, 175, STACK
        LOCFRAME IOVERLAY, 0, STATIC
        LOCFRAME DOVERLAY, 0, STATIC
        ARGFRAME ISTACK, 0, STACK
        ARGFRAME PSTACK, 0, STACK
        ARGFRAME XSTACK, 175, STACK
        ARGFRAME IOVERLAY, 0, STATIC
        ARGFRAME DOVERLAY, 0, STATIC
        FUNCALL SampleApp_ProcessEvent, osal_nv_item_init
        LOCFRAME ISTACK, 0, STACK
        LOCFRAME PSTACK, 0, STACK
        LOCFRAME XSTACK, 177, STACK
        LOCFRAME IOVERLAY, 0, STATIC
        LOCFRAME DOVERLAY, 0, STATIC
        ARGFRAME ISTACK, 0, STACK
        ARGFRAME PSTACK, 0, STACK
        ARGFRAME XSTACK, 177, STACK
        ARGFRAME IOVERLAY, 0, STATIC
        ARGFRAME DOVERLAY, 0, STATIC
        FUNCALL SampleApp_ProcessEvent, osal_nv_read
        LOCFRAME ISTACK, 0, STACK
        LOCFRAME PSTACK, 0, STACK
        LOCFRAME XSTACK, 179, STACK
        LOCFRAME IOVERLAY, 0, STATIC
        LOCFRAME DOVERLAY, 0, STATIC
        ARGFRAME ISTACK, 0, STACK
        ARGFRAME PSTACK, 0, STACK
        ARGFRAME XSTACK, 179, STACK
        ARGFRAME IOVERLAY, 0, STATIC
        ARGFRAME DOVERLAY, 0, STATIC
        FUNCALL SampleApp_ProcessEvent, _UARTSend
        LOCFRAME ISTACK, 0, STACK
        LOCFRAME PSTACK, 0, STACK
        LOCFRAME XSTACK, 175, STACK
        LOCFRAME IOVERLAY, 0, STATIC
        LOCFRAME DOVERLAY, 0, STATIC
        ARGFRAME ISTACK, 0, STACK
        ARGFRAME PSTACK, 0, STACK
        ARGFRAME XSTACK, 175, STACK
        ARGFRAME IOVERLAY, 0, STATIC
        ARGFRAME DOVERLAY, 0, STATIC
        FUNCALL SampleApp_ProcessEvent, osal_nv_item_init
        LOCFRAME ISTACK, 0, STACK
        LOCFRAME PSTACK, 0, STACK
        LOCFRAME XSTACK, 177, STACK
        LOCFRAME IOVERLAY, 0, STATIC
        LOCFRAME DOVERLAY, 0, STATIC
        ARGFRAME ISTACK, 0, STACK
        ARGFRAME PSTACK, 0, STACK
        ARGFRAME XSTACK, 177, STACK
        ARGFRAME IOVERLAY, 0, STATIC
        ARGFRAME DOVERLAY, 0, STATIC
        FUNCALL SampleApp_ProcessEvent, osal_nv_read
        LOCFRAME ISTACK, 0, STACK
        LOCFRAME PSTACK, 0, STACK
        LOCFRAME XSTACK, 179, STACK
        LOCFRAME IOVERLAY, 0, STATIC
        LOCFRAME DOVERLAY, 0, STATIC
        ARGFRAME ISTACK, 0, STACK
        ARGFRAME PSTACK, 0, STACK
        ARGFRAME XSTACK, 179, STACK
        ARGFRAME IOVERLAY, 0, STATIC
        ARGFRAME DOVERLAY, 0, STATIC
        FUNCALL SampleApp_ProcessEvent, _UARTSend
        LOCFRAME ISTACK, 0, STACK
        LOCFRAME PSTACK, 0, STACK
        LOCFRAME XSTACK, 175, STACK
        LOCFRAME IOVERLAY, 0, STATIC
        LOCFRAME DOVERLAY, 0, STATIC
        ARGFRAME ISTACK, 0, STACK
        ARGFRAME PSTACK, 0, STACK
        ARGFRAME XSTACK, 175, STACK
        ARGFRAME IOVERLAY, 0, STATIC
        ARGFRAME DOVERLAY, 0, STATIC
        FUNCALL SampleApp_ProcessEvent, osal_nv_item_init
        LOCFRAME ISTACK, 0, STACK
        LOCFRAME PSTACK, 0, STACK
        LOCFRAME XSTACK, 177, STACK
        LOCFRAME IOVERLAY, 0, STATIC
        LOCFRAME DOVERLAY, 0, STATIC
        ARGFRAME ISTACK, 0, STACK
        ARGFRAME PSTACK, 0, STACK
        ARGFRAME XSTACK, 177, STACK
        ARGFRAME IOVERLAY, 0, STATIC
        ARGFRAME DOVERLAY, 0, STATIC
        FUNCALL SampleApp_ProcessEvent, osal_nv_read
        LOCFRAME ISTACK, 0, STACK
        LOCFRAME PSTACK, 0, STACK
        LOCFRAME XSTACK, 179, STACK
        LOCFRAME IOVERLAY, 0, STATIC
        LOCFRAME DOVERLAY, 0, STATIC
        ARGFRAME ISTACK, 0, STACK
        ARGFRAME PSTACK, 0, STACK
        ARGFRAME XSTACK, 179, STACK
        ARGFRAME IOVERLAY, 0, STATIC
        ARGFRAME DOVERLAY, 0, STATIC
        FUNCALL SampleApp_ProcessEvent, _UARTSend
        LOCFRAME ISTACK, 0, STACK
        LOCFRAME PSTACK, 0, STACK
        LOCFRAME XSTACK, 175, STACK
        LOCFRAME IOVERLAY, 0, STATIC
        LOCFRAME DOVERLAY, 0, STATIC
        ARGFRAME ISTACK, 0, STACK
        ARGFRAME PSTACK, 0, STACK
        ARGFRAME XSTACK, 175, STACK
        ARGFRAME IOVERLAY, 0, STATIC
        ARGFRAME DOVERLAY, 0, STATIC
        FUNCALL SampleApp_ProcessEvent, _UARTSend
        LOCFRAME ISTACK, 0, STACK
        LOCFRAME PSTACK, 0, STACK
        LOCFRAME XSTACK, 175, STACK
        LOCFRAME IOVERLAY, 0, STATIC
        LOCFRAME DOVERLAY, 0, STATIC
        ARGFRAME ISTACK, 0, STACK
        ARGFRAME PSTACK, 0, STACK
        ARGFRAME XSTACK, 175, STACK
        ARGFRAME IOVERLAY, 0, STATIC
        ARGFRAME DOVERLAY, 0, STATIC
        FUNCALL SampleApp_ProcessEvent, _UARTSend
        LOCFRAME ISTACK, 0, STACK
        LOCFRAME PSTACK, 0, STACK
        LOCFRAME XSTACK, 175, STACK
        LOCFRAME IOVERLAY, 0, STATIC
        LOCFRAME DOVERLAY, 0, STATIC
        ARGFRAME ISTACK, 0, STACK
        ARGFRAME PSTACK, 0, STACK
        ARGFRAME XSTACK, 175, STACK
        ARGFRAME IOVERLAY, 0, STATIC
        ARGFRAME DOVERLAY, 0, STATIC
        FUNCALL SampleApp_ProcessEvent, _UARTSend
        LOCFRAME ISTACK, 0, STACK
        LOCFRAME PSTACK, 0, STACK
        LOCFRAME XSTACK, 175, STACK
        LOCFRAME IOVERLAY, 0, STATIC
        LOCFRAME DOVERLAY, 0, STATIC
        ARGFRAME ISTACK, 0, STACK
        ARGFRAME PSTACK, 0, STACK
        ARGFRAME XSTACK, 175, STACK
        ARGFRAME IOVERLAY, 0, STATIC
        ARGFRAME DOVERLAY, 0, STATIC
        FUNCALL SampleApp_ProcessEvent, wait_for
        LOCFRAME ISTACK, 0, STACK
        LOCFRAME PSTACK, 0, STACK
        LOCFRAME XSTACK, 177, STACK
        LOCFRAME IOVERLAY, 0, STATIC
        LOCFRAME DOVERLAY, 0, STATIC
        ARGFRAME ISTACK, 0, STACK
        ARGFRAME PSTACK, 0, STACK
        ARGFRAME XSTACK, 177, STACK
        ARGFRAME IOVERLAY, 0, STATIC
        ARGFRAME DOVERLAY, 0, STATIC
        FUNCALL SampleApp_ProcessEvent, _UARTSend
        LOCFRAME ISTACK, 0, STACK
        LOCFRAME PSTACK, 0, STACK
        LOCFRAME XSTACK, 179, STACK
        LOCFRAME IOVERLAY, 0, STATIC
        LOCFRAME DOVERLAY, 0, STATIC
        ARGFRAME ISTACK, 0, STACK
        ARGFRAME PSTACK, 0, STACK
        ARGFRAME XSTACK, 179, STACK
        ARGFRAME IOVERLAY, 0, STATIC
        ARGFRAME DOVERLAY, 0, STATIC
        FUNCALL SampleApp_ProcessEvent, _UARTSend
        LOCFRAME ISTACK, 0, STACK
        LOCFRAME PSTACK, 0, STACK
        LOCFRAME XSTACK, 179, STACK
        LOCFRAME IOVERLAY, 0, STATIC
        LOCFRAME DOVERLAY, 0, STATIC
        ARGFRAME ISTACK, 0, STACK
        ARGFRAME PSTACK, 0, STACK
        ARGFRAME XSTACK, 179, STACK
        ARGFRAME IOVERLAY, 0, STATIC
        ARGFRAME DOVERLAY, 0, STATIC
        FUNCALL SampleApp_ProcessEvent, wait_for
        LOCFRAME ISTACK, 0, STACK
        LOCFRAME PSTACK, 0, STACK
        LOCFRAME XSTACK, 177, STACK
        LOCFRAME IOVERLAY, 0, STATIC
        LOCFRAME DOVERLAY, 0, STATIC
        ARGFRAME ISTACK, 0, STACK
        ARGFRAME PSTACK, 0, STACK
        ARGFRAME XSTACK, 177, STACK
        ARGFRAME IOVERLAY, 0, STATIC
        ARGFRAME DOVERLAY, 0, STATIC
        FUNCALL SampleApp_ProcessEvent, _UARTSend
        LOCFRAME ISTACK, 0, STACK
        LOCFRAME PSTACK, 0, STACK
        LOCFRAME XSTACK, 175, STACK
        LOCFRAME IOVERLAY, 0, STATIC
        LOCFRAME DOVERLAY, 0, STATIC
        ARGFRAME ISTACK, 0, STACK
        ARGFRAME PSTACK, 0, STACK
        ARGFRAME XSTACK, 175, STACK
        ARGFRAME IOVERLAY, 0, STATIC
        ARGFRAME DOVERLAY, 0, STATIC
        FUNCALL SampleApp_ProcessEvent, _UARTSend
        LOCFRAME ISTACK, 0, STACK
        LOCFRAME PSTACK, 0, STACK
        LOCFRAME XSTACK, 175, STACK
        LOCFRAME IOVERLAY, 0, STATIC
        LOCFRAME DOVERLAY, 0, STATIC
        ARGFRAME ISTACK, 0, STACK
        ARGFRAME PSTACK, 0, STACK
        ARGFRAME XSTACK, 175, STACK
        ARGFRAME IOVERLAY, 0, STATIC
        ARGFRAME DOVERLAY, 0, STATIC
        FUNCALL SampleApp_ProcessEvent, wait_for
        LOCFRAME ISTACK, 0, STACK
        LOCFRAME PSTACK, 0, STACK
        LOCFRAME XSTACK, 177, STACK
        LOCFRAME IOVERLAY, 0, STATIC
        LOCFRAME DOVERLAY, 0, STATIC
        ARGFRAME ISTACK, 0, STACK
        ARGFRAME PSTACK, 0, STACK
        ARGFRAME XSTACK, 177, STACK
        ARGFRAME IOVERLAY, 0, STATIC
        ARGFRAME DOVERLAY, 0, STATIC
        FUNCALL SampleApp_ProcessEvent, _UARTSend
        LOCFRAME ISTACK, 0, STACK
        LOCFRAME PSTACK, 0, STACK
        LOCFRAME XSTACK, 175, STACK
        LOCFRAME IOVERLAY, 0, STATIC
        LOCFRAME DOVERLAY, 0, STATIC
        ARGFRAME ISTACK, 0, STACK
        ARGFRAME PSTACK, 0, STACK
        ARGFRAME XSTACK, 175, STACK
        ARGFRAME IOVERLAY, 0, STATIC
        ARGFRAME DOVERLAY, 0, STATIC
        FUNCALL SampleApp_ProcessEvent, _UARTSend
        LOCFRAME ISTACK, 0, STACK
        LOCFRAME PSTACK, 0, STACK
        LOCFRAME XSTACK, 175, STACK
        LOCFRAME IOVERLAY, 0, STATIC
        LOCFRAME DOVERLAY, 0, STATIC
        ARGFRAME ISTACK, 0, STACK
        ARGFRAME PSTACK, 0, STACK
        ARGFRAME XSTACK, 175, STACK
        ARGFRAME IOVERLAY, 0, STATIC
        ARGFRAME DOVERLAY, 0, STATIC
        FUNCALL SampleApp_ProcessEvent, wait_for
        LOCFRAME ISTACK, 0, STACK
        LOCFRAME PSTACK, 0, STACK
        LOCFRAME XSTACK, 177, STACK
        LOCFRAME IOVERLAY, 0, STATIC
        LOCFRAME DOVERLAY, 0, STATIC
        ARGFRAME ISTACK, 0, STACK
        ARGFRAME PSTACK, 0, STACK
        ARGFRAME XSTACK, 177, STACK
        ARGFRAME IOVERLAY, 0, STATIC
        ARGFRAME DOVERLAY, 0, STATIC
        FUNCALL SampleApp_ProcessEvent, _UARTSend
        LOCFRAME ISTACK, 0, STACK
        LOCFRAME PSTACK, 0, STACK
        LOCFRAME XSTACK, 179, STACK
        LOCFRAME IOVERLAY, 0, STATIC
        LOCFRAME DOVERLAY, 0, STATIC
        ARGFRAME ISTACK, 0, STACK
        ARGFRAME PSTACK, 0, STACK
        ARGFRAME XSTACK, 179, STACK
        ARGFRAME IOVERLAY, 0, STATIC
        ARGFRAME DOVERLAY, 0, STATIC
        FUNCALL SampleApp_ProcessEvent, _UARTSend
        LOCFRAME ISTACK, 0, STACK
        LOCFRAME PSTACK, 0, STACK
        LOCFRAME XSTACK, 179, STACK
        LOCFRAME IOVERLAY, 0, STATIC
        LOCFRAME DOVERLAY, 0, STATIC
        ARGFRAME ISTACK, 0, STACK
        ARGFRAME PSTACK, 0, STACK
        ARGFRAME XSTACK, 179, STACK
        ARGFRAME IOVERLAY, 0, STATIC
        ARGFRAME DOVERLAY, 0, STATIC
        FUNCALL SampleApp_ProcessEvent, wait_for
        LOCFRAME ISTACK, 0, STACK
        LOCFRAME PSTACK, 0, STACK
        LOCFRAME XSTACK, 177, STACK
        LOCFRAME IOVERLAY, 0, STATIC
        LOCFRAME DOVERLAY, 0, STATIC
        ARGFRAME ISTACK, 0, STACK
        ARGFRAME PSTACK, 0, STACK
        ARGFRAME XSTACK, 177, STACK
        ARGFRAME IOVERLAY, 0, STATIC
        ARGFRAME DOVERLAY, 0, STATIC
        FUNCALL SampleApp_ProcessEvent, _UARTSend
        LOCFRAME ISTACK, 0, STACK
        LOCFRAME PSTACK, 0, STACK
        LOCFRAME XSTACK, 175, STACK
        LOCFRAME IOVERLAY, 0, STATIC
        LOCFRAME DOVERLAY, 0, STATIC
        ARGFRAME ISTACK, 0, STACK
        ARGFRAME PSTACK, 0, STACK
        ARGFRAME XSTACK, 175, STACK
        ARGFRAME IOVERLAY, 0, STATIC
        ARGFRAME DOVERLAY, 0, STATIC
        FUNCALL SampleApp_ProcessEvent, _UARTSend
        LOCFRAME ISTACK, 0, STACK
        LOCFRAME PSTACK, 0, STACK
        LOCFRAME XSTACK, 175, STACK
        LOCFRAME IOVERLAY, 0, STATIC
        LOCFRAME DOVERLAY, 0, STATIC
        ARGFRAME ISTACK, 0, STACK
        ARGFRAME PSTACK, 0, STACK
        ARGFRAME XSTACK, 175, STACK
        ARGFRAME IOVERLAY, 0, STATIC
        ARGFRAME DOVERLAY, 0, STATIC
        FUNCALL SampleApp_ProcessEvent, wait_for
        LOCFRAME ISTACK, 0, STACK
        LOCFRAME PSTACK, 0, STACK
        LOCFRAME XSTACK, 177, STACK
        LOCFRAME IOVERLAY, 0, STATIC
        LOCFRAME DOVERLAY, 0, STATIC
        ARGFRAME ISTACK, 0, STACK
        ARGFRAME PSTACK, 0, STACK
        ARGFRAME XSTACK, 177, STACK
        ARGFRAME IOVERLAY, 0, STATIC
        ARGFRAME DOVERLAY, 0, STATIC
        FUNCALL SampleApp_ProcessEvent, _delay_ms
        LOCFRAME ISTACK, 0, STACK
        LOCFRAME PSTACK, 0, STACK
        LOCFRAME XSTACK, 175, STACK
        LOCFRAME IOVERLAY, 0, STATIC
        LOCFRAME DOVERLAY, 0, STATIC
        ARGFRAME ISTACK, 0, STACK
        ARGFRAME PSTACK, 0, STACK
        ARGFRAME XSTACK, 175, STACK
        ARGFRAME IOVERLAY, 0, STATIC
        ARGFRAME DOVERLAY, 0, STATIC
        FUNCALL SampleApp_ProcessEvent, osal_set_event
        LOCFRAME ISTACK, 0, STACK
        LOCFRAME PSTACK, 0, STACK
        LOCFRAME XSTACK, 175, STACK
        LOCFRAME IOVERLAY, 0, STATIC
        LOCFRAME DOVERLAY, 0, STATIC
        ARGFRAME ISTACK, 0, STACK
        ARGFRAME PSTACK, 0, STACK
        ARGFRAME XSTACK, 175, STACK
        ARGFRAME IOVERLAY, 0, STATIC
        ARGFRAME DOVERLAY, 0, STATIC
        FUNCALL SampleApp_ProcessEvent, WiFiRecv
        LOCFRAME ISTACK, 0, STACK
        LOCFRAME PSTACK, 0, STACK
        LOCFRAME XSTACK, 175, STACK
        LOCFRAME IOVERLAY, 0, STATIC
        LOCFRAME DOVERLAY, 0, STATIC
        ARGFRAME ISTACK, 0, STACK
        ARGFRAME PSTACK, 0, STACK
        ARGFRAME XSTACK, 175, STACK
        ARGFRAME IOVERLAY, 0, STATIC
        ARGFRAME DOVERLAY, 0, STATIC
        FUNCALL SampleApp_ProcessEvent, _UARTSend
        LOCFRAME ISTACK, 0, STACK
        LOCFRAME PSTACK, 0, STACK
        LOCFRAME XSTACK, 175, STACK
        LOCFRAME IOVERLAY, 0, STATIC
        LOCFRAME DOVERLAY, 0, STATIC
        ARGFRAME ISTACK, 0, STACK
        ARGFRAME PSTACK, 0, STACK
        ARGFRAME XSTACK, 175, STACK
        ARGFRAME IOVERLAY, 0, STATIC
        ARGFRAME DOVERLAY, 0, STATIC
        FUNCALL SampleApp_ProcessEvent, osal_memcmp
        LOCFRAME ISTACK, 0, STACK
        LOCFRAME PSTACK, 0, STACK
        LOCFRAME XSTACK, 178, STACK
        LOCFRAME IOVERLAY, 0, STATIC
        LOCFRAME DOVERLAY, 0, STATIC
        ARGFRAME ISTACK, 0, STACK
        ARGFRAME PSTACK, 0, STACK
        ARGFRAME XSTACK, 178, STACK
        ARGFRAME IOVERLAY, 0, STATIC
        ARGFRAME DOVERLAY, 0, STATIC
        FUNCALL SampleApp_ProcessEvent, WiFiSend
        LOCFRAME ISTACK, 0, STACK
        LOCFRAME PSTACK, 0, STACK
        LOCFRAME XSTACK, 175, STACK
        LOCFRAME IOVERLAY, 0, STATIC
        LOCFRAME DOVERLAY, 0, STATIC
        ARGFRAME ISTACK, 0, STACK
        ARGFRAME PSTACK, 0, STACK
        ARGFRAME XSTACK, 175, STACK
        ARGFRAME IOVERLAY, 0, STATIC
        ARGFRAME DOVERLAY, 0, STATIC
        FUNCALL SampleApp_ProcessEvent, osal_memcmp
        LOCFRAME ISTACK, 0, STACK
        LOCFRAME PSTACK, 0, STACK
        LOCFRAME XSTACK, 178, STACK
        LOCFRAME IOVERLAY, 0, STATIC
        LOCFRAME DOVERLAY, 0, STATIC
        ARGFRAME ISTACK, 0, STACK
        ARGFRAME PSTACK, 0, STACK
        ARGFRAME XSTACK, 178, STACK
        ARGFRAME IOVERLAY, 0, STATIC
        ARGFRAME DOVERLAY, 0, STATIC
        FUNCALL SampleApp_ProcessEvent, osal_memcmp
        LOCFRAME ISTACK, 0, STACK
        LOCFRAME PSTACK, 0, STACK
        LOCFRAME XSTACK, 178, STACK
        LOCFRAME IOVERLAY, 0, STATIC
        LOCFRAME DOVERLAY, 0, STATIC
        ARGFRAME ISTACK, 0, STACK
        ARGFRAME PSTACK, 0, STACK
        ARGFRAME XSTACK, 178, STACK
        ARGFRAME IOVERLAY, 0, STATIC
        ARGFRAME DOVERLAY, 0, STATIC
        FUNCALL SampleApp_ProcessEvent, _zigbeeSend
        LOCFRAME ISTACK, 0, STACK
        LOCFRAME PSTACK, 0, STACK
        LOCFRAME XSTACK, 175, STACK
        LOCFRAME IOVERLAY, 0, STATIC
        LOCFRAME DOVERLAY, 0, STATIC
        ARGFRAME ISTACK, 0, STACK
        ARGFRAME PSTACK, 0, STACK
        ARGFRAME XSTACK, 175, STACK
        ARGFRAME IOVERLAY, 0, STATIC
        ARGFRAME DOVERLAY, 0, STATIC
        FUNCALL SampleApp_ProcessEvent, osal_memcmp
        LOCFRAME ISTACK, 0, STACK
        LOCFRAME PSTACK, 0, STACK
        LOCFRAME XSTACK, 178, STACK
        LOCFRAME IOVERLAY, 0, STATIC
        LOCFRAME DOVERLAY, 0, STATIC
        ARGFRAME ISTACK, 0, STACK
        ARGFRAME PSTACK, 0, STACK
        ARGFRAME XSTACK, 178, STACK
        ARGFRAME IOVERLAY, 0, STATIC
        ARGFRAME DOVERLAY, 0, STATIC
        FUNCALL SampleApp_ProcessEvent, _zigbeeSend
        LOCFRAME ISTACK, 0, STACK
        LOCFRAME PSTACK, 0, STACK
        LOCFRAME XSTACK, 175, STACK
        LOCFRAME IOVERLAY, 0, STATIC
        LOCFRAME DOVERLAY, 0, STATIC
        ARGFRAME ISTACK, 0, STACK
        ARGFRAME PSTACK, 0, STACK
        ARGFRAME XSTACK, 175, STACK
        ARGFRAME IOVERLAY, 0, STATIC
        ARGFRAME DOVERLAY, 0, STATIC
        FUNCALL SampleApp_ProcessEvent, osal_memcmp
        LOCFRAME ISTACK, 0, STACK
        LOCFRAME PSTACK, 0, STACK
        LOCFRAME XSTACK, 178, STACK
        LOCFRAME IOVERLAY, 0, STATIC
        LOCFRAME DOVERLAY, 0, STATIC
        ARGFRAME ISTACK, 0, STACK
        ARGFRAME PSTACK, 0, STACK
        ARGFRAME XSTACK, 178, STACK
        ARGFRAME IOVERLAY, 0, STATIC
        ARGFRAME DOVERLAY, 0, STATIC
        FUNCALL SampleApp_ProcessEvent, _zigbeeSend
        LOCFRAME ISTACK, 0, STACK
        LOCFRAME PSTACK, 0, STACK
        LOCFRAME XSTACK, 175, STACK
        LOCFRAME IOVERLAY, 0, STATIC
        LOCFRAME DOVERLAY, 0, STATIC
        ARGFRAME ISTACK, 0, STACK
        ARGFRAME PSTACK, 0, STACK
        ARGFRAME XSTACK, 175, STACK
        ARGFRAME IOVERLAY, 0, STATIC
        ARGFRAME DOVERLAY, 0, STATIC
        FUNCALL SampleApp_ProcessEvent, WiFiSend
        LOCFRAME ISTACK, 0, STACK
        LOCFRAME PSTACK, 0, STACK
        LOCFRAME XSTACK, 175, STACK
        LOCFRAME IOVERLAY, 0, STATIC
        LOCFRAME DOVERLAY, 0, STATIC
        ARGFRAME ISTACK, 0, STACK
        ARGFRAME PSTACK, 0, STACK
        ARGFRAME XSTACK, 175, STACK
        ARGFRAME IOVERLAY, 0, STATIC
        ARGFRAME DOVERLAY, 0, STATIC
        FUNCALL SampleApp_ProcessEvent, osal_memcmp
        LOCFRAME ISTACK, 0, STACK
        LOCFRAME PSTACK, 0, STACK
        LOCFRAME XSTACK, 178, STACK
        LOCFRAME IOVERLAY, 0, STATIC
        LOCFRAME DOVERLAY, 0, STATIC
        ARGFRAME ISTACK, 0, STACK
        ARGFRAME PSTACK, 0, STACK
        ARGFRAME XSTACK, 178, STACK
        ARGFRAME IOVERLAY, 0, STATIC
        ARGFRAME DOVERLAY, 0, STATIC
        FUNCALL SampleApp_ProcessEvent, _zigbeeSend
        LOCFRAME ISTACK, 0, STACK
        LOCFRAME PSTACK, 0, STACK
        LOCFRAME XSTACK, 175, STACK
        LOCFRAME IOVERLAY, 0, STATIC
        LOCFRAME DOVERLAY, 0, STATIC
        ARGFRAME ISTACK, 0, STACK
        ARGFRAME PSTACK, 0, STACK
        ARGFRAME XSTACK, 175, STACK
        ARGFRAME IOVERLAY, 0, STATIC
        ARGFRAME DOVERLAY, 0, STATIC
        FUNCALL SampleApp_ProcessEvent, WiFiSend
        LOCFRAME ISTACK, 0, STACK
        LOCFRAME PSTACK, 0, STACK
        LOCFRAME XSTACK, 175, STACK
        LOCFRAME IOVERLAY, 0, STATIC
        LOCFRAME DOVERLAY, 0, STATIC
        ARGFRAME ISTACK, 0, STACK
        ARGFRAME PSTACK, 0, STACK
        ARGFRAME XSTACK, 175, STACK
        ARGFRAME IOVERLAY, 0, STATIC
        ARGFRAME DOVERLAY, 0, STATIC
        FUNCALL SampleApp_ProcessEvent, osal_memcmp
        LOCFRAME ISTACK, 0, STACK
        LOCFRAME PSTACK, 0, STACK
        LOCFRAME XSTACK, 178, STACK
        LOCFRAME IOVERLAY, 0, STATIC
        LOCFRAME DOVERLAY, 0, STATIC
        ARGFRAME ISTACK, 0, STACK
        ARGFRAME PSTACK, 0, STACK
        ARGFRAME XSTACK, 178, STACK
        ARGFRAME IOVERLAY, 0, STATIC
        ARGFRAME DOVERLAY, 0, STATIC
        FUNCALL SampleApp_ProcessEvent, _zigbeeSend
        LOCFRAME ISTACK, 0, STACK
        LOCFRAME PSTACK, 0, STACK
        LOCFRAME XSTACK, 175, STACK
        LOCFRAME IOVERLAY, 0, STATIC
        LOCFRAME DOVERLAY, 0, STATIC
        ARGFRAME ISTACK, 0, STACK
        ARGFRAME PSTACK, 0, STACK
        ARGFRAME XSTACK, 175, STACK
        ARGFRAME IOVERLAY, 0, STATIC
        ARGFRAME DOVERLAY, 0, STATIC
        FUNCALL SampleApp_ProcessEvent, WiFiSend
        LOCFRAME ISTACK, 0, STACK
        LOCFRAME PSTACK, 0, STACK
        LOCFRAME XSTACK, 175, STACK
        LOCFRAME IOVERLAY, 0, STATIC
        LOCFRAME DOVERLAY, 0, STATIC
        ARGFRAME ISTACK, 0, STACK
        ARGFRAME PSTACK, 0, STACK
        ARGFRAME XSTACK, 175, STACK
        ARGFRAME IOVERLAY, 0, STATIC
        ARGFRAME DOVERLAY, 0, STATIC
        FUNCALL SampleApp_ProcessEvent, osal_memcmp
        LOCFRAME ISTACK, 0, STACK
        LOCFRAME PSTACK, 0, STACK
        LOCFRAME XSTACK, 178, STACK
        LOCFRAME IOVERLAY, 0, STATIC
        LOCFRAME DOVERLAY, 0, STATIC
        ARGFRAME ISTACK, 0, STACK
        ARGFRAME PSTACK, 0, STACK
        ARGFRAME XSTACK, 178, STACK
        ARGFRAME IOVERLAY, 0, STATIC
        ARGFRAME DOVERLAY, 0, STATIC
        FUNCALL SampleApp_ProcessEvent, _zigbeeSend
        LOCFRAME ISTACK, 0, STACK
        LOCFRAME PSTACK, 0, STACK
        LOCFRAME XSTACK, 175, STACK
        LOCFRAME IOVERLAY, 0, STATIC
        LOCFRAME DOVERLAY, 0, STATIC
        ARGFRAME ISTACK, 0, STACK
        ARGFRAME PSTACK, 0, STACK
        ARGFRAME XSTACK, 175, STACK
        ARGFRAME IOVERLAY, 0, STATIC
        ARGFRAME DOVERLAY, 0, STATIC
        FUNCALL SampleApp_ProcessEvent, WiFiSend
        LOCFRAME ISTACK, 0, STACK
        LOCFRAME PSTACK, 0, STACK
        LOCFRAME XSTACK, 175, STACK
        LOCFRAME IOVERLAY, 0, STATIC
        LOCFRAME DOVERLAY, 0, STATIC
        ARGFRAME ISTACK, 0, STACK
        ARGFRAME PSTACK, 0, STACK
        ARGFRAME XSTACK, 175, STACK
        ARGFRAME IOVERLAY, 0, STATIC
        ARGFRAME DOVERLAY, 0, STATIC
        FUNCALL SampleApp_ProcessEvent, osal_memcmp
        LOCFRAME ISTACK, 0, STACK
        LOCFRAME PSTACK, 0, STACK
        LOCFRAME XSTACK, 178, STACK
        LOCFRAME IOVERLAY, 0, STATIC
        LOCFRAME DOVERLAY, 0, STATIC
        ARGFRAME ISTACK, 0, STACK
        ARGFRAME PSTACK, 0, STACK
        ARGFRAME XSTACK, 178, STACK
        ARGFRAME IOVERLAY, 0, STATIC
        ARGFRAME DOVERLAY, 0, STATIC
        FUNCALL SampleApp_ProcessEvent, _zigbeeSend
        LOCFRAME ISTACK, 0, STACK
        LOCFRAME PSTACK, 0, STACK
        LOCFRAME XSTACK, 175, STACK
        LOCFRAME IOVERLAY, 0, STATIC
        LOCFRAME DOVERLAY, 0, STATIC
        ARGFRAME ISTACK, 0, STACK
        ARGFRAME PSTACK, 0, STACK
        ARGFRAME XSTACK, 175, STACK
        ARGFRAME IOVERLAY, 0, STATIC
        ARGFRAME DOVERLAY, 0, STATIC
        FUNCALL SampleApp_ProcessEvent, WiFiSend
        LOCFRAME ISTACK, 0, STACK
        LOCFRAME PSTACK, 0, STACK
        LOCFRAME XSTACK, 175, STACK
        LOCFRAME IOVERLAY, 0, STATIC
        LOCFRAME DOVERLAY, 0, STATIC
        ARGFRAME ISTACK, 0, STACK
        ARGFRAME PSTACK, 0, STACK
        ARGFRAME XSTACK, 175, STACK
        ARGFRAME IOVERLAY, 0, STATIC
        ARGFRAME DOVERLAY, 0, STATIC
        FUNCALL SampleApp_ProcessEvent, osal_memcmp
        LOCFRAME ISTACK, 0, STACK
        LOCFRAME PSTACK, 0, STACK
        LOCFRAME XSTACK, 178, STACK
        LOCFRAME IOVERLAY, 0, STATIC
        LOCFRAME DOVERLAY, 0, STATIC
        ARGFRAME ISTACK, 0, STACK
        ARGFRAME PSTACK, 0, STACK
        ARGFRAME XSTACK, 178, STACK
        ARGFRAME IOVERLAY, 0, STATIC
        ARGFRAME DOVERLAY, 0, STATIC
        FUNCALL SampleApp_ProcessEvent, _zigbeeSend
        LOCFRAME ISTACK, 0, STACK
        LOCFRAME PSTACK, 0, STACK
        LOCFRAME XSTACK, 175, STACK
        LOCFRAME IOVERLAY, 0, STATIC
        LOCFRAME DOVERLAY, 0, STATIC
        ARGFRAME ISTACK, 0, STACK
        ARGFRAME PSTACK, 0, STACK
        ARGFRAME XSTACK, 175, STACK
        ARGFRAME IOVERLAY, 0, STATIC
        ARGFRAME DOVERLAY, 0, STATIC
        FUNCALL SampleApp_ProcessEvent, WiFiSend
        LOCFRAME ISTACK, 0, STACK
        LOCFRAME PSTACK, 0, STACK
        LOCFRAME XSTACK, 175, STACK
        LOCFRAME IOVERLAY, 0, STATIC
        LOCFRAME DOVERLAY, 0, STATIC
        ARGFRAME ISTACK, 0, STACK
        ARGFRAME PSTACK, 0, STACK
        ARGFRAME XSTACK, 175, STACK
        ARGFRAME IOVERLAY, 0, STATIC
        ARGFRAME DOVERLAY, 0, STATIC
        FUNCALL SampleApp_ProcessEvent, wait_for
        LOCFRAME ISTACK, 0, STACK
        LOCFRAME PSTACK, 0, STACK
        LOCFRAME XSTACK, 177, STACK
        LOCFRAME IOVERLAY, 0, STATIC
        LOCFRAME DOVERLAY, 0, STATIC
        ARGFRAME ISTACK, 0, STACK
        ARGFRAME PSTACK, 0, STACK
        ARGFRAME XSTACK, 177, STACK
        ARGFRAME IOVERLAY, 0, STATIC
        ARGFRAME DOVERLAY, 0, STATIC
        FUNCALL SampleApp_ProcessEvent, _UARTSend
        LOCFRAME ISTACK, 0, STACK
        LOCFRAME PSTACK, 0, STACK
        LOCFRAME XSTACK, 175, STACK
        LOCFRAME IOVERLAY, 0, STATIC
        LOCFRAME DOVERLAY, 0, STATIC
        ARGFRAME ISTACK, 0, STACK
        ARGFRAME PSTACK, 0, STACK
        ARGFRAME XSTACK, 175, STACK
        ARGFRAME IOVERLAY, 0, STATIC
        ARGFRAME DOVERLAY, 0, STATIC
        FUNCALL SampleApp_ProcessEvent, osal_set_event
        LOCFRAME ISTACK, 0, STACK
        LOCFRAME PSTACK, 0, STACK
        LOCFRAME XSTACK, 175, STACK
        LOCFRAME IOVERLAY, 0, STATIC
        LOCFRAME DOVERLAY, 0, STATIC
        ARGFRAME ISTACK, 0, STACK
        ARGFRAME PSTACK, 0, STACK
        ARGFRAME XSTACK, 175, STACK
        ARGFRAME IOVERLAY, 0, STATIC
        ARGFRAME DOVERLAY, 0, STATIC
        FUNCALL SampleApp_ProcessEvent, osal_start_timerEx
        LOCFRAME ISTACK, 0, STACK
        LOCFRAME PSTACK, 0, STACK
        LOCFRAME XSTACK, 175, STACK
        LOCFRAME IOVERLAY, 0, STATIC
        LOCFRAME DOVERLAY, 0, STATIC
        ARGFRAME ISTACK, 0, STACK
        ARGFRAME PSTACK, 0, STACK
        ARGFRAME XSTACK, 175, STACK
        ARGFRAME IOVERLAY, 0, STATIC
        ARGFRAME DOVERLAY, 0, STATIC
        REQUIRE ?V0
        REQUIRE ?V1
        REQUIRE ?V2
        REQUIRE ?V3
        REQUIRE ?V4
        REQUIRE ?V5
        REQUIRE ?V6
        REQUIRE ?V7
        MOV       A,#-0x10
        LCALL     ?BANKED_ENTER_XDATA
          CFI DPH0 load(1, XDATA, add(CFA_XSP16, literal(-1)))
          CFI DPL0 load(1, XDATA, add(CFA_XSP16, literal(-2)))
          CFI ?BRET_EXT load(1, XDATA, add(CFA_XSP16, literal(-3)))
          CFI ?RET_HIGH load(1, XDATA, add(CFA_XSP16, literal(-4)))
          CFI ?RET_LOW load(1, XDATA, add(CFA_XSP16, literal(-5)))
          CFI R7 load(1, XDATA, add(CFA_XSP16, literal(-6)))
          CFI V7 load(1, XDATA, add(CFA_XSP16, literal(-7)))
          CFI V6 load(1, XDATA, add(CFA_XSP16, literal(-8)))
          CFI V5 load(1, XDATA, add(CFA_XSP16, literal(-9)))
          CFI V4 load(1, XDATA, add(CFA_XSP16, literal(-10)))
          CFI V3 load(1, XDATA, add(CFA_XSP16, literal(-11)))
          CFI V2 load(1, XDATA, add(CFA_XSP16, literal(-12)))
          CFI V1 load(1, XDATA, add(CFA_XSP16, literal(-13)))
          CFI V0 load(1, XDATA, add(CFA_XSP16, literal(-14)))
          CFI VB load(1, XDATA, add(CFA_XSP16, literal(-15)))
          CFI R6 load(1, XDATA, add(CFA_XSP16, literal(-16)))
          CFI CFA_SP SP+0
          CFI CFA_XSP16 add(XSP16, 16)
        ; Saved register size: 16
        ; Auto size: 159
        MOV       A,#0x61
        LCALL     ?ALLOC_XSTACK8
          CFI CFA_XSP16 add(XSP16, 175)
        MOV       A,R2
        MOV       R6,A
        MOV       A,R3
        MOV       R7,A
//  287 	afIncomingMSGPacket_t *MSGpkt;
//  288 	halUARTCfg_t uartConfig;
//  289 	uint8 _buffer[UartDefaultRxLen];
//  290 	uint8 InitNVStatus, readNVStatus, writeNVStatus;
//  291 	uint8 SSID[SSID_MAX_LENGTH], PSWD[PSWD_MAX_LENGTH];
//  292 	uint8 PORT[PORT_MAX_LENGTH], MYIP[IP_MAX_LENGTH];
//  293 	uint16 length, nv_id, nv_len, prefix_len;
//  294   (void)task_id;  // Intentionally unreferenced parameter
//  295 
//  296   if ( events & SYS_EVENT_MSG )
        ANL       A,#0x80
        JZ        ??SampleApp_ProcessEvent_0
//  297   {
//  298 	MSGpkt = (afIncomingMSGPacket_t *)osal_msg_receive( SampleApp_TaskID );
        ; Setup parameters for call to function osal_msg_receive
        SJMP      ??SampleApp_ProcessEvent_1
//  299 	while ( MSGpkt )
//  300 	{
//  301 	  switch ( MSGpkt->hdr.event )
//  302 	  {
//  303 		// Received when a key is pressed
//  304 		case KEY_CHANGE:
//  305 		  SampleApp_HandleKeys( ((keyChange_t *)MSGpkt)->state, ((keyChange_t *)MSGpkt)->keys );
//  306 		  break;
//  307 
//  308 		// Received when a messages is received (OTA) for this endpoint
//  309 		case AF_INCOMING_MSG_CMD:
//  310 		  SampleApp_MessageMSGCB( MSGpkt );
//  311 		  break;
//  312 
//  313 		// Received whenever the device changes state in the network
//  314 		case ZDO_STATE_CHANGE:
//  315 		  SampleApp_NwkState = (devStates_t)(MSGpkt->hdr.status);
??SampleApp_ProcessEvent_2:
        INC       DPTR
        MOVX      A,@DPTR
        MOV       DPTR,#SampleApp_NwkState
        MOVX      @DPTR,A
//  316 		  if ( (SampleApp_NwkState == DEV_ZB_COORD)||
//  317 			   (SampleApp_NwkState == DEV_ROUTER)
//  318 			  || (SampleApp_NwkState == DEV_END_DEVICE) )
        XRL       A,#0x9
        JZ        ??SampleApp_ProcessEvent_3
        MOVX      A,@DPTR
        XRL       A,#0x7
        JZ        ??SampleApp_ProcessEvent_3
        MOVX      A,@DPTR
        XRL       A,#0x6
        JNZ       ??CrossCallReturnLabel_63
//  319 		  {
//  320 			// Start sending the periodic message in a regular interval.
//  321 			// osal_start_timerEx(SampleApp_TaskID,
//  322 			// 				  SAMPLEAPP_SEND_PERIODIC_MSG_EVT,
//  323 			// 				  SAMPLEAPP_SEND_PERIODIC_MSG_TIMEOUT);
//  324 			osal_set_event(SampleApp_TaskID, SAMPLEAPP_INITIALIZE_UART_EVT);
??SampleApp_ProcessEvent_3:
        ; Setup parameters for call to function osal_set_event
        MOV       R2,#0x2
        LCALL     ??Subroutine28_0 & 0xFFFF
//  325 		  }
//  326 		  else
//  327 		  {
//  328 			// Device is no longer in the network
//  329 		  }
//  330 		  break;
//  331 
//  332 		default:
//  333 		  break;
//  334 	  }
//  335 
//  336 	  // Release the memory
//  337 	  osal_msg_deallocate( (uint8 *)MSGpkt );
??CrossCallReturnLabel_63:
        ; Setup parameters for call to function osal_msg_deallocate
        MOV       R2,?V0
        MOV       R3,?V1
        LCALL     `??osal_msg_deallocate::?relay`; Banked call to: osal_msg_deallocate
//  338 
//  339 	  // Next - if one is available
//  340 	  MSGpkt = (afIncomingMSGPacket_t *)osal_msg_receive( SampleApp_TaskID );
        ; Setup parameters for call to function osal_msg_receive
??SampleApp_ProcessEvent_1:
        MOV       DPTR,#SampleApp_TaskID
        MOVX      A,@DPTR
        MOV       R1,A
        LCALL     `??osal_msg_receive::?relay`; Banked call to: osal_msg_receive
        MOV       ?V0,R2
        MOV       ?V1,R3
        MOV       A,?V0
        ORL       A,?V1
        JZ        ??SampleApp_ProcessEvent_4
        MOV       DPL,?V0
        MOV       DPH,?V1
        MOVX      A,@DPTR
        ADD       A,#-0x1a
        JZ        ??SampleApp_ProcessEvent_5
        ADD       A,#0x5a
        JZ        ??SampleApp_ProcessEvent_6
        ADD       A,#-0x11
        JZ        ??SampleApp_ProcessEvent_2
        SJMP      ??CrossCallReturnLabel_63
??SampleApp_ProcessEvent_6:
        ; Setup parameters for call to function SampleApp_HandleKeys
        INC       DPTR
        INC       DPTR
        INC       DPTR
        MOVX      A,@DPTR
        MOV       R2,A
        MOV       DPL,?V0
        MOV       DPH,?V1
        INC       DPTR
        INC       DPTR
        MOVX      A,@DPTR
        MOV       R1,A
        LCALL     `??SampleApp_HandleKeys::?relay`; Banked call to: SampleApp_HandleKeys
        SJMP      ??CrossCallReturnLabel_63
??SampleApp_ProcessEvent_5:
        ; Setup parameters for call to function SampleApp_MessageMSGCB
        MOV       R2,?V0
        MOV       R3,?V1
        LCALL     `??SampleApp_MessageMSGCB::?relay`; Banked call to: SampleApp_MessageMSGCB
        SJMP      ??CrossCallReturnLabel_63
//  341 	}
//  342 
//  343 	// return unprocessed events
//  344 	return (events ^ SYS_EVENT_MSG);
??SampleApp_ProcessEvent_4:
        MOV       A,R6
        MOV       R2,A
        MOV       A,R7
        XRL       A,#0x80
        LJMP      ??SampleApp_ProcessEvent_7 & 0xFFFF
//  345   }
//  346 
//  347   if (events & SAMPLEAPP_INITIALIZE_UART_EVT) {
??SampleApp_ProcessEvent_0:
        MOV       A,R2
        ANL       A,#0x2
        JNZ       $+5
        LJMP      ??SampleApp_ProcessEvent_8 & 0xFFFF
//  348 
//  349 		// initialize uart_1
//  350 		uartConfig.configured           = TRUE;
        MOV       A,#0xa
        LCALL     ?XSTACK_DISP0_8
        MOV       A,#0x1
        MOVX      @DPTR,A
//  351 		uartConfig.baudRate             = MT_UART_DEFAULT_BAUDRATE;
        MOV       A,#0xb
        LCALL     ?XSTACK_DISP0_8
        MOV       A,#0x4
        MOVX      @DPTR,A
//  352 		uartConfig.flowControl          = MT_UART_DEFAULT_OVERFLOW;
        MOV       A,#0xc
        LCALL     ?XSTACK_DISP0_8
        CLR       A
        MOVX      @DPTR,A
//  353 		uartConfig.flowControlThreshold = MT_UART_DEFAULT_THRESHOLD;
        MOV       A,#0xd
        LCALL     ?XSTACK_DISP0_8
        MOV       A,#0x40
        LCALL     ??Subroutine29_0 & 0xFFFF
//  354 		uartConfig.rx.maxBufSize        = MT_UART_DEFAULT_MAX_RX_BUFF;
??CrossCallReturnLabel_67:
        MOV       A,#0x14
        LCALL     ?XSTACK_DISP0_8
        MOV       A,#-0x80
        LCALL     ??Subroutine29_0 & 0xFFFF
//  355 		uartConfig.tx.maxBufSize        = MT_UART_DEFAULT_MAX_TX_BUFF;
??CrossCallReturnLabel_68:
        MOV       A,#0x1c
        LCALL     ?XSTACK_DISP0_8
        MOV       A,#-0x80
        LCALL     ??Subroutine29_0 & 0xFFFF
//  356 		uartConfig.idleTimeout          = MT_UART_DEFAULT_IDLE_TIMEOUT;
??CrossCallReturnLabel_69:
        MOV       A,#0xf
        LCALL     ?XSTACK_DISP0_8
        MOV       A,#0x6
        MOVX      @DPTR,A
//  357 		uartConfig.intEnable            = TRUE;
        MOV       A,#0x20
        LCALL     ?XSTACK_DISP0_8
        MOV       A,#0x1
        MOVX      @DPTR,A
//  358 		uartConfig.callBackFunc         = NULL;
        MOV       A,#0x25
        LCALL     ?XSTACK_DISP0_8
        CLR       A
        MOVX      @DPTR,A
        INC       DPTR
        MOVX      @DPTR,A
//  359 		HalUARTOpen(HAL_UART_PORT_1, &uartConfig);
        ; Setup parameters for call to function HalUARTOpen
        MOV       A,#0xa
        LCALL     ?XSTACK_DISP101_8
        MOV       R1,#0x1
        LCALL     `??HalUARTOpen::?relay`; Banked call to: HalUARTOpen
//  360 		debug("UART_1 INITIALIZED!\r\n");
        ; Setup parameters for call to function _UARTSend
        MOV       R2,#`?<Constant "UART_1 INITIALIZED!\\r\\n">` & 0xff
        MOV       R3,#(`?<Constant "UART_1 INITIALIZED!\\r\\n">` >> 8) & 0xff
        MOV       R1,#0x0
        LCALL     `??_UARTSend::?relay`; Banked call to: _UARTSend
//  361 
//  362 		if (isPressed(Key_S1)) {
        MOV       C,0x80.0
        JC        ??SampleApp_ProcessEvent_9
//  363 			debug("Enter AP Mode\r\n");
        ; Setup parameters for call to function _UARTSend
        MOV       R2,#`?<Constant "Enter AP Mode\\r\\n">` & 0xff
        MOV       R3,#(`?<Constant "Enter AP Mode\\r\\n">` >> 8) & 0xff
        MOV       R1,#0x0
        LCALL     `??_UARTSend::?relay`; Banked call to: _UARTSend
//  364 			osal_set_event(SampleApp_TaskID, SAMPLEAPP_CONFIGURE_WIFI_EVT);
        ; Setup parameters for call to function osal_set_event
        MOV       R2,#0x10
        SJMP      ??SampleApp_ProcessEvent_10
//  365 		} else {
//  366 			debug("Enter STA Mode\r\n");
??SampleApp_ProcessEvent_9:
        ; Setup parameters for call to function _UARTSend
        MOV       R2,#`?<Constant "Enter STA Mode\\r\\n">` & 0xff
        MOV       R3,#(`?<Constant "Enter STA Mode\\r\\n">` >> 8) & 0xff
        MOV       R1,#0x0
        LCALL     `??_UARTSend::?relay`; Banked call to: _UARTSend
//  367 			osal_set_event(SampleApp_TaskID, SAMPLEAPP_INITIALIZE_WIFI_EVT);
        ; Setup parameters for call to function osal_set_event
        MOV       R2,#0x4
//  368 		}
??SampleApp_ProcessEvent_10:
        LCALL     ??Subroutine28_0 & 0xFFFF
//  369 		return (events ^ SAMPLEAPP_INITIALIZE_UART_EVT);
??CrossCallReturnLabel_64:
        MOV       A,R6
        XRL       A,#0x2
        LJMP      ??SampleApp_ProcessEvent_11 & 0xFFFF
//  370 	}
//  371 
//  372 	if (events & SAMPLEAPP_CONFIGURE_WIFI_EVT) {
??SampleApp_ProcessEvent_8:
        MOV       A,R2
        ANL       A,#0x10
        JNZ       $+5
        LJMP      ??SampleApp_ProcessEvent_12 & 0xFFFF
//  373 		exit_send();
        ; Setup parameters for call to function exit_send
        LCALL     `??exit_send::?relay`; Banked call to: exit_send
//  374 		_UARTRead(HAL_UART_PORT_1, _buffer, &length);
        ; Setup parameters for call to function _UARTRead
        MOV       R4,?XSP + 0
        MOV       R5,?XSP + 1
        MOV       A,#0x5f
        LCALL     ?XSTACK_DISP101_8
        MOV       R1,#0x1
        LCALL     `??_UARTRead::?relay`; Banked call to: _UARTRead
//  375 		do debug_and_print("AT+RST\r\n");
??SampleApp_ProcessEvent_13:
        LCALL     ?Subroutine12 & 0xFFFF
//  376 		while (wait_for("ready\r\n", "ERROR\r\n", 0));
??CrossCallReturnLabel_50:
        LCALL     ?PUSH_XSTACK_I_TWO
          CFI CFA_XSP16 add(XSP16, 177)
        MOV       R4,#`?<Constant "ERROR\\r\\n">` & 0xff
        MOV       R5,#(`?<Constant "ERROR\\r\\n">` >> 8) & 0xff
        MOV       R2,#`?<Constant "ready\\r\\n">` & 0xff
        MOV       R3,#(`?<Constant "ready\\r\\n">` >> 8) & 0xff
        LCALL     ??Subroutine35_0 & 0xFFFF
??CrossCallReturnLabel_93:
        LCALL     ?DEALLOC_XSTACK8
          CFI CFA_XSP16 add(XSP16, 175)
        CJNE      R1,#0x0,??SampleApp_ProcessEvent_13
//  377 		do debug_and_print("AT+CWMODE=2\r\n");
??SampleApp_ProcessEvent_14:
        MOV       ?V0,#`?<Constant "AT+CWMODE=2\\r\\n">` & 0xff
        MOV       ?V1,#(`?<Constant "AT+CWMODE=2\\r\\n">` >> 8) & 0xff
        ; Setup parameters for call to function _UARTSend
        LCALL     ??Subroutine27_0 & 0xFFFF
//  378 		while (wait_for("OK\r\n", "ERROR\r\n", 0));
??CrossCallReturnLabel_52:
        LCALL     ?PUSH_XSTACK_I_TWO
          CFI CFA_XSP16 add(XSP16, 177)
        LCALL     ?Subroutine13 & 0xFFFF
??CrossCallReturnLabel_83:
        LCALL     ?DEALLOC_XSTACK8
          CFI CFA_XSP16 add(XSP16, 175)
        CJNE      R1,#0x0,??SampleApp_ProcessEvent_14
//  379 		do debug_and_print("AT+CWSAP=\"ESP8266\",\"123456\",11,0\r\n"); // TODO: ADD MACRO
??SampleApp_ProcessEvent_15:
        MOV       ?V0,#`?<Constant "AT+CWSAP=\\"ESP8266\\",\\"1...">` & 0xff
        MOV       ?V1,#(`?<Constant "AT+CWSAP=\\"ESP8266\\",\\"1...">` >> 8) & 0xff
        ; Setup parameters for call to function _UARTSend
        LCALL     ??Subroutine27_0 & 0xFFFF
//  380 		while (wait_for("OK\r\n", "ERROR\r\n", 0));
??CrossCallReturnLabel_53:
        LCALL     ?PUSH_XSTACK_I_TWO
          CFI CFA_XSP16 add(XSP16, 177)
        LCALL     ?Subroutine13 & 0xFFFF
??CrossCallReturnLabel_84:
        LCALL     ?DEALLOC_XSTACK8
          CFI CFA_XSP16 add(XSP16, 175)
        CJNE      R1,#0x0,??SampleApp_ProcessEvent_15
//  381 		do debug_and_print("AT+CIPMODE=0\r\n");
??SampleApp_ProcessEvent_16:
        MOV       ?V0,#`?<Constant "AT+CIPMODE=0\\r\\n">` & 0xff
        MOV       ?V1,#(`?<Constant "AT+CIPMODE=0\\r\\n">` >> 8) & 0xff
        ; Setup parameters for call to function _UARTSend
        LCALL     ??Subroutine27_0 & 0xFFFF
//  382 		while (wait_for("OK\r\n", "ERROR\r\n", 0));
??CrossCallReturnLabel_54:
        LCALL     ?PUSH_XSTACK_I_TWO
          CFI CFA_XSP16 add(XSP16, 177)
        LCALL     ?Subroutine13 & 0xFFFF
??CrossCallReturnLabel_85:
        LCALL     ?DEALLOC_XSTACK8
          CFI CFA_XSP16 add(XSP16, 175)
        CJNE      R1,#0x0,??SampleApp_ProcessEvent_16
//  383 		do debug_and_print("AT+CIPMUX=1\r\n");
??SampleApp_ProcessEvent_17:
        MOV       ?V0,#`?<Constant "AT+CIPMUX=1\\r\\n">` & 0xff
        MOV       ?V1,#(`?<Constant "AT+CIPMUX=1\\r\\n">` >> 8) & 0xff
        ; Setup parameters for call to function _UARTSend
        LCALL     ??Subroutine27_0 & 0xFFFF
//  384 		while (wait_for("OK\r\n", "ERROR\r\n", 0)); 
??CrossCallReturnLabel_55:
        LCALL     ?PUSH_XSTACK_I_TWO
          CFI CFA_XSP16 add(XSP16, 177)
        LCALL     ?Subroutine13 & 0xFFFF
??CrossCallReturnLabel_86:
        LCALL     ?DEALLOC_XSTACK8
          CFI CFA_XSP16 add(XSP16, 175)
        CJNE      R1,#0x0,??SampleApp_ProcessEvent_17
//  385 		do debug_and_print("AT+CIPSERVER=1,8266\r\n");
??SampleApp_ProcessEvent_18:
        MOV       ?V0,#`?<Constant "AT+CIPSERVER=1,8266\\r\\n">` & 0xff
        MOV       ?V1,#(`?<Constant "AT+CIPSERVER=1,8266\\r\\n">` >> 8) & 0xff
        ; Setup parameters for call to function _UARTSend
        LCALL     ??Subroutine27_0 & 0xFFFF
//  386 		while (wait_for("OK\r\n", "ERROR\r\n", 0));
??CrossCallReturnLabel_56:
        LCALL     ?PUSH_XSTACK_I_TWO
          CFI CFA_XSP16 add(XSP16, 177)
        LCALL     ?Subroutine13 & 0xFFFF
??CrossCallReturnLabel_87:
        LCALL     ?DEALLOC_XSTACK8
          CFI CFA_XSP16 add(XSP16, 175)
        CJNE      R1,#0x0,??SampleApp_ProcessEvent_18
//  387 		do {
//  388 			while (wait_for("0,CONNECT\r\n", "0,CONNECT FAIL\r\n", 0));
??SampleApp_ProcessEvent_19:
        ; Setup parameters for call to function wait_for
        MOV       R0,#?V0
        LCALL     ?PUSH_XSTACK_I_TWO
          CFI CFA_XSP16 add(XSP16, 177)
        MOV       R4,#`?<Constant "0,CONNECT FAIL\\r\\n">` & 0xff
        MOV       R5,#(`?<Constant "0,CONNECT FAIL\\r\\n">` >> 8) & 0xff
        MOV       R2,#`?<Constant "0,CONNECT\\r\\n">` & 0xff
        MOV       R3,#(`?<Constant "0,CONNECT\\r\\n">` >> 8) & 0xff
        LCALL     ??Subroutine35_0 & 0xFFFF
//  389 		} while (WiFiSend("CTS\r\n")); // 告诉APP连接已建立，二次握手
??CrossCallReturnLabel_94:
        LCALL     ?DEALLOC_XSTACK8
          CFI CFA_XSP16 add(XSP16, 175)
        CJNE      R1,#0x0,??SampleApp_ProcessEvent_19
        ; Setup parameters for call to function WiFiSend
        MOV       R2,#`?<Constant "CTS\\r\\n">` & 0xff
        MOV       R3,#(`?<Constant "CTS\\r\\n">` >> 8) & 0xff
        LCALL     `??WiFiSend::?relay`; Banked call to: WiFiSend
        MOV       A,R1
        JNZ       ??SampleApp_ProcessEvent_19
//  390 		while (1) {
//  391 			length = WiFiRecv(_buffer);
??SampleApp_ProcessEvent_20:
        ; Setup parameters for call to function WiFiRecv
        MOV       A,#0x5f
        LCALL     ?XSTACK_DISP101_8
        LCALL     ?Subroutine5 & 0xFFFF
//  392 			if (length > 6) { // min: SSIDx\r\n 允许19位长度
??CrossCallReturnLabel_3:
        CLR       C
        MOVX      A,@DPTR
        SUBB      A,#0x7
        INC       DPTR
        MOVX      A,@DPTR
        SUBB      A,#0x0
        JNC       $+5
        LJMP      ??SampleApp_ProcessEvent_21 & 0xFFFF
//  393 				if (osal_memcmp(_buffer, "IP", 2)) {
        ; Setup parameters for call to function osal_memcmp
        MOV       ?V0,#`?<Constant "IP">` & 0xff
        MOV       ?V1,#(`?<Constant "IP">` >> 8) & 0xff
        MOV       ?V2,#0x0
        MOV       R0,#?V0
        LCALL     ?PUSH_XSTACK_I_THREE
          CFI CFA_XSP16 add(XSP16, 178)
        MOV       R4,#0x2
        MOV       R5,#0x0
        MOV       A,#0x62
        LCALL     ?XSTACK_DISP0_8
        LCALL     ?Subroutine18 & 0xFFFF
??CrossCallReturnLabel_16:
        LCALL     ?DEALLOC_XSTACK8
          CFI CFA_XSP16 add(XSP16, 175)
        MOV       A,R1
        JZ        ??SampleApp_ProcessEvent_22
//  394 					nv_id = ZD_NV_IP_ID;
        MOV       ?V4,#0x40
        MOV       ?V5,#0x4
//  395 					nv_len = IP_MAX_LENGTH;
        MOV       ?V0,#0x10
        MOV       ?V1,#0x0
//  396 					prefix_len = 2;
        MOV       ?V6,#0x2
//  397 					WiFiSend("GOT IP\r\n");
        ; Setup parameters for call to function WiFiSend
        MOV       R2,#`?<Constant "GOT IP\\r\\n">` & 0xff
        MOV       R3,#(`?<Constant "GOT IP\\r\\n">` >> 8) & 0xff
        LJMP      ??SampleApp_ProcessEvent_23 & 0xFFFF
//  398 				} else 
//  399 				if (osal_memcmp(_buffer, "PORT", 4)) {
??SampleApp_ProcessEvent_22:
        ; Setup parameters for call to function osal_memcmp
        MOV       ?V0,#`?<Constant "PORT">` & 0xff
        MOV       ?V1,#(`?<Constant "PORT">` >> 8) & 0xff
        MOV       R0,#?V0
        LCALL     ?PUSH_XSTACK_I_THREE
          CFI CFA_XSP16 add(XSP16, 178)
        MOV       R4,#0x4
        MOV       R5,#0x0
        MOV       A,#0x62
        LCALL     ?XSTACK_DISP0_8
        LCALL     ?Subroutine18 & 0xFFFF
??CrossCallReturnLabel_17:
        LCALL     ?DEALLOC_XSTACK8
          CFI CFA_XSP16 add(XSP16, 175)
        MOV       A,R1
        JZ        ??SampleApp_ProcessEvent_24
//  400 					nv_id = ZD_NV_PORT_ID;
        MOV       ?V4,#0x30
        MOV       ?V5,#0x4
//  401 					nv_len = PORT_MAX_LENGTH;
        MOV       ?V0,#0x8
        MOV       ?V1,#0x0
//  402 					prefix_len = 4;
        MOV       ?V6,#0x4
//  403 					WiFiSend("GOT PORT\r\n");
        ; Setup parameters for call to function WiFiSend
        MOV       R2,#`?<Constant "GOT PORT\\r\\n">` & 0xff
        MOV       R3,#(`?<Constant "GOT PORT\\r\\n">` >> 8) & 0xff
        SJMP      ??SampleApp_ProcessEvent_23
//  404 				} else 
//  405 				if (osal_memcmp(_buffer, "SSID", 4)) {
??SampleApp_ProcessEvent_24:
        ; Setup parameters for call to function osal_memcmp
        MOV       ?V0,#`?<Constant "SSID">` & 0xff
        MOV       ?V1,#(`?<Constant "SSID">` >> 8) & 0xff
        MOV       R0,#?V0
        LCALL     ?PUSH_XSTACK_I_THREE
          CFI CFA_XSP16 add(XSP16, 178)
        MOV       R4,#0x4
        MOV       R5,#0x0
        MOV       A,#0x62
        LCALL     ?XSTACK_DISP0_8
        LCALL     ?Subroutine18 & 0xFFFF
??CrossCallReturnLabel_18:
        LCALL     ?DEALLOC_XSTACK8
          CFI CFA_XSP16 add(XSP16, 175)
        MOV       A,R1
        JZ        ??SampleApp_ProcessEvent_25
//  406 					nv_id = ZD_NV_SSID_ID;
        MOV       ?V4,#0x20
        MOV       ?V5,#0x4
//  407 					nv_len = SSID_MAX_LENGTH;
        MOV       ?V0,#0x14
        MOV       ?V1,#0x0
//  408 					prefix_len = 4;
        MOV       ?V6,#0x4
//  409 					WiFiSend("GOT SSID\r\n");
        ; Setup parameters for call to function WiFiSend
        MOV       R2,#`?<Constant "GOT SSID\\r\\n">` & 0xff
        MOV       R3,#(`?<Constant "GOT SSID\\r\\n">` >> 8) & 0xff
        SJMP      ??SampleApp_ProcessEvent_23
//  410 				} else 
//  411 				if (osal_memcmp(_buffer, "PSWD", 4)) {
??SampleApp_ProcessEvent_25:
        ; Setup parameters for call to function osal_memcmp
        MOV       ?V0,#`?<Constant "PSWD">` & 0xff
        MOV       ?V1,#(`?<Constant "PSWD">` >> 8) & 0xff
        MOV       R0,#?V0
        LCALL     ?PUSH_XSTACK_I_THREE
          CFI CFA_XSP16 add(XSP16, 178)
        MOV       R4,#0x4
        MOV       R5,#0x0
        MOV       A,#0x62
        LCALL     ?XSTACK_DISP0_8
        LCALL     ?Subroutine18 & 0xFFFF
??CrossCallReturnLabel_19:
        LCALL     ?DEALLOC_XSTACK8
          CFI CFA_XSP16 add(XSP16, 175)
        MOV       A,R1
        JNZ       $+5
        LJMP      ??SampleApp_ProcessEvent_20 & 0xFFFF
//  412 					nv_id = ZD_NV_PSWD_ID;
        MOV       ?V4,#0x10
        MOV       ?V5,#0x4
//  413 					nv_len = PSWD_MAX_LENGTH;
        MOV       ?V0,#0x14
        MOV       ?V1,#0x0
//  414 					prefix_len = 4;
        MOV       ?V6,#0x4
//  415 					WiFiSend("GOT PSWD\r\n");
        ; Setup parameters for call to function WiFiSend
        MOV       R2,#`?<Constant "GOT PSWD\\r\\n">` & 0xff
        MOV       R3,#(`?<Constant "GOT PSWD\\r\\n">` >> 8) & 0xff
??SampleApp_ProcessEvent_23:
        LCALL     `??WiFiSend::?relay`; Banked call to: WiFiSend
//  416 				} else continue;
//  417 				length -= 2; // \r\n
        MOV       DPL,?XSP + 0
        MOV       DPH,?XSP + 1
        MOVX      A,@DPTR
        ADD       A,#-0x2
        MOVX      @DPTR,A
        INC       DPTR
        MOVX      A,@DPTR
        ADDC      A,#-0x1
        MOVX      @DPTR,A
//  418 				while (length < nv_len + prefix_len + 2) _buffer[length ++] = '\0';
        MOV       A,?V0
        ADD       A,?V6
        MOV       R0,A
        CLR       A
        ADDC      A,#0x0
        MOV       R1,A
        MOV       A,R0
        ADD       A,#0x2
        MOV       R2,A
        CLR       A
        ADDC      A,R1
        MOV       R3,A
        LCALL     ?Subroutine9 & 0xFFFF
??CrossCallReturnLabel_78:
        MOV       A,R2
        SUBB      A,R0
        MOV       R0,A
        MOV       A,R3
        SUBB      A,R1
        MOV       R1,A
        MOV       DPL,?XSP + 0
        MOV       DPH,?XSP + 1
        CLR       C
        MOVX      A,@DPTR
        SUBB      A,R2
        INC       DPTR
        MOVX      A,@DPTR
        SUBB      A,R3
        JNC       ??SampleApp_ProcessEvent_26
        MOV       DPL,?XSP + 0
        MOV       DPH,?XSP + 1
        MOV       A,#0x5f
        LCALL     ?XSTACK_DISP101_8
        MOV       ?V3,R3
        MOVX      A,@DPTR
        ADD       A,R2
        MOV       R2,A
        INC       DPTR
        MOVX      A,@DPTR
        ADDC      A,?V3
        MOV       DPL,R2
        MOV       DPH,A
??SampleApp_ProcessEvent_27:
        CLR       A
        MOVX      @DPTR,A
        INC       DPTR
        MOV       A,R0
        ADD       A,#-0x1
        DEC       R0
        MOV       A,R1
        ADDC      A,#-0x1
        MOV       R1,A
        ORL       A,R0
        JNZ       ??SampleApp_ProcessEvent_27
        MOV       DPL,?XSP + 0
        MOV       DPH,?XSP + 1
        MOVX      A,@DPTR
        ADD       A,R0
        MOVX      @DPTR,A
        INC       DPTR
        MOVX      A,@DPTR
        ADDC      A,R1
        MOVX      @DPTR,A
//  419 				InitNVStatus = osal_nv_item_init(nv_id, nv_len, NULL);
??SampleApp_ProcessEvent_26:
        ; Setup parameters for call to function osal_nv_item_init
        CLR       A
        MOV       ?V3,A
        MOV       R0,#?V2
        LCALL     ?PUSH_XSTACK_I_TWO
          CFI CFA_XSP16 add(XSP16, 177)
        MOV       R4,?V0
        MOV       R5,?V1
        MOV       R2,?V4
        MOV       R3,?V5
        LCALL     ??Subroutine25_0 & 0xFFFF
??CrossCallReturnLabel_45:
        LCALL     ?DEALLOC_XSTACK8
          CFI CFA_XSP16 add(XSP16, 175)
//  420 				writeNVStatus = osal_nv_write(nv_id, 0, nv_len, _buffer + prefix_len);
        MOV       A,#0x5f
        LCALL     ?XSTACK_DISP0_8
        MOV       A,DPL
        ADD       A,?V6
        MOV       ?V2,A
        CLR       A
        ADDC      A,DPH
        MOV       ?V3,A
        ; Setup parameters for call to function osal_nv_write
        MOV       R0,#?V2
        LCALL     ?PUSH_XSTACK_I_TWO
          CFI CFA_XSP16 add(XSP16, 177)
        MOV       R0,#?V0
        LCALL     ?PUSH_XSTACK_I_TWO
          CFI CFA_XSP16 add(XSP16, 179)
        MOV       R4,#0x0
        MOV       R5,#0x0
        MOV       R2,?V4
        MOV       R3,?V5
        LCALL     `??osal_nv_write::?relay`; Banked call to: osal_nv_write
        MOV       A,#0x4
        LCALL     ?DEALLOC_XSTACK8
          CFI CFA_XSP16 add(XSP16, 175)
//  421 				HalUARTWrite(1, _buffer + prefix_len, nv_len);
        ; Setup parameters for call to function HalUARTWrite
        MOV       R4,?V0
        MOV       R5,?V1
        MOV       R2,?V2
        MOV       R3,?V3
        MOV       R1,#0x1
        LCALL     `??HalUARTWrite::?relay`; Banked call to: HalUARTWrite
//  422 				(void) writeNVStatus;
        LJMP      ??SampleApp_ProcessEvent_20 & 0xFFFF
//  423 			} else if (length == 4 && osal_memcmp(_buffer, (uint8 *)"OK\r\n", 4)) {
??SampleApp_ProcessEvent_21:
        MOV       DPL,?XSP + 0
        MOV       DPH,?XSP + 1
        MOVX      A,@DPTR
        XRL       A,#0x4
        JNZ       ??SampleApp_ProcessEvent_28
        INC       DPTR
        MOVX      A,@DPTR
??SampleApp_ProcessEvent_28:
        JZ        $+5
        LJMP      ??SampleApp_ProcessEvent_20 & 0xFFFF
        ; Setup parameters for call to function osal_memcmp
        MOV       ?V0,#`?<Constant "OK\\r\\n">` & 0xff
        MOV       ?V1,#(`?<Constant "OK\\r\\n">` >> 8) & 0xff
        MOV       ?V2,#0x0
        MOV       R0,#?V0
        LCALL     ?PUSH_XSTACK_I_THREE
          CFI CFA_XSP16 add(XSP16, 178)
        MOV       R4,#0x4
        MOV       R5,#0x0
        MOV       A,#0x62
        LCALL     ?XSTACK_DISP0_8
        LCALL     ?Subroutine18 & 0xFFFF
??CrossCallReturnLabel_20:
        LCALL     ?DEALLOC_XSTACK8
          CFI CFA_XSP16 add(XSP16, 175)
        MOV       A,R1
        JNZ       $+5
        LJMP      ??SampleApp_ProcessEvent_20 & 0xFFFF
//  424 				WiFiSend("OVER\r\n");
        ; Setup parameters for call to function WiFiSend
        MOV       R2,#`?<Constant "OVER\\r\\n">` & 0xff
        MOV       R3,#(`?<Constant "OVER\\r\\n">` >> 8) & 0xff
        LCALL     `??WiFiSend::?relay`; Banked call to: WiFiSend
//  425 				_delay_ms(10);
        ; Setup parameters for call to function _delay_ms
        MOV       R2,#0xa
        MOV       R3,#0x0
        LCALL     `??_delay_ms::?relay`; Banked call to: _delay_ms
//  426 				do debug_and_print("AT+RST\r\n");
??SampleApp_ProcessEvent_29:
        LCALL     ?Subroutine12 & 0xFFFF
//  427 				while (wait_for("ready\r\n", "ERROR\r\n", 0));
??CrossCallReturnLabel_51:
        LCALL     ?PUSH_XSTACK_I_TWO
          CFI CFA_XSP16 add(XSP16, 177)
        MOV       R4,#`?<Constant "ERROR\\r\\n">` & 0xff
        MOV       R5,#(`?<Constant "ERROR\\r\\n">` >> 8) & 0xff
        MOV       R2,#`?<Constant "ready\\r\\n">` & 0xff
        MOV       R3,#(`?<Constant "ready\\r\\n">` >> 8) & 0xff
        LCALL     ??Subroutine35_0 & 0xFFFF
??CrossCallReturnLabel_95:
        LCALL     ?DEALLOC_XSTACK8
          CFI CFA_XSP16 add(XSP16, 175)
        CJNE      R1,#0x0,??SampleApp_ProcessEvent_29
//  428 				break;
//  429 			}
//  430 		}
//  431 		osal_set_event(SampleApp_TaskID, SAMPLEAPP_INITIALIZE_WIFI_EVT);
        ; Setup parameters for call to function osal_set_event
        LCALL     ?Subroutine7 & 0xFFFF
//  432 		return (events ^ SAMPLEAPP_CONFIGURE_WIFI_EVT);
??CrossCallReturnLabel_61:
        MOV       A,R6
        XRL       A,#0x10
        LJMP      ??SampleApp_ProcessEvent_11 & 0xFFFF
//  433 	}
//  434 
//  435 	if (events & SAMPLEAPP_INITIALIZE_WIFI_EVT) {
??SampleApp_ProcessEvent_12:
        MOV       A,R2
        ANL       A,#0x4
        JNZ       $+5
        LJMP      ??SampleApp_ProcessEvent_30 & 0xFFFF
//  436 		// initialize esp8266
//  437 		do {
//  438 			exit_send();
??SampleApp_ProcessEvent_31:
        ; Setup parameters for call to function exit_send
        LCALL     `??exit_send::?relay`; Banked call to: exit_send
//  439 			InitNVStatus = osal_nv_item_init(ZD_NV_SSID_ID, SSID_MAX_LENGTH, NULL);
        ; Setup parameters for call to function osal_nv_item_init
        CLR       A
        MOV       ?V0,A
        MOV       ?V1,A
        MOV       R0,#?V0
        LCALL     ?PUSH_XSTACK_I_TWO
          CFI CFA_XSP16 add(XSP16, 177)
        MOV       R4,#0x14
        MOV       R5,#0x0
        MOV       R2,#0x20
        LCALL     ?Subroutine19 & 0xFFFF
??CrossCallReturnLabel_41:
        LCALL     ?DEALLOC_XSTACK8
          CFI CFA_XSP16 add(XSP16, 175)
        MOV       A,R1
        MOV       ?V0,A
//  440 			readNVStatus = osal_nv_read(ZD_NV_SSID_ID, 0, SSID_MAX_LENGTH, SSID);
//  441 			if (readNVStatus != SUCCESS || InitNVStatus != SUCCESS) {
        ; Setup parameters for call to function osal_nv_read
        MOV       A,#0x4b
        LCALL     ?XSTACK_DISP100_8
        MOV       ?V2,R0
        MOV       ?V3,R1
        MOV       R0,#?V2
        LCALL     ?PUSH_XSTACK_I_TWO
          CFI CFA_XSP16 add(XSP16, 177)
        MOV       ?V2,#0x14
        MOV       ?V3,#0x0
        MOV       R0,#?V2
        LCALL     ?PUSH_XSTACK_I_TWO
          CFI CFA_XSP16 add(XSP16, 179)
        MOV       R4,#0x0
        MOV       R5,#0x0
        MOV       R2,#0x20
        LCALL     ?Subroutine20 & 0xFFFF
??CrossCallReturnLabel_31:
        LCALL     ?DEALLOC_XSTACK8
          CFI CFA_XSP16 add(XSP16, 175)
        MOV       A,R1
        JZ        $+5
        LJMP      ??SampleApp_ProcessEvent_32 & 0xFFFF
        MOV       A,?V0
        JZ        $+5
        LJMP      ??SampleApp_ProcessEvent_32 & 0xFFFF
//  442 				debug("Read Flash Failed\r\n");
//  443 				return (events ^ SAMPLEAPP_INITIALIZE_WIFI_EVT);
//  444 			}
//  445 			debug(SSID);
        ; Setup parameters for call to function _UARTSend
        MOV       A,#0x4b
        LCALL     ?XSTACK_DISP101_8
        LCALL     ?Subroutine16 & 0xFFFF
//  446 			InitNVStatus = osal_nv_item_init(ZD_NV_PSWD_ID, PSWD_MAX_LENGTH, NULL);
??CrossCallReturnLabel_13:
        LCALL     ?PUSH_XSTACK_I_TWO
          CFI CFA_XSP16 add(XSP16, 177)
        MOV       R4,#0x14
        MOV       R5,#0x0
        MOV       R2,#0x10
        LCALL     ?Subroutine19 & 0xFFFF
??CrossCallReturnLabel_42:
        LCALL     ?DEALLOC_XSTACK8
          CFI CFA_XSP16 add(XSP16, 175)
        MOV       A,R1
        MOV       ?V0,A
//  447 			readNVStatus = osal_nv_read(ZD_NV_PSWD_ID, 0, PSWD_MAX_LENGTH, PSWD);
//  448 			if (readNVStatus != SUCCESS || InitNVStatus != SUCCESS) {
        ; Setup parameters for call to function osal_nv_read
        MOV       A,#0x37
        LCALL     ?XSTACK_DISP100_8
        MOV       ?V2,R0
        MOV       ?V3,R1
        MOV       R0,#?V2
        LCALL     ?PUSH_XSTACK_I_TWO
          CFI CFA_XSP16 add(XSP16, 177)
        MOV       ?V2,#0x14
        MOV       ?V3,#0x0
        MOV       R0,#?V2
        LCALL     ?PUSH_XSTACK_I_TWO
          CFI CFA_XSP16 add(XSP16, 179)
        MOV       R4,#0x0
        MOV       R5,#0x0
        MOV       R2,#0x10
        LCALL     ?Subroutine20 & 0xFFFF
??CrossCallReturnLabel_32:
        LCALL     ?DEALLOC_XSTACK8
          CFI CFA_XSP16 add(XSP16, 175)
        MOV       A,R1
        JZ        $+5
        LJMP      ??SampleApp_ProcessEvent_32 & 0xFFFF
        MOV       A,?V0
        JZ        $+5
        LJMP      ??SampleApp_ProcessEvent_32 & 0xFFFF
//  449 				debug("Read Flash Failed\r\n");
//  450 				return (events ^ SAMPLEAPP_INITIALIZE_WIFI_EVT);
//  451 			}
//  452 			debug(PSWD);
        ; Setup parameters for call to function _UARTSend
        MOV       A,#0x37
        LCALL     ?XSTACK_DISP101_8
        LCALL     ?Subroutine16 & 0xFFFF
//  453 			InitNVStatus = osal_nv_item_init(ZD_NV_IP_ID, IP_MAX_LENGTH, NULL);
??CrossCallReturnLabel_14:
        LCALL     ?PUSH_XSTACK_I_TWO
          CFI CFA_XSP16 add(XSP16, 177)
        MOV       R4,#0x10
        MOV       R5,#0x0
        MOV       R2,#0x40
        LCALL     ?Subroutine19 & 0xFFFF
??CrossCallReturnLabel_43:
        LCALL     ?DEALLOC_XSTACK8
          CFI CFA_XSP16 add(XSP16, 175)
        MOV       A,R1
        MOV       ?V0,A
//  454 			readNVStatus = osal_nv_read(ZD_NV_IP_ID, 0, IP_MAX_LENGTH, MYIP);
//  455 			if (readNVStatus != SUCCESS || InitNVStatus != SUCCESS) {
        ; Setup parameters for call to function osal_nv_read
        MOV       A,#0x27
        LCALL     ?XSTACK_DISP100_8
        MOV       ?V2,R0
        MOV       ?V3,R1
        MOV       R0,#?V2
        LCALL     ?PUSH_XSTACK_I_TWO
          CFI CFA_XSP16 add(XSP16, 177)
        MOV       ?V2,#0x10
        MOV       ?V3,#0x0
        MOV       R0,#?V2
        LCALL     ?PUSH_XSTACK_I_TWO
          CFI CFA_XSP16 add(XSP16, 179)
        MOV       R4,#0x0
        MOV       R5,#0x0
        MOV       R2,#0x40
        LCALL     ?Subroutine20 & 0xFFFF
??CrossCallReturnLabel_33:
        LCALL     ?DEALLOC_XSTACK8
          CFI CFA_XSP16 add(XSP16, 175)
        MOV       A,R1
        JNZ       ??SampleApp_ProcessEvent_32
        MOV       A,?V0
        JNZ       ??SampleApp_ProcessEvent_32
//  456 				debug("Read Flash Failed\r\n");
//  457 				return (events ^ SAMPLEAPP_INITIALIZE_WIFI_EVT);
//  458 			}
//  459 			debug(MYIP);
        ; Setup parameters for call to function _UARTSend
        MOV       A,#0x27
        LCALL     ?XSTACK_DISP101_8
        LCALL     ?Subroutine16 & 0xFFFF
//  460 			InitNVStatus = osal_nv_item_init(ZD_NV_PORT_ID, PORT_MAX_LENGTH, NULL);
??CrossCallReturnLabel_15:
        LCALL     ?PUSH_XSTACK_I_TWO
          CFI CFA_XSP16 add(XSP16, 177)
        MOV       R4,#0x8
        MOV       R5,#0x0
        MOV       R2,#0x30
        LCALL     ?Subroutine19 & 0xFFFF
??CrossCallReturnLabel_44:
        LCALL     ?DEALLOC_XSTACK8
          CFI CFA_XSP16 add(XSP16, 175)
        MOV       A,R1
        MOV       ?V0,A
//  461 			readNVStatus = osal_nv_read(ZD_NV_PORT_ID, 0, PORT_MAX_LENGTH, PORT);
//  462 			if (readNVStatus != SUCCESS || InitNVStatus != SUCCESS) {
        ; Setup parameters for call to function osal_nv_read
        MOV       A,#0x2
        LCALL     ?XSTACK_DISP100_8
        MOV       ?V2,R0
        MOV       ?V3,R1
        MOV       R0,#?V2
        LCALL     ?PUSH_XSTACK_I_TWO
          CFI CFA_XSP16 add(XSP16, 177)
        MOV       ?V2,#0x8
        MOV       ?V3,#0x0
        MOV       R0,#?V2
        LCALL     ?PUSH_XSTACK_I_TWO
          CFI CFA_XSP16 add(XSP16, 179)
        MOV       R4,#0x0
        MOV       R5,#0x0
        MOV       R2,#0x30
        LCALL     ?Subroutine20 & 0xFFFF
??CrossCallReturnLabel_34:
        LCALL     ?DEALLOC_XSTACK8
          CFI CFA_XSP16 add(XSP16, 175)
        MOV       A,R1
        JNZ       ??SampleApp_ProcessEvent_32
        MOV       A,?V0
        JZ        ??SampleApp_ProcessEvent_33
//  463 				debug("Read Flash Failed\r\n");
??SampleApp_ProcessEvent_32:
        ; Setup parameters for call to function _UARTSend
        MOV       R2,#`?<Constant "Read Flash Failed\\r\\n">` & 0xff
        MOV       R3,#(`?<Constant "Read Flash Failed\\r\\n">` >> 8) & 0xff
        MOV       R1,#0x0
        LCALL     `??_UARTSend::?relay`; Banked call to: _UARTSend
//  464 				return (events ^ SAMPLEAPP_INITIALIZE_WIFI_EVT);
        LJMP      ??CrossCallReturnLabel_65 & 0xFFFF
//  465 			}
//  466 			debug(PORT);
??SampleApp_ProcessEvent_33:
        ; Setup parameters for call to function _UARTSend
        MOV       A,#0x2
        LCALL     ?XSTACK_DISP101_8
        MOV       R1,#0x0
        LCALL     `??_UARTSend::?relay`; Banked call to: _UARTSend
//  467 
//  468 			do debug_and_print("AT+CWMODE=1\r\n");
??SampleApp_ProcessEvent_34:
        MOV       ?V0,#`?<Constant "AT+CWMODE=1\\r\\n">` & 0xff
        MOV       ?V1,#(`?<Constant "AT+CWMODE=1\\r\\n">` >> 8) & 0xff
        ; Setup parameters for call to function _UARTSend
        LCALL     ??Subroutine27_0 & 0xFFFF
//  469 			while (wait_for("OK\r\n", "ERROR\r\n", 0));
??CrossCallReturnLabel_57:
        LCALL     ?PUSH_XSTACK_I_TWO
          CFI CFA_XSP16 add(XSP16, 177)
        LCALL     ?Subroutine13 & 0xFFFF
??CrossCallReturnLabel_88:
        LCALL     ?DEALLOC_XSTACK8
          CFI CFA_XSP16 add(XSP16, 175)
        CJNE      R1,#0x0,??SampleApp_ProcessEvent_34
//  470 			do debug_and_print("AT+CWJAP=\"%s\",\"%s\"\r\n", SSID, PSWD);
??SampleApp_ProcessEvent_35:
        MOV       ?V0,#`?<Constant "AT+CWJAP=\\"%s\\",\\"%s\\"\\r\\n">` & 0xff
        MOV       ?V1,#(`?<Constant "AT+CWJAP=\\"%s\\",\\"%s\\"\\r\\n">` >> 8) & 0xff
        ; Setup parameters for call to function _UARTSend
        MOV       A,#0x37
        LCALL     ?XSTACK_DISP100_8
        MOV       ?V2,R0
        MOV       ?V3,R1
        MOV       R0,#?V2
        LCALL     ?PUSH_XSTACK_I_TWO
          CFI CFA_XSP16 add(XSP16, 177)
        MOV       A,#0x4d
        LCALL     ?XSTACK_DISP100_8
        MOV       ?V2,R0
        MOV       ?V3,R1
        MOV       R0,#?V2
        LCALL     ?PUSH_XSTACK_I_TWO
          CFI CFA_XSP16 add(XSP16, 179)
        LCALL     ?Subroutine17 & 0xFFFF
??CrossCallReturnLabel_46:
        LCALL     ?DEALLOC_XSTACK8
          CFI CFA_XSP16 add(XSP16, 175)
        ; Setup parameters for call to function _UARTSend
        MOV       A,#0x37
        LCALL     ?XSTACK_DISP100_8
        MOV       ?V2,R0
        MOV       ?V3,R1
        MOV       R0,#?V2
        LCALL     ?PUSH_XSTACK_I_TWO
          CFI CFA_XSP16 add(XSP16, 177)
        MOV       A,#0x4d
        LCALL     ?XSTACK_DISP100_8
        MOV       ?V2,R0
        MOV       ?V3,R1
        MOV       R0,#?V2
        LCALL     ?PUSH_XSTACK_I_TWO
          CFI CFA_XSP16 add(XSP16, 179)
        MOV       R2,?V0
        MOV       R3,?V1
        MOV       R1,#0x1
        LCALL     ??Subroutine26_0 & 0xFFFF
??CrossCallReturnLabel_48:
        LCALL     ?DEALLOC_XSTACK8
          CFI CFA_XSP16 add(XSP16, 175)
//  471 			while (wait_for("OK\r\n", "FAIL\r\n", 0));
        ; Setup parameters for call to function wait_for
        CLR       A
        MOV       ?V0,A
        MOV       ?V1,A
        MOV       R0,#?V0
        LCALL     ?PUSH_XSTACK_I_TWO
          CFI CFA_XSP16 add(XSP16, 177)
        MOV       R4,#`?<Constant "FAIL\\r\\n">` & 0xff
        MOV       R5,#(`?<Constant "FAIL\\r\\n">` >> 8) & 0xff
        LCALL     ??Subroutine34_0 & 0xFFFF
??CrossCallReturnLabel_91:
        LCALL     ?DEALLOC_XSTACK8
          CFI CFA_XSP16 add(XSP16, 175)
        CJNE      R1,#0x0,??SampleApp_ProcessEvent_35
//  472 			do debug_and_print("AT+CIPMUX=0\r\n");
??SampleApp_ProcessEvent_36:
        MOV       ?V0,#`?<Constant "AT+CIPMUX=0\\r\\n">` & 0xff
        MOV       ?V1,#(`?<Constant "AT+CIPMUX=0\\r\\n">` >> 8) & 0xff
        ; Setup parameters for call to function _UARTSend
        LCALL     ??Subroutine27_0 & 0xFFFF
//  473 			while (wait_for("OK\r\n", "ERROR\r\n", 0));
??CrossCallReturnLabel_58:
        LCALL     ?PUSH_XSTACK_I_TWO
          CFI CFA_XSP16 add(XSP16, 177)
        LCALL     ?Subroutine13 & 0xFFFF
??CrossCallReturnLabel_89:
        LCALL     ?DEALLOC_XSTACK8
          CFI CFA_XSP16 add(XSP16, 175)
        CJNE      R1,#0x0,??SampleApp_ProcessEvent_36
//  474 			do debug_and_print("AT+CIPMODE=1\r\n");
??SampleApp_ProcessEvent_37:
        MOV       ?V0,#`?<Constant "AT+CIPMODE=1\\r\\n">` & 0xff
        MOV       ?V1,#(`?<Constant "AT+CIPMODE=1\\r\\n">` >> 8) & 0xff
        ; Setup parameters for call to function _UARTSend
        LCALL     ??Subroutine27_0 & 0xFFFF
//  475 			while (wait_for("OK\r\n", "ERROR\r\n", 0));
??CrossCallReturnLabel_59:
        LCALL     ?PUSH_XSTACK_I_TWO
          CFI CFA_XSP16 add(XSP16, 177)
        LCALL     ?Subroutine13 & 0xFFFF
??CrossCallReturnLabel_90:
        LCALL     ?DEALLOC_XSTACK8
          CFI CFA_XSP16 add(XSP16, 175)
        CJNE      R1,#0x0,??SampleApp_ProcessEvent_37
//  476 			do debug_and_print("AT+CIPSTART=\"TCP\",\"%s\",%s\r\n", MYIP, PORT);
??SampleApp_ProcessEvent_38:
        MOV       ?V0,#`?<Constant "AT+CIPSTART=\\"TCP\\",\\"%s...">` & 0xff
        MOV       ?V1,#(`?<Constant "AT+CIPSTART=\\"TCP\\",\\"%s...">` >> 8) & 0xff
        ; Setup parameters for call to function _UARTSend
        MOV       A,#0x2
        LCALL     ?XSTACK_DISP100_8
        MOV       ?V2,R0
        MOV       ?V3,R1
        MOV       R0,#?V2
        LCALL     ?PUSH_XSTACK_I_TWO
          CFI CFA_XSP16 add(XSP16, 177)
        MOV       A,#0x29
        LCALL     ?XSTACK_DISP100_8
        MOV       ?V2,R0
        MOV       ?V3,R1
        MOV       R0,#?V2
        LCALL     ?PUSH_XSTACK_I_TWO
          CFI CFA_XSP16 add(XSP16, 179)
        LCALL     ?Subroutine17 & 0xFFFF
??CrossCallReturnLabel_47:
        LCALL     ?DEALLOC_XSTACK8
          CFI CFA_XSP16 add(XSP16, 175)
        ; Setup parameters for call to function _UARTSend
        MOV       A,#0x2
        LCALL     ?XSTACK_DISP100_8
        MOV       ?V2,R0
        MOV       ?V3,R1
        MOV       R0,#?V2
        LCALL     ?PUSH_XSTACK_I_TWO
          CFI CFA_XSP16 add(XSP16, 177)
        MOV       A,#0x29
        LCALL     ?XSTACK_DISP100_8
        MOV       ?V2,R0
        MOV       ?V3,R1
        MOV       R0,#?V2
        LCALL     ?PUSH_XSTACK_I_TWO
          CFI CFA_XSP16 add(XSP16, 179)
        MOV       R2,?V0
        MOV       R3,?V1
        MOV       R1,#0x1
        LCALL     ??Subroutine26_0 & 0xFFFF
??CrossCallReturnLabel_49:
        LCALL     ?DEALLOC_XSTACK8
          CFI CFA_XSP16 add(XSP16, 175)
//  477 			while (wait_for("OK\r\n", "CLOSED\r\n", 0));
        ; Setup parameters for call to function wait_for
        CLR       A
        MOV       ?V0,A
        MOV       ?V1,A
        MOV       R0,#?V0
        LCALL     ?PUSH_XSTACK_I_TWO
          CFI CFA_XSP16 add(XSP16, 177)
        MOV       R4,#`?<Constant "CLOSED\\r\\n">` & 0xff
        MOV       R5,#(`?<Constant "CLOSED\\r\\n">` >> 8) & 0xff
        LCALL     ??Subroutine34_0 & 0xFFFF
??CrossCallReturnLabel_92:
        LCALL     ?DEALLOC_XSTACK8
          CFI CFA_XSP16 add(XSP16, 175)
        CJNE      R1,#0x0,??SampleApp_ProcessEvent_38
//  478 			debug_and_print("AT+CIPSEND\r\n");
        MOV       ?V0,#`?<Constant "AT+CIPSEND\\r\\n">` & 0xff
        MOV       ?V1,#(`?<Constant "AT+CIPSEND\\r\\n">` >> 8) & 0xff
        ; Setup parameters for call to function _UARTSend
        LCALL     ??Subroutine27_0 & 0xFFFF
//  479 		} while (wait_for(">", "ERROR\r\n", 0));
??CrossCallReturnLabel_60:
        LCALL     ?PUSH_XSTACK_I_TWO
          CFI CFA_XSP16 add(XSP16, 177)
        MOV       R4,#`?<Constant "ERROR\\r\\n">` & 0xff
        MOV       R5,#(`?<Constant "ERROR\\r\\n">` >> 8) & 0xff
        MOV       R2,#`?<Constant ">">` & 0xff
        MOV       R3,#(`?<Constant ">">` >> 8) & 0xff
        LCALL     ??Subroutine35_0 & 0xFFFF
??CrossCallReturnLabel_96:
        LCALL     ?DEALLOC_XSTACK8
          CFI CFA_XSP16 add(XSP16, 175)
        MOV       A,R1
        JZ        $+5
        LJMP      ??SampleApp_ProcessEvent_31 & 0xFFFF
//  480 		
//  481 		// drive initial events
//  482 		_delay_ms(50);
        ; Setup parameters for call to function _delay_ms
        MOV       R2,#0x32
        MOV       R3,#0x0
        LCALL     `??_delay_ms::?relay`; Banked call to: _delay_ms
//  483 		osal_set_event(SampleApp_TaskID, SAMPLEAPP_SEND_HEART_BEAT_EVT);
        ; Setup parameters for call to function osal_set_event
        MOV       R2,#0x8
        LCALL     ??Subroutine28_0 & 0xFFFF
//  484 		return (events ^ SAMPLEAPP_INITIALIZE_WIFI_EVT);
??CrossCallReturnLabel_65:
        MOV       A,R6
        XRL       A,#0x4
        LJMP      ??SampleApp_ProcessEvent_11 & 0xFFFF
//  485 	}
//  486 
//  487 	if (events & SAMPLEAPP_SEND_HEART_BEAT_EVT) {
??SampleApp_ProcessEvent_30:
        MOV       A,R2
        ANL       A,#0x8
        JNZ       $+5
        LJMP      ??SampleApp_ProcessEvent_39 & 0xFFFF
//  488 		length = WiFiRecv(_buffer);
        ; Setup parameters for call to function WiFiRecv
        MOV       A,#0x5f
        LCALL     ?XSTACK_DISP101_8
        LCALL     ?Subroutine5 & 0xFFFF
//  489 		if (length > 0) debug(_buffer);
??CrossCallReturnLabel_4:
        LCALL     ??Subroutine32_0 & 0xFFFF
??CrossCallReturnLabel_76:
        MOV       A,R0
        ORL       A,R1
        JZ        ??SampleApp_ProcessEvent_40
        ; Setup parameters for call to function _UARTSend
        MOV       A,#0x5f
        LCALL     ?XSTACK_DISP101_8
        MOV       R1,#0x0
        LCALL     `??_UARTSend::?relay`; Banked call to: _UARTSend
//  490 		if (osal_memcmp(_buffer, "heartbeat\r\n", 11)) { // 心跳包
??SampleApp_ProcessEvent_40:
        ; Setup parameters for call to function osal_memcmp
        MOV       ?V0,#`?<Constant "heartbeat\\r\\n">` & 0xff
        MOV       ?V1,#(`?<Constant "heartbeat\\r\\n">` >> 8) & 0xff
        MOV       ?V2,#0x0
        MOV       R0,#?V0
        LCALL     ?PUSH_XSTACK_I_THREE
          CFI CFA_XSP16 add(XSP16, 178)
        MOV       R4,#0xb
        MOV       R5,#0x0
        MOV       A,#0x62
        LCALL     ?XSTACK_DISP0_8
        LCALL     ?Subroutine18 & 0xFFFF
??CrossCallReturnLabel_21:
        LCALL     ?DEALLOC_XSTACK8
          CFI CFA_XSP16 add(XSP16, 175)
        MOV       A,R1
        JZ        ??SampleApp_ProcessEvent_41
//  491 			WiFiSend("received\r\n");
        ; Setup parameters for call to function WiFiSend
        MOV       R2,#`?<Constant "received\\r\\n">` & 0xff
        MOV       R3,#(`?<Constant "received\\r\\n">` >> 8) & 0xff
        LJMP      ??SampleApp_ProcessEvent_42 & 0xFFFF
//  492 		} else
//  493 		if (osal_memcmp(_buffer, "environment\r\n", 13)) { // 一次返回所有数据
??SampleApp_ProcessEvent_41:
        ; Setup parameters for call to function osal_memcmp
        MOV       ?V0,#`?<Constant "environment\\r\\n">` & 0xff
        MOV       ?V1,#(`?<Constant "environment\\r\\n">` >> 8) & 0xff
        MOV       R0,#?V0
        LCALL     ?PUSH_XSTACK_I_THREE
          CFI CFA_XSP16 add(XSP16, 178)
        MOV       R4,#0xd
        MOV       R5,#0x0
        MOV       A,#0x62
        LCALL     ?XSTACK_DISP0_8
        LCALL     ?Subroutine18 & 0xFFFF
??CrossCallReturnLabel_22:
        LCALL     ?DEALLOC_XSTACK8
          CFI CFA_XSP16 add(XSP16, 175)
        MOV       A,R1
        JZ        $+5
        LJMP      ??SampleApp_ProcessEvent_43 & 0xFFFF
//  494 			// data = "humidity?{}&temperature?{}"
//  495 			// humidity = [str(i) + "=" + str(random.randint(0, 40)) for i in range(3)]
//  496 			// temperature = [str(i) + "=" + str(random.randint(0, 40)) for i in range(3)]
//  497 			// random.shuffle(humidity)
//  498 			// random.shuffle(temperature)
//  499 			// humidity = ",".join(humidity)
//  500 			// temperature = ",".join(temperature)
//  501 			// s.send(data.format(humidity, temperature).encode('utf-8'))
//  502 		} else 
//  503 		if (osal_memcmp(_buffer, "temperature", 11)) { // 温度
        ; Setup parameters for call to function osal_memcmp
        MOV       ?V0,#`?<Constant "temperature">` & 0xff
        MOV       ?V1,#(`?<Constant "temperature">` >> 8) & 0xff
        MOV       R0,#?V0
        LCALL     ?PUSH_XSTACK_I_THREE
          CFI CFA_XSP16 add(XSP16, 178)
        MOV       R4,#0xb
        MOV       R5,#0x0
        MOV       A,#0x62
        LCALL     ?XSTACK_DISP0_8
        LCALL     ?Subroutine18 & 0xFFFF
??CrossCallReturnLabel_23:
        LCALL     ?DEALLOC_XSTACK8
          CFI CFA_XSP16 add(XSP16, 175)
        MOV       A,R1
        JZ        ??SampleApp_ProcessEvent_44
//  504 			_zigbeeSend("temperature\r\n\0");
        ; Setup parameters for call to function _zigbeeSend
        MOV       R2,#`?<Constant "temperature\\r\\n\\000">` & 0xff
        MOV       R3,#(`?<Constant "temperature\\r\\n\\000">` >> 8) & 0xff
        SJMP      ??SampleApp_ProcessEvent_45
//  505 			// WiFiSend("OK\r\n");
//  506 		} else
//  507 		if (osal_memcmp(_buffer, "humidity", 8)) { // 湿度
??SampleApp_ProcessEvent_44:
        ; Setup parameters for call to function osal_memcmp
        MOV       ?V0,#`?<Constant "humidity">` & 0xff
        MOV       ?V1,#(`?<Constant "humidity">` >> 8) & 0xff
        MOV       R0,#?V0
        LCALL     ?PUSH_XSTACK_I_THREE
          CFI CFA_XSP16 add(XSP16, 178)
        MOV       R4,#0x8
        MOV       R5,#0x0
        MOV       A,#0x62
        LCALL     ?XSTACK_DISP0_8
        LCALL     ?Subroutine18 & 0xFFFF
??CrossCallReturnLabel_24:
        LCALL     ?DEALLOC_XSTACK8
          CFI CFA_XSP16 add(XSP16, 175)
        MOV       A,R1
        JZ        ??SampleApp_ProcessEvent_46
//  508 			_zigbeeSend("humidity\r\n");
        ; Setup parameters for call to function _zigbeeSend
        MOV       R2,#`?<Constant "humidity\\r\\n">` & 0xff
        MOV       R3,#(`?<Constant "humidity\\r\\n">` >> 8) & 0xff
??SampleApp_ProcessEvent_45:
        LCALL     `??_zigbeeSend::?relay`; Banked call to: _zigbeeSend
        LJMP      ??SampleApp_ProcessEvent_43 & 0xFFFF
//  509 			// WiFiSend("OK\r\n");
//  510 		} else
//  511 		if (osal_memcmp(_buffer, "light-on\r\n", 10)) { // 开灯
??SampleApp_ProcessEvent_46:
        ; Setup parameters for call to function osal_memcmp
        MOV       ?V0,#`?<Constant "light-on\\r\\n">` & 0xff
        MOV       ?V1,#(`?<Constant "light-on\\r\\n">` >> 8) & 0xff
        MOV       R0,#?V0
        LCALL     ?PUSH_XSTACK_I_THREE
          CFI CFA_XSP16 add(XSP16, 178)
        MOV       R4,#0xa
        MOV       R5,#0x0
        MOV       A,#0x62
        LCALL     ?XSTACK_DISP0_8
        LCALL     ?Subroutine18 & 0xFFFF
??CrossCallReturnLabel_25:
        LCALL     ?DEALLOC_XSTACK8
          CFI CFA_XSP16 add(XSP16, 175)
        MOV       A,R1
        JZ        ??SampleApp_ProcessEvent_47
//  512 			_zigbeeSend("light-on\r\n");
        ; Setup parameters for call to function _zigbeeSend
        MOV       R2,#`?<Constant "light-on\\r\\n">` & 0xff
        MOV       R3,#(`?<Constant "light-on\\r\\n">` >> 8) & 0xff
        LJMP      ??SampleApp_ProcessEvent_48 & 0xFFFF
//  513 			WiFiSend("OK\r\n");
//  514 		} else
//  515 		if (osal_memcmp(_buffer, "humidify\r\n", 10)) { // 加湿
??SampleApp_ProcessEvent_47:
        ; Setup parameters for call to function osal_memcmp
        MOV       ?V0,#`?<Constant "humidify\\r\\n">` & 0xff
        MOV       ?V1,#(`?<Constant "humidify\\r\\n">` >> 8) & 0xff
        MOV       R0,#?V0
        LCALL     ?PUSH_XSTACK_I_THREE
          CFI CFA_XSP16 add(XSP16, 178)
        MOV       R4,#0xa
        MOV       R5,#0x0
        MOV       A,#0x62
        LCALL     ?XSTACK_DISP0_8
        LCALL     ?Subroutine18 & 0xFFFF
??CrossCallReturnLabel_26:
        LCALL     ?DEALLOC_XSTACK8
          CFI CFA_XSP16 add(XSP16, 175)
        MOV       A,R1
        JZ        ??SampleApp_ProcessEvent_49
//  516 			_zigbeeSend("humidify\r\n");
        ; Setup parameters for call to function _zigbeeSend
        MOV       R2,#`?<Constant "humidify\\r\\n">` & 0xff
        MOV       R3,#(`?<Constant "humidify\\r\\n">` >> 8) & 0xff
        LJMP      ??SampleApp_ProcessEvent_48 & 0xFFFF
//  517 			WiFiSend("OK\r\n");
//  518 		} else
//  519 		if (osal_memcmp(_buffer, "stop-humidify\r\n", 15)) { // 停止加湿
??SampleApp_ProcessEvent_49:
        ; Setup parameters for call to function osal_memcmp
        MOV       ?V0,#`?<Constant "stop-humidify\\r\\n">` & 0xff
        MOV       ?V1,#(`?<Constant "stop-humidify\\r\\n">` >> 8) & 0xff
        MOV       R0,#?V0
        LCALL     ?PUSH_XSTACK_I_THREE
          CFI CFA_XSP16 add(XSP16, 178)
        MOV       R4,#0xf
        MOV       R5,#0x0
        MOV       A,#0x62
        LCALL     ?XSTACK_DISP0_8
        LCALL     ?Subroutine18 & 0xFFFF
??CrossCallReturnLabel_27:
        LCALL     ?DEALLOC_XSTACK8
          CFI CFA_XSP16 add(XSP16, 175)
        MOV       A,R1
        JZ        ??SampleApp_ProcessEvent_50
//  520 			_zigbeeSend("stop-humidify\r\n");
        ; Setup parameters for call to function _zigbeeSend
        MOV       R2,#`?<Constant "stop-humidify\\r\\n">` & 0xff
        MOV       R3,#(`?<Constant "stop-humidify\\r\\n">` >> 8) & 0xff
        SJMP      ??SampleApp_ProcessEvent_48
//  521 			WiFiSend("OK\r\n");
//  522 		} else
//  523 		if (osal_memcmp(_buffer, "drain-water\r\n", 13)) { // 出水
??SampleApp_ProcessEvent_50:
        ; Setup parameters for call to function osal_memcmp
        MOV       ?V0,#`?<Constant "drain-water\\r\\n">` & 0xff
        MOV       ?V1,#(`?<Constant "drain-water\\r\\n">` >> 8) & 0xff
        MOV       R0,#?V0
        LCALL     ?PUSH_XSTACK_I_THREE
          CFI CFA_XSP16 add(XSP16, 178)
        MOV       R4,#0xd
        MOV       R5,#0x0
        MOV       A,#0x62
        LCALL     ?XSTACK_DISP0_8
        LCALL     ?Subroutine18 & 0xFFFF
??CrossCallReturnLabel_28:
        LCALL     ?DEALLOC_XSTACK8
          CFI CFA_XSP16 add(XSP16, 175)
        MOV       A,R1
        JZ        ??SampleApp_ProcessEvent_51
//  524 			_zigbeeSend("drain-water\r\n");
        ; Setup parameters for call to function _zigbeeSend
        MOV       R2,#`?<Constant "drain-water\\r\\n">` & 0xff
        MOV       R3,#(`?<Constant "drain-water\\r\\n">` >> 8) & 0xff
        SJMP      ??SampleApp_ProcessEvent_48
//  525 			WiFiSend("OK\r\n");
//  526 		} else
//  527 		if (osal_memcmp(_buffer, "draw-water\r\n", 12)) { // 进水
??SampleApp_ProcessEvent_51:
        ; Setup parameters for call to function osal_memcmp
        MOV       ?V0,#`?<Constant "draw-water\\r\\n">` & 0xff
        MOV       ?V1,#(`?<Constant "draw-water\\r\\n">` >> 8) & 0xff
        MOV       R0,#?V0
        LCALL     ?PUSH_XSTACK_I_THREE
          CFI CFA_XSP16 add(XSP16, 178)
        MOV       R4,#0xc
        MOV       R5,#0x0
        MOV       A,#0x62
        LCALL     ?XSTACK_DISP0_8
        LCALL     ?Subroutine18 & 0xFFFF
??CrossCallReturnLabel_29:
        LCALL     ?DEALLOC_XSTACK8
          CFI CFA_XSP16 add(XSP16, 175)
        MOV       A,R1
        JZ        ??SampleApp_ProcessEvent_52
//  528 			_zigbeeSend("draw-water\r\n");
        ; Setup parameters for call to function _zigbeeSend
        MOV       R2,#`?<Constant "draw-water\\r\\n">` & 0xff
        MOV       R3,#(`?<Constant "draw-water\\r\\n">` >> 8) & 0xff
        SJMP      ??SampleApp_ProcessEvent_48
//  529 			WiFiSend("OK\r\n");
//  530 		} else
//  531 		if (osal_memcmp(_buffer, "change-water\r\n", 14)) { // 换水
??SampleApp_ProcessEvent_52:
        ; Setup parameters for call to function osal_memcmp
        MOV       ?V0,#`?<Constant "change-water\\r\\n">` & 0xff
        MOV       ?V1,#(`?<Constant "change-water\\r\\n">` >> 8) & 0xff
        MOV       R0,#?V0
        LCALL     ?PUSH_XSTACK_I_THREE
          CFI CFA_XSP16 add(XSP16, 178)
        MOV       R4,#0xe
        MOV       R5,#0x0
        MOV       A,#0x62
        LCALL     ?XSTACK_DISP0_8
        LCALL     ?Subroutine18 & 0xFFFF
??CrossCallReturnLabel_30:
        LCALL     ?DEALLOC_XSTACK8
          CFI CFA_XSP16 add(XSP16, 175)
        MOV       A,R1
        JZ        ??SampleApp_ProcessEvent_43
//  532 			_zigbeeSend("change-water\r\n");
        ; Setup parameters for call to function _zigbeeSend
        MOV       R2,#`?<Constant "change-water\\r\\n">` & 0xff
        MOV       R3,#(`?<Constant "change-water\\r\\n">` >> 8) & 0xff
??SampleApp_ProcessEvent_48:
        LCALL     `??_zigbeeSend::?relay`; Banked call to: _zigbeeSend
//  533 			WiFiSend("OK\r\n");
        ; Setup parameters for call to function WiFiSend
        MOV       R2,#`?<Constant "OK\\r\\n">` & 0xff
        MOV       R3,#(`?<Constant "OK\\r\\n">` >> 8) & 0xff
??SampleApp_ProcessEvent_42:
        LCALL     `??WiFiSend::?relay`; Banked call to: WiFiSend
//  534 		}
//  535 		if (wait_for("received\r\n", "ERROR\r\n", 200)) {
??SampleApp_ProcessEvent_43:
        ; Setup parameters for call to function wait_for
        MOV       ?V0,#-0x38
        MOV       ?V1,#0x0
        MOV       R0,#?V0
        LCALL     ?PUSH_XSTACK_I_TWO
          CFI CFA_XSP16 add(XSP16, 177)
        MOV       R4,#`?<Constant "ERROR\\r\\n">` & 0xff
        MOV       R5,#(`?<Constant "ERROR\\r\\n">` >> 8) & 0xff
        MOV       R2,#`?<Constant "received\\r\\n">` & 0xff
        MOV       R3,#(`?<Constant "received\\r\\n">` >> 8) & 0xff
        LCALL     ??Subroutine35_0 & 0xFFFF
??CrossCallReturnLabel_97:
        LCALL     ?DEALLOC_XSTACK8
          CFI CFA_XSP16 add(XSP16, 175)
        MOV       A,R1
        JZ        ??SampleApp_ProcessEvent_53
//  536 			debug("WIFI RESET\r\n");
        ; Setup parameters for call to function _UARTSend
        MOV       R2,#`?<Constant "WIFI RESET\\r\\n">` & 0xff
        MOV       R3,#(`?<Constant "WIFI RESET\\r\\n">` >> 8) & 0xff
        MOV       R1,#0x0
        LCALL     `??_UARTSend::?relay`; Banked call to: _UARTSend
//  537 			osal_set_event(SampleApp_TaskID, SAMPLEAPP_INITIALIZE_WIFI_EVT);
        ; Setup parameters for call to function osal_set_event
        LCALL     ?Subroutine7 & 0xFFFF
//  538 		} else {
??CrossCallReturnLabel_62:
        SJMP      ??SampleApp_ProcessEvent_54
//  539 			osal_start_timerEx(SampleApp_TaskID, SAMPLEAPP_SEND_HEART_BEAT_EVT, 2000);
??SampleApp_ProcessEvent_53:
        ; Setup parameters for call to function osal_start_timerEx
        MOV       R4,#-0x30
        MOV       R5,#0x7
        MOV       R2,#0x8
        MOV       R3,#0x0
        MOV       DPTR,#SampleApp_TaskID
        MOVX      A,@DPTR
        MOV       R1,A
        LCALL     `??osal_start_timerEx::?relay`; Banked call to: osal_start_timerEx
//  540 		}
//  541 		return (events ^ SAMPLEAPP_SEND_HEART_BEAT_EVT);
??SampleApp_ProcessEvent_54:
        MOV       A,R6
        XRL       A,#0x8
??SampleApp_ProcessEvent_11:
        MOV       R2,A
        MOV       A,R7
??SampleApp_ProcessEvent_7:
        MOV       R3,A
        SJMP      ??SampleApp_ProcessEvent_55
//  542 	}
//  543   
//  544   // Discard unknown events
//  545   return 0;
??SampleApp_ProcessEvent_39:
        MOV       R2,#0x0
        MOV       R3,#0x0
??SampleApp_ProcessEvent_55:
        MOV       A,#-0x61
          CFI EndBlock cfiBlock1
        REQUIRE ?Subroutine0
        REQUIRE _A_P0
        ; // Fall through to label ?Subroutine0
//  546 }

        RSEG BANKED_CODE:HUGECODE:NOROOT(0)
?Subroutine0:
          CFI Block cfiBlock2 Using cfiCommon0
          CFI NoFunction
          CFI CFA_SP SP+0
          CFI CFA_XSP16 add(XSP16, 175)
          CFI VB load(1, XDATA, add(CFA_XSP16, literal(-15)))
          CFI DPL0 load(1, XDATA, add(CFA_XSP16, literal(-2)))
          CFI DPH0 load(1, XDATA, add(CFA_XSP16, literal(-1)))
          CFI R6 load(1, XDATA, add(CFA_XSP16, literal(-16)))
          CFI R7 load(1, XDATA, add(CFA_XSP16, literal(-6)))
          CFI V0 load(1, XDATA, add(CFA_XSP16, literal(-14)))
          CFI V1 load(1, XDATA, add(CFA_XSP16, literal(-13)))
          CFI V2 load(1, XDATA, add(CFA_XSP16, literal(-12)))
          CFI V3 load(1, XDATA, add(CFA_XSP16, literal(-11)))
          CFI V4 load(1, XDATA, add(CFA_XSP16, literal(-10)))
          CFI V5 load(1, XDATA, add(CFA_XSP16, literal(-9)))
          CFI V6 load(1, XDATA, add(CFA_XSP16, literal(-8)))
          CFI V7 load(1, XDATA, add(CFA_XSP16, literal(-7)))
          CFI ?BRET_EXT load(1, XDATA, add(CFA_XSP16, literal(-3)))
          CFI ?RET_HIGH load(1, XDATA, add(CFA_XSP16, literal(-4)))
          CFI ?RET_LOW load(1, XDATA, add(CFA_XSP16, literal(-5)))
          CFI Invalid
        LCALL     ?DEALLOC_XSTACK8
          CFI CFA_XSP16 add(XSP16, 16)
          CFI Valid
        MOV       R7,#0x8
        LJMP      ?BANKED_LEAVE_XDATA
          CFI EndBlock cfiBlock2

        RSEG BANKED_CODE:HUGECODE:NOROOT(0)
?Subroutine20:
          CFI Block cfiCond3 Using cfiCommon0
          CFI Function SampleApp_ProcessEvent
          CFI Conditional ??CrossCallReturnLabel_31
          CFI R6 load(1, XDATA, add(CFA_XSP16, literal(-16)))
          CFI VB load(1, XDATA, add(CFA_XSP16, literal(-15)))
          CFI V0 load(1, XDATA, add(CFA_XSP16, literal(-14)))
          CFI V1 load(1, XDATA, add(CFA_XSP16, literal(-13)))
          CFI V2 load(1, XDATA, add(CFA_XSP16, literal(-12)))
          CFI V3 load(1, XDATA, add(CFA_XSP16, literal(-11)))
          CFI V4 load(1, XDATA, add(CFA_XSP16, literal(-10)))
          CFI V5 load(1, XDATA, add(CFA_XSP16, literal(-9)))
          CFI V6 load(1, XDATA, add(CFA_XSP16, literal(-8)))
          CFI V7 load(1, XDATA, add(CFA_XSP16, literal(-7)))
          CFI R7 load(1, XDATA, add(CFA_XSP16, literal(-6)))
          CFI ?RET_LOW load(1, XDATA, add(CFA_XSP16, literal(-5)))
          CFI ?RET_HIGH load(1, XDATA, add(CFA_XSP16, literal(-4)))
          CFI ?BRET_EXT load(1, XDATA, add(CFA_XSP16, literal(-3)))
          CFI DPL0 load(1, XDATA, add(CFA_XSP16, literal(-2)))
          CFI DPH0 load(1, XDATA, add(CFA_XSP16, literal(-1)))
          CFI CFA_SP SP+-2
          CFI CFA_XSP16 add(XSP16, 179)
          CFI Block cfiCond4 Using cfiCommon0
          CFI (cfiCond4) Function SampleApp_ProcessEvent
          CFI (cfiCond4) Conditional ??CrossCallReturnLabel_32
          CFI (cfiCond4) R6 load(1, XDATA, add(CFA_XSP16, literal(-16)))
          CFI (cfiCond4) VB load(1, XDATA, add(CFA_XSP16, literal(-15)))
          CFI (cfiCond4) V0 load(1, XDATA, add(CFA_XSP16, literal(-14)))
          CFI (cfiCond4) V1 load(1, XDATA, add(CFA_XSP16, literal(-13)))
          CFI (cfiCond4) V2 load(1, XDATA, add(CFA_XSP16, literal(-12)))
          CFI (cfiCond4) V3 load(1, XDATA, add(CFA_XSP16, literal(-11)))
          CFI (cfiCond4) V4 load(1, XDATA, add(CFA_XSP16, literal(-10)))
          CFI (cfiCond4) V5 load(1, XDATA, add(CFA_XSP16, literal(-9)))
          CFI (cfiCond4) V6 load(1, XDATA, add(CFA_XSP16, literal(-8)))
          CFI (cfiCond4) V7 load(1, XDATA, add(CFA_XSP16, literal(-7)))
          CFI (cfiCond4) R7 load(1, XDATA, add(CFA_XSP16, literal(-6)))
          CFI (cfiCond4) ?RET_LOW load(1, XDATA, add(CFA_XSP16, literal(-5)))
          CFI (cfiCond4) ?RET_HIGH load(1, XDATA, add(CFA_XSP16, literal(-4)))
          CFI (cfiCond4) ?BRET_EXT load(1, XDATA, add(CFA_XSP16, literal(-3)))
          CFI (cfiCond4) DPL0 load(1, XDATA, add(CFA_XSP16, literal(-2)))
          CFI (cfiCond4) DPH0 load(1, XDATA, add(CFA_XSP16, literal(-1)))
          CFI (cfiCond4) CFA_SP SP+-2
          CFI (cfiCond4) CFA_XSP16 add(XSP16, 179)
          CFI Block cfiCond5 Using cfiCommon0
          CFI (cfiCond5) Function SampleApp_ProcessEvent
          CFI (cfiCond5) Conditional ??CrossCallReturnLabel_33
          CFI (cfiCond5) R6 load(1, XDATA, add(CFA_XSP16, literal(-16)))
          CFI (cfiCond5) VB load(1, XDATA, add(CFA_XSP16, literal(-15)))
          CFI (cfiCond5) V0 load(1, XDATA, add(CFA_XSP16, literal(-14)))
          CFI (cfiCond5) V1 load(1, XDATA, add(CFA_XSP16, literal(-13)))
          CFI (cfiCond5) V2 load(1, XDATA, add(CFA_XSP16, literal(-12)))
          CFI (cfiCond5) V3 load(1, XDATA, add(CFA_XSP16, literal(-11)))
          CFI (cfiCond5) V4 load(1, XDATA, add(CFA_XSP16, literal(-10)))
          CFI (cfiCond5) V5 load(1, XDATA, add(CFA_XSP16, literal(-9)))
          CFI (cfiCond5) V6 load(1, XDATA, add(CFA_XSP16, literal(-8)))
          CFI (cfiCond5) V7 load(1, XDATA, add(CFA_XSP16, literal(-7)))
          CFI (cfiCond5) R7 load(1, XDATA, add(CFA_XSP16, literal(-6)))
          CFI (cfiCond5) ?RET_LOW load(1, XDATA, add(CFA_XSP16, literal(-5)))
          CFI (cfiCond5) ?RET_HIGH load(1, XDATA, add(CFA_XSP16, literal(-4)))
          CFI (cfiCond5) ?BRET_EXT load(1, XDATA, add(CFA_XSP16, literal(-3)))
          CFI (cfiCond5) DPL0 load(1, XDATA, add(CFA_XSP16, literal(-2)))
          CFI (cfiCond5) DPH0 load(1, XDATA, add(CFA_XSP16, literal(-1)))
          CFI (cfiCond5) CFA_SP SP+-2
          CFI (cfiCond5) CFA_XSP16 add(XSP16, 179)
          CFI Block cfiCond6 Using cfiCommon0
          CFI (cfiCond6) Function SampleApp_ProcessEvent
          CFI (cfiCond6) Conditional ??CrossCallReturnLabel_34
          CFI (cfiCond6) R6 load(1, XDATA, add(CFA_XSP16, literal(-16)))
          CFI (cfiCond6) VB load(1, XDATA, add(CFA_XSP16, literal(-15)))
          CFI (cfiCond6) V0 load(1, XDATA, add(CFA_XSP16, literal(-14)))
          CFI (cfiCond6) V1 load(1, XDATA, add(CFA_XSP16, literal(-13)))
          CFI (cfiCond6) V2 load(1, XDATA, add(CFA_XSP16, literal(-12)))
          CFI (cfiCond6) V3 load(1, XDATA, add(CFA_XSP16, literal(-11)))
          CFI (cfiCond6) V4 load(1, XDATA, add(CFA_XSP16, literal(-10)))
          CFI (cfiCond6) V5 load(1, XDATA, add(CFA_XSP16, literal(-9)))
          CFI (cfiCond6) V6 load(1, XDATA, add(CFA_XSP16, literal(-8)))
          CFI (cfiCond6) V7 load(1, XDATA, add(CFA_XSP16, literal(-7)))
          CFI (cfiCond6) R7 load(1, XDATA, add(CFA_XSP16, literal(-6)))
          CFI (cfiCond6) ?RET_LOW load(1, XDATA, add(CFA_XSP16, literal(-5)))
          CFI (cfiCond6) ?RET_HIGH load(1, XDATA, add(CFA_XSP16, literal(-4)))
          CFI (cfiCond6) ?BRET_EXT load(1, XDATA, add(CFA_XSP16, literal(-3)))
          CFI (cfiCond6) DPL0 load(1, XDATA, add(CFA_XSP16, literal(-2)))
          CFI (cfiCond6) DPH0 load(1, XDATA, add(CFA_XSP16, literal(-1)))
          CFI (cfiCond6) CFA_SP SP+-2
          CFI (cfiCond6) CFA_XSP16 add(XSP16, 179)
          CFI Block cfiPicker7 Using cfiCommon1
          CFI (cfiPicker7) NoFunction
          CFI (cfiPicker7) Picker
        MOV       R3,#0x4
        LCALL     `??osal_nv_read::?relay`; Banked call to: osal_nv_read
        MOV       A,#0x4
        RET
          CFI EndBlock cfiCond3
          CFI EndBlock cfiCond4
          CFI EndBlock cfiCond5
          CFI EndBlock cfiCond6
          CFI EndBlock cfiPicker7

        RSEG BANKED_CODE:HUGECODE:NOROOT(0)
?Subroutine19:
          CFI Block cfiCond8 Using cfiCommon0
          CFI Function SampleApp_ProcessEvent
          CFI Conditional ??CrossCallReturnLabel_41
          CFI R6 load(1, XDATA, add(CFA_XSP16, literal(-16)))
          CFI VB load(1, XDATA, add(CFA_XSP16, literal(-15)))
          CFI V0 load(1, XDATA, add(CFA_XSP16, literal(-14)))
          CFI V1 load(1, XDATA, add(CFA_XSP16, literal(-13)))
          CFI V2 load(1, XDATA, add(CFA_XSP16, literal(-12)))
          CFI V3 load(1, XDATA, add(CFA_XSP16, literal(-11)))
          CFI V4 load(1, XDATA, add(CFA_XSP16, literal(-10)))
          CFI V5 load(1, XDATA, add(CFA_XSP16, literal(-9)))
          CFI V6 load(1, XDATA, add(CFA_XSP16, literal(-8)))
          CFI V7 load(1, XDATA, add(CFA_XSP16, literal(-7)))
          CFI R7 load(1, XDATA, add(CFA_XSP16, literal(-6)))
          CFI ?RET_LOW load(1, XDATA, add(CFA_XSP16, literal(-5)))
          CFI ?RET_HIGH load(1, XDATA, add(CFA_XSP16, literal(-4)))
          CFI ?BRET_EXT load(1, XDATA, add(CFA_XSP16, literal(-3)))
          CFI DPL0 load(1, XDATA, add(CFA_XSP16, literal(-2)))
          CFI DPH0 load(1, XDATA, add(CFA_XSP16, literal(-1)))
          CFI CFA_SP SP+-2
          CFI CFA_XSP16 add(XSP16, 177)
          CFI Block cfiCond9 Using cfiCommon0
          CFI (cfiCond9) Function SampleApp_ProcessEvent
          CFI (cfiCond9) Conditional ??CrossCallReturnLabel_42
          CFI (cfiCond9) R6 load(1, XDATA, add(CFA_XSP16, literal(-16)))
          CFI (cfiCond9) VB load(1, XDATA, add(CFA_XSP16, literal(-15)))
          CFI (cfiCond9) V0 load(1, XDATA, add(CFA_XSP16, literal(-14)))
          CFI (cfiCond9) V1 load(1, XDATA, add(CFA_XSP16, literal(-13)))
          CFI (cfiCond9) V2 load(1, XDATA, add(CFA_XSP16, literal(-12)))
          CFI (cfiCond9) V3 load(1, XDATA, add(CFA_XSP16, literal(-11)))
          CFI (cfiCond9) V4 load(1, XDATA, add(CFA_XSP16, literal(-10)))
          CFI (cfiCond9) V5 load(1, XDATA, add(CFA_XSP16, literal(-9)))
          CFI (cfiCond9) V6 load(1, XDATA, add(CFA_XSP16, literal(-8)))
          CFI (cfiCond9) V7 load(1, XDATA, add(CFA_XSP16, literal(-7)))
          CFI (cfiCond9) R7 load(1, XDATA, add(CFA_XSP16, literal(-6)))
          CFI (cfiCond9) ?RET_LOW load(1, XDATA, add(CFA_XSP16, literal(-5)))
          CFI (cfiCond9) ?RET_HIGH load(1, XDATA, add(CFA_XSP16, literal(-4)))
          CFI (cfiCond9) ?BRET_EXT load(1, XDATA, add(CFA_XSP16, literal(-3)))
          CFI (cfiCond9) DPL0 load(1, XDATA, add(CFA_XSP16, literal(-2)))
          CFI (cfiCond9) DPH0 load(1, XDATA, add(CFA_XSP16, literal(-1)))
          CFI (cfiCond9) CFA_SP SP+-2
          CFI (cfiCond9) CFA_XSP16 add(XSP16, 177)
          CFI Block cfiCond10 Using cfiCommon0
          CFI (cfiCond10) Function SampleApp_ProcessEvent
          CFI (cfiCond10) Conditional ??CrossCallReturnLabel_43
          CFI (cfiCond10) R6 load(1, XDATA, add(CFA_XSP16, literal(-16)))
          CFI (cfiCond10) VB load(1, XDATA, add(CFA_XSP16, literal(-15)))
          CFI (cfiCond10) V0 load(1, XDATA, add(CFA_XSP16, literal(-14)))
          CFI (cfiCond10) V1 load(1, XDATA, add(CFA_XSP16, literal(-13)))
          CFI (cfiCond10) V2 load(1, XDATA, add(CFA_XSP16, literal(-12)))
          CFI (cfiCond10) V3 load(1, XDATA, add(CFA_XSP16, literal(-11)))
          CFI (cfiCond10) V4 load(1, XDATA, add(CFA_XSP16, literal(-10)))
          CFI (cfiCond10) V5 load(1, XDATA, add(CFA_XSP16, literal(-9)))
          CFI (cfiCond10) V6 load(1, XDATA, add(CFA_XSP16, literal(-8)))
          CFI (cfiCond10) V7 load(1, XDATA, add(CFA_XSP16, literal(-7)))
          CFI (cfiCond10) R7 load(1, XDATA, add(CFA_XSP16, literal(-6)))
          CFI (cfiCond10) ?RET_LOW load(1, XDATA, add(CFA_XSP16, literal(-5)))
          CFI (cfiCond10) ?RET_HIGH load(1, XDATA, add(CFA_XSP16, literal(-4)))
          CFI (cfiCond10) ?BRET_EXT load(1, XDATA, add(CFA_XSP16, literal(-3)))
          CFI (cfiCond10) DPL0 load(1, XDATA, add(CFA_XSP16, literal(-2)))
          CFI (cfiCond10) DPH0 load(1, XDATA, add(CFA_XSP16, literal(-1)))
          CFI (cfiCond10) CFA_SP SP+-2
          CFI (cfiCond10) CFA_XSP16 add(XSP16, 177)
          CFI Block cfiCond11 Using cfiCommon0
          CFI (cfiCond11) Function SampleApp_ProcessEvent
          CFI (cfiCond11) Conditional ??CrossCallReturnLabel_44
          CFI (cfiCond11) R6 load(1, XDATA, add(CFA_XSP16, literal(-16)))
          CFI (cfiCond11) VB load(1, XDATA, add(CFA_XSP16, literal(-15)))
          CFI (cfiCond11) V0 load(1, XDATA, add(CFA_XSP16, literal(-14)))
          CFI (cfiCond11) V1 load(1, XDATA, add(CFA_XSP16, literal(-13)))
          CFI (cfiCond11) V2 load(1, XDATA, add(CFA_XSP16, literal(-12)))
          CFI (cfiCond11) V3 load(1, XDATA, add(CFA_XSP16, literal(-11)))
          CFI (cfiCond11) V4 load(1, XDATA, add(CFA_XSP16, literal(-10)))
          CFI (cfiCond11) V5 load(1, XDATA, add(CFA_XSP16, literal(-9)))
          CFI (cfiCond11) V6 load(1, XDATA, add(CFA_XSP16, literal(-8)))
          CFI (cfiCond11) V7 load(1, XDATA, add(CFA_XSP16, literal(-7)))
          CFI (cfiCond11) R7 load(1, XDATA, add(CFA_XSP16, literal(-6)))
          CFI (cfiCond11) ?RET_LOW load(1, XDATA, add(CFA_XSP16, literal(-5)))
          CFI (cfiCond11) ?RET_HIGH load(1, XDATA, add(CFA_XSP16, literal(-4)))
          CFI (cfiCond11) ?BRET_EXT load(1, XDATA, add(CFA_XSP16, literal(-3)))
          CFI (cfiCond11) DPL0 load(1, XDATA, add(CFA_XSP16, literal(-2)))
          CFI (cfiCond11) DPH0 load(1, XDATA, add(CFA_XSP16, literal(-1)))
          CFI (cfiCond11) CFA_SP SP+-2
          CFI (cfiCond11) CFA_XSP16 add(XSP16, 177)
          CFI Block cfiPicker12 Using cfiCommon1
          CFI (cfiPicker12) NoFunction
          CFI (cfiPicker12) Picker
        MOV       R3,#0x4
          CFI EndBlock cfiCond8
          CFI EndBlock cfiCond9
          CFI EndBlock cfiCond10
          CFI EndBlock cfiCond11
          CFI EndBlock cfiPicker12
        REQUIRE ??Subroutine25_0
        ; // Fall through to label ??Subroutine25_0

        RSEG BANKED_CODE:HUGECODE:NOROOT(0)
??Subroutine25_0:
          CFI Block cfiCond13 Using cfiCommon0
          CFI Function SampleApp_ProcessEvent
          CFI Conditional ??CrossCallReturnLabel_45
          CFI R6 load(1, XDATA, add(CFA_XSP16, literal(-16)))
          CFI VB load(1, XDATA, add(CFA_XSP16, literal(-15)))
          CFI V0 load(1, XDATA, add(CFA_XSP16, literal(-14)))
          CFI V1 load(1, XDATA, add(CFA_XSP16, literal(-13)))
          CFI V2 load(1, XDATA, add(CFA_XSP16, literal(-12)))
          CFI V3 load(1, XDATA, add(CFA_XSP16, literal(-11)))
          CFI V4 load(1, XDATA, add(CFA_XSP16, literal(-10)))
          CFI V5 load(1, XDATA, add(CFA_XSP16, literal(-9)))
          CFI V6 load(1, XDATA, add(CFA_XSP16, literal(-8)))
          CFI V7 load(1, XDATA, add(CFA_XSP16, literal(-7)))
          CFI R7 load(1, XDATA, add(CFA_XSP16, literal(-6)))
          CFI ?RET_LOW load(1, XDATA, add(CFA_XSP16, literal(-5)))
          CFI ?RET_HIGH load(1, XDATA, add(CFA_XSP16, literal(-4)))
          CFI ?BRET_EXT load(1, XDATA, add(CFA_XSP16, literal(-3)))
          CFI DPL0 load(1, XDATA, add(CFA_XSP16, literal(-2)))
          CFI DPH0 load(1, XDATA, add(CFA_XSP16, literal(-1)))
          CFI CFA_SP SP+-2
          CFI CFA_XSP16 add(XSP16, 177)
          CFI Block cfiCond14 Using cfiCommon0
          CFI (cfiCond14) Function SampleApp_ProcessEvent
          CFI (cfiCond14) Conditional ??CrossCallReturnLabel_41
          CFI (cfiCond14) R6 load(1, XDATA, add(CFA_XSP16, literal(-16)))
          CFI (cfiCond14) VB load(1, XDATA, add(CFA_XSP16, literal(-15)))
          CFI (cfiCond14) V0 load(1, XDATA, add(CFA_XSP16, literal(-14)))
          CFI (cfiCond14) V1 load(1, XDATA, add(CFA_XSP16, literal(-13)))
          CFI (cfiCond14) V2 load(1, XDATA, add(CFA_XSP16, literal(-12)))
          CFI (cfiCond14) V3 load(1, XDATA, add(CFA_XSP16, literal(-11)))
          CFI (cfiCond14) V4 load(1, XDATA, add(CFA_XSP16, literal(-10)))
          CFI (cfiCond14) V5 load(1, XDATA, add(CFA_XSP16, literal(-9)))
          CFI (cfiCond14) V6 load(1, XDATA, add(CFA_XSP16, literal(-8)))
          CFI (cfiCond14) V7 load(1, XDATA, add(CFA_XSP16, literal(-7)))
          CFI (cfiCond14) R7 load(1, XDATA, add(CFA_XSP16, literal(-6)))
          CFI (cfiCond14) ?RET_LOW load(1, XDATA, add(CFA_XSP16, literal(-5)))
          CFI (cfiCond14) ?RET_HIGH load(1, XDATA, add(CFA_XSP16, literal(-4)))
          CFI (cfiCond14) ?BRET_EXT load(1, XDATA, add(CFA_XSP16, literal(-3)))
          CFI (cfiCond14) DPL0 load(1, XDATA, add(CFA_XSP16, literal(-2)))
          CFI (cfiCond14) DPH0 load(1, XDATA, add(CFA_XSP16, literal(-1)))
          CFI (cfiCond14) CFA_SP SP+-2
          CFI (cfiCond14) CFA_XSP16 add(XSP16, 177)
          CFI Block cfiCond15 Using cfiCommon0
          CFI (cfiCond15) Function SampleApp_ProcessEvent
          CFI (cfiCond15) Conditional ??CrossCallReturnLabel_42
          CFI (cfiCond15) R6 load(1, XDATA, add(CFA_XSP16, literal(-16)))
          CFI (cfiCond15) VB load(1, XDATA, add(CFA_XSP16, literal(-15)))
          CFI (cfiCond15) V0 load(1, XDATA, add(CFA_XSP16, literal(-14)))
          CFI (cfiCond15) V1 load(1, XDATA, add(CFA_XSP16, literal(-13)))
          CFI (cfiCond15) V2 load(1, XDATA, add(CFA_XSP16, literal(-12)))
          CFI (cfiCond15) V3 load(1, XDATA, add(CFA_XSP16, literal(-11)))
          CFI (cfiCond15) V4 load(1, XDATA, add(CFA_XSP16, literal(-10)))
          CFI (cfiCond15) V5 load(1, XDATA, add(CFA_XSP16, literal(-9)))
          CFI (cfiCond15) V6 load(1, XDATA, add(CFA_XSP16, literal(-8)))
          CFI (cfiCond15) V7 load(1, XDATA, add(CFA_XSP16, literal(-7)))
          CFI (cfiCond15) R7 load(1, XDATA, add(CFA_XSP16, literal(-6)))
          CFI (cfiCond15) ?RET_LOW load(1, XDATA, add(CFA_XSP16, literal(-5)))
          CFI (cfiCond15) ?RET_HIGH load(1, XDATA, add(CFA_XSP16, literal(-4)))
          CFI (cfiCond15) ?BRET_EXT load(1, XDATA, add(CFA_XSP16, literal(-3)))
          CFI (cfiCond15) DPL0 load(1, XDATA, add(CFA_XSP16, literal(-2)))
          CFI (cfiCond15) DPH0 load(1, XDATA, add(CFA_XSP16, literal(-1)))
          CFI (cfiCond15) CFA_SP SP+-2
          CFI (cfiCond15) CFA_XSP16 add(XSP16, 177)
          CFI Block cfiCond16 Using cfiCommon0
          CFI (cfiCond16) Function SampleApp_ProcessEvent
          CFI (cfiCond16) Conditional ??CrossCallReturnLabel_43
          CFI (cfiCond16) R6 load(1, XDATA, add(CFA_XSP16, literal(-16)))
          CFI (cfiCond16) VB load(1, XDATA, add(CFA_XSP16, literal(-15)))
          CFI (cfiCond16) V0 load(1, XDATA, add(CFA_XSP16, literal(-14)))
          CFI (cfiCond16) V1 load(1, XDATA, add(CFA_XSP16, literal(-13)))
          CFI (cfiCond16) V2 load(1, XDATA, add(CFA_XSP16, literal(-12)))
          CFI (cfiCond16) V3 load(1, XDATA, add(CFA_XSP16, literal(-11)))
          CFI (cfiCond16) V4 load(1, XDATA, add(CFA_XSP16, literal(-10)))
          CFI (cfiCond16) V5 load(1, XDATA, add(CFA_XSP16, literal(-9)))
          CFI (cfiCond16) V6 load(1, XDATA, add(CFA_XSP16, literal(-8)))
          CFI (cfiCond16) V7 load(1, XDATA, add(CFA_XSP16, literal(-7)))
          CFI (cfiCond16) R7 load(1, XDATA, add(CFA_XSP16, literal(-6)))
          CFI (cfiCond16) ?RET_LOW load(1, XDATA, add(CFA_XSP16, literal(-5)))
          CFI (cfiCond16) ?RET_HIGH load(1, XDATA, add(CFA_XSP16, literal(-4)))
          CFI (cfiCond16) ?BRET_EXT load(1, XDATA, add(CFA_XSP16, literal(-3)))
          CFI (cfiCond16) DPL0 load(1, XDATA, add(CFA_XSP16, literal(-2)))
          CFI (cfiCond16) DPH0 load(1, XDATA, add(CFA_XSP16, literal(-1)))
          CFI (cfiCond16) CFA_SP SP+-2
          CFI (cfiCond16) CFA_XSP16 add(XSP16, 177)
          CFI Block cfiCond17 Using cfiCommon0
          CFI (cfiCond17) Function SampleApp_ProcessEvent
          CFI (cfiCond17) Conditional ??CrossCallReturnLabel_44
          CFI (cfiCond17) R6 load(1, XDATA, add(CFA_XSP16, literal(-16)))
          CFI (cfiCond17) VB load(1, XDATA, add(CFA_XSP16, literal(-15)))
          CFI (cfiCond17) V0 load(1, XDATA, add(CFA_XSP16, literal(-14)))
          CFI (cfiCond17) V1 load(1, XDATA, add(CFA_XSP16, literal(-13)))
          CFI (cfiCond17) V2 load(1, XDATA, add(CFA_XSP16, literal(-12)))
          CFI (cfiCond17) V3 load(1, XDATA, add(CFA_XSP16, literal(-11)))
          CFI (cfiCond17) V4 load(1, XDATA, add(CFA_XSP16, literal(-10)))
          CFI (cfiCond17) V5 load(1, XDATA, add(CFA_XSP16, literal(-9)))
          CFI (cfiCond17) V6 load(1, XDATA, add(CFA_XSP16, literal(-8)))
          CFI (cfiCond17) V7 load(1, XDATA, add(CFA_XSP16, literal(-7)))
          CFI (cfiCond17) R7 load(1, XDATA, add(CFA_XSP16, literal(-6)))
          CFI (cfiCond17) ?RET_LOW load(1, XDATA, add(CFA_XSP16, literal(-5)))
          CFI (cfiCond17) ?RET_HIGH load(1, XDATA, add(CFA_XSP16, literal(-4)))
          CFI (cfiCond17) ?BRET_EXT load(1, XDATA, add(CFA_XSP16, literal(-3)))
          CFI (cfiCond17) DPL0 load(1, XDATA, add(CFA_XSP16, literal(-2)))
          CFI (cfiCond17) DPH0 load(1, XDATA, add(CFA_XSP16, literal(-1)))
          CFI (cfiCond17) CFA_SP SP+-2
          CFI (cfiCond17) CFA_XSP16 add(XSP16, 177)
          CFI Block cfiPicker18 Using cfiCommon1
          CFI (cfiPicker18) NoFunction
          CFI (cfiPicker18) Picker
        LCALL     `??osal_nv_item_init::?relay`; Banked call to: osal_nv_item_init
        MOV       A,#0x2
        RET
          CFI EndBlock cfiCond13
          CFI EndBlock cfiCond14
          CFI EndBlock cfiCond15
          CFI EndBlock cfiCond16
          CFI EndBlock cfiCond17
          CFI EndBlock cfiPicker18

        RSEG BANKED_CODE:HUGECODE:NOROOT(0)
?Subroutine18:
          CFI Block cfiCond19 Using cfiCommon0
          CFI Function SampleApp_ProcessEvent
          CFI Conditional ??CrossCallReturnLabel_16
          CFI R6 load(1, XDATA, add(CFA_XSP16, literal(-16)))
          CFI VB load(1, XDATA, add(CFA_XSP16, literal(-15)))
          CFI V0 load(1, XDATA, add(CFA_XSP16, literal(-14)))
          CFI V1 load(1, XDATA, add(CFA_XSP16, literal(-13)))
          CFI V2 load(1, XDATA, add(CFA_XSP16, literal(-12)))
          CFI V3 load(1, XDATA, add(CFA_XSP16, literal(-11)))
          CFI V4 load(1, XDATA, add(CFA_XSP16, literal(-10)))
          CFI V5 load(1, XDATA, add(CFA_XSP16, literal(-9)))
          CFI V6 load(1, XDATA, add(CFA_XSP16, literal(-8)))
          CFI V7 load(1, XDATA, add(CFA_XSP16, literal(-7)))
          CFI R7 load(1, XDATA, add(CFA_XSP16, literal(-6)))
          CFI ?RET_LOW load(1, XDATA, add(CFA_XSP16, literal(-5)))
          CFI ?RET_HIGH load(1, XDATA, add(CFA_XSP16, literal(-4)))
          CFI ?BRET_EXT load(1, XDATA, add(CFA_XSP16, literal(-3)))
          CFI DPL0 load(1, XDATA, add(CFA_XSP16, literal(-2)))
          CFI DPH0 load(1, XDATA, add(CFA_XSP16, literal(-1)))
          CFI CFA_SP SP+-2
          CFI CFA_XSP16 add(XSP16, 178)
          CFI Block cfiCond20 Using cfiCommon0
          CFI (cfiCond20) Function SampleApp_ProcessEvent
          CFI (cfiCond20) Conditional ??CrossCallReturnLabel_17
          CFI (cfiCond20) R6 load(1, XDATA, add(CFA_XSP16, literal(-16)))
          CFI (cfiCond20) VB load(1, XDATA, add(CFA_XSP16, literal(-15)))
          CFI (cfiCond20) V0 load(1, XDATA, add(CFA_XSP16, literal(-14)))
          CFI (cfiCond20) V1 load(1, XDATA, add(CFA_XSP16, literal(-13)))
          CFI (cfiCond20) V2 load(1, XDATA, add(CFA_XSP16, literal(-12)))
          CFI (cfiCond20) V3 load(1, XDATA, add(CFA_XSP16, literal(-11)))
          CFI (cfiCond20) V4 load(1, XDATA, add(CFA_XSP16, literal(-10)))
          CFI (cfiCond20) V5 load(1, XDATA, add(CFA_XSP16, literal(-9)))
          CFI (cfiCond20) V6 load(1, XDATA, add(CFA_XSP16, literal(-8)))
          CFI (cfiCond20) V7 load(1, XDATA, add(CFA_XSP16, literal(-7)))
          CFI (cfiCond20) R7 load(1, XDATA, add(CFA_XSP16, literal(-6)))
          CFI (cfiCond20) ?RET_LOW load(1, XDATA, add(CFA_XSP16, literal(-5)))
          CFI (cfiCond20) ?RET_HIGH load(1, XDATA, add(CFA_XSP16, literal(-4)))
          CFI (cfiCond20) ?BRET_EXT load(1, XDATA, add(CFA_XSP16, literal(-3)))
          CFI (cfiCond20) DPL0 load(1, XDATA, add(CFA_XSP16, literal(-2)))
          CFI (cfiCond20) DPH0 load(1, XDATA, add(CFA_XSP16, literal(-1)))
          CFI (cfiCond20) CFA_SP SP+-2
          CFI (cfiCond20) CFA_XSP16 add(XSP16, 178)
          CFI Block cfiCond21 Using cfiCommon0
          CFI (cfiCond21) Function SampleApp_ProcessEvent
          CFI (cfiCond21) Conditional ??CrossCallReturnLabel_18
          CFI (cfiCond21) R6 load(1, XDATA, add(CFA_XSP16, literal(-16)))
          CFI (cfiCond21) VB load(1, XDATA, add(CFA_XSP16, literal(-15)))
          CFI (cfiCond21) V0 load(1, XDATA, add(CFA_XSP16, literal(-14)))
          CFI (cfiCond21) V1 load(1, XDATA, add(CFA_XSP16, literal(-13)))
          CFI (cfiCond21) V2 load(1, XDATA, add(CFA_XSP16, literal(-12)))
          CFI (cfiCond21) V3 load(1, XDATA, add(CFA_XSP16, literal(-11)))
          CFI (cfiCond21) V4 load(1, XDATA, add(CFA_XSP16, literal(-10)))
          CFI (cfiCond21) V5 load(1, XDATA, add(CFA_XSP16, literal(-9)))
          CFI (cfiCond21) V6 load(1, XDATA, add(CFA_XSP16, literal(-8)))
          CFI (cfiCond21) V7 load(1, XDATA, add(CFA_XSP16, literal(-7)))
          CFI (cfiCond21) R7 load(1, XDATA, add(CFA_XSP16, literal(-6)))
          CFI (cfiCond21) ?RET_LOW load(1, XDATA, add(CFA_XSP16, literal(-5)))
          CFI (cfiCond21) ?RET_HIGH load(1, XDATA, add(CFA_XSP16, literal(-4)))
          CFI (cfiCond21) ?BRET_EXT load(1, XDATA, add(CFA_XSP16, literal(-3)))
          CFI (cfiCond21) DPL0 load(1, XDATA, add(CFA_XSP16, literal(-2)))
          CFI (cfiCond21) DPH0 load(1, XDATA, add(CFA_XSP16, literal(-1)))
          CFI (cfiCond21) CFA_SP SP+-2
          CFI (cfiCond21) CFA_XSP16 add(XSP16, 178)
          CFI Block cfiCond22 Using cfiCommon0
          CFI (cfiCond22) Function SampleApp_ProcessEvent
          CFI (cfiCond22) Conditional ??CrossCallReturnLabel_19
          CFI (cfiCond22) R6 load(1, XDATA, add(CFA_XSP16, literal(-16)))
          CFI (cfiCond22) VB load(1, XDATA, add(CFA_XSP16, literal(-15)))
          CFI (cfiCond22) V0 load(1, XDATA, add(CFA_XSP16, literal(-14)))
          CFI (cfiCond22) V1 load(1, XDATA, add(CFA_XSP16, literal(-13)))
          CFI (cfiCond22) V2 load(1, XDATA, add(CFA_XSP16, literal(-12)))
          CFI (cfiCond22) V3 load(1, XDATA, add(CFA_XSP16, literal(-11)))
          CFI (cfiCond22) V4 load(1, XDATA, add(CFA_XSP16, literal(-10)))
          CFI (cfiCond22) V5 load(1, XDATA, add(CFA_XSP16, literal(-9)))
          CFI (cfiCond22) V6 load(1, XDATA, add(CFA_XSP16, literal(-8)))
          CFI (cfiCond22) V7 load(1, XDATA, add(CFA_XSP16, literal(-7)))
          CFI (cfiCond22) R7 load(1, XDATA, add(CFA_XSP16, literal(-6)))
          CFI (cfiCond22) ?RET_LOW load(1, XDATA, add(CFA_XSP16, literal(-5)))
          CFI (cfiCond22) ?RET_HIGH load(1, XDATA, add(CFA_XSP16, literal(-4)))
          CFI (cfiCond22) ?BRET_EXT load(1, XDATA, add(CFA_XSP16, literal(-3)))
          CFI (cfiCond22) DPL0 load(1, XDATA, add(CFA_XSP16, literal(-2)))
          CFI (cfiCond22) DPH0 load(1, XDATA, add(CFA_XSP16, literal(-1)))
          CFI (cfiCond22) CFA_SP SP+-2
          CFI (cfiCond22) CFA_XSP16 add(XSP16, 178)
          CFI Block cfiCond23 Using cfiCommon0
          CFI (cfiCond23) Function SampleApp_ProcessEvent
          CFI (cfiCond23) Conditional ??CrossCallReturnLabel_20
          CFI (cfiCond23) R6 load(1, XDATA, add(CFA_XSP16, literal(-16)))
          CFI (cfiCond23) VB load(1, XDATA, add(CFA_XSP16, literal(-15)))
          CFI (cfiCond23) V0 load(1, XDATA, add(CFA_XSP16, literal(-14)))
          CFI (cfiCond23) V1 load(1, XDATA, add(CFA_XSP16, literal(-13)))
          CFI (cfiCond23) V2 load(1, XDATA, add(CFA_XSP16, literal(-12)))
          CFI (cfiCond23) V3 load(1, XDATA, add(CFA_XSP16, literal(-11)))
          CFI (cfiCond23) V4 load(1, XDATA, add(CFA_XSP16, literal(-10)))
          CFI (cfiCond23) V5 load(1, XDATA, add(CFA_XSP16, literal(-9)))
          CFI (cfiCond23) V6 load(1, XDATA, add(CFA_XSP16, literal(-8)))
          CFI (cfiCond23) V7 load(1, XDATA, add(CFA_XSP16, literal(-7)))
          CFI (cfiCond23) R7 load(1, XDATA, add(CFA_XSP16, literal(-6)))
          CFI (cfiCond23) ?RET_LOW load(1, XDATA, add(CFA_XSP16, literal(-5)))
          CFI (cfiCond23) ?RET_HIGH load(1, XDATA, add(CFA_XSP16, literal(-4)))
          CFI (cfiCond23) ?BRET_EXT load(1, XDATA, add(CFA_XSP16, literal(-3)))
          CFI (cfiCond23) DPL0 load(1, XDATA, add(CFA_XSP16, literal(-2)))
          CFI (cfiCond23) DPH0 load(1, XDATA, add(CFA_XSP16, literal(-1)))
          CFI (cfiCond23) CFA_SP SP+-2
          CFI (cfiCond23) CFA_XSP16 add(XSP16, 178)
          CFI Block cfiCond24 Using cfiCommon0
          CFI (cfiCond24) Function SampleApp_ProcessEvent
          CFI (cfiCond24) Conditional ??CrossCallReturnLabel_21
          CFI (cfiCond24) R6 load(1, XDATA, add(CFA_XSP16, literal(-16)))
          CFI (cfiCond24) VB load(1, XDATA, add(CFA_XSP16, literal(-15)))
          CFI (cfiCond24) V0 load(1, XDATA, add(CFA_XSP16, literal(-14)))
          CFI (cfiCond24) V1 load(1, XDATA, add(CFA_XSP16, literal(-13)))
          CFI (cfiCond24) V2 load(1, XDATA, add(CFA_XSP16, literal(-12)))
          CFI (cfiCond24) V3 load(1, XDATA, add(CFA_XSP16, literal(-11)))
          CFI (cfiCond24) V4 load(1, XDATA, add(CFA_XSP16, literal(-10)))
          CFI (cfiCond24) V5 load(1, XDATA, add(CFA_XSP16, literal(-9)))
          CFI (cfiCond24) V6 load(1, XDATA, add(CFA_XSP16, literal(-8)))
          CFI (cfiCond24) V7 load(1, XDATA, add(CFA_XSP16, literal(-7)))
          CFI (cfiCond24) R7 load(1, XDATA, add(CFA_XSP16, literal(-6)))
          CFI (cfiCond24) ?RET_LOW load(1, XDATA, add(CFA_XSP16, literal(-5)))
          CFI (cfiCond24) ?RET_HIGH load(1, XDATA, add(CFA_XSP16, literal(-4)))
          CFI (cfiCond24) ?BRET_EXT load(1, XDATA, add(CFA_XSP16, literal(-3)))
          CFI (cfiCond24) DPL0 load(1, XDATA, add(CFA_XSP16, literal(-2)))
          CFI (cfiCond24) DPH0 load(1, XDATA, add(CFA_XSP16, literal(-1)))
          CFI (cfiCond24) CFA_SP SP+-2
          CFI (cfiCond24) CFA_XSP16 add(XSP16, 178)
          CFI Block cfiCond25 Using cfiCommon0
          CFI (cfiCond25) Function SampleApp_ProcessEvent
          CFI (cfiCond25) Conditional ??CrossCallReturnLabel_22
          CFI (cfiCond25) R6 load(1, XDATA, add(CFA_XSP16, literal(-16)))
          CFI (cfiCond25) VB load(1, XDATA, add(CFA_XSP16, literal(-15)))
          CFI (cfiCond25) V0 load(1, XDATA, add(CFA_XSP16, literal(-14)))
          CFI (cfiCond25) V1 load(1, XDATA, add(CFA_XSP16, literal(-13)))
          CFI (cfiCond25) V2 load(1, XDATA, add(CFA_XSP16, literal(-12)))
          CFI (cfiCond25) V3 load(1, XDATA, add(CFA_XSP16, literal(-11)))
          CFI (cfiCond25) V4 load(1, XDATA, add(CFA_XSP16, literal(-10)))
          CFI (cfiCond25) V5 load(1, XDATA, add(CFA_XSP16, literal(-9)))
          CFI (cfiCond25) V6 load(1, XDATA, add(CFA_XSP16, literal(-8)))
          CFI (cfiCond25) V7 load(1, XDATA, add(CFA_XSP16, literal(-7)))
          CFI (cfiCond25) R7 load(1, XDATA, add(CFA_XSP16, literal(-6)))
          CFI (cfiCond25) ?RET_LOW load(1, XDATA, add(CFA_XSP16, literal(-5)))
          CFI (cfiCond25) ?RET_HIGH load(1, XDATA, add(CFA_XSP16, literal(-4)))
          CFI (cfiCond25) ?BRET_EXT load(1, XDATA, add(CFA_XSP16, literal(-3)))
          CFI (cfiCond25) DPL0 load(1, XDATA, add(CFA_XSP16, literal(-2)))
          CFI (cfiCond25) DPH0 load(1, XDATA, add(CFA_XSP16, literal(-1)))
          CFI (cfiCond25) CFA_SP SP+-2
          CFI (cfiCond25) CFA_XSP16 add(XSP16, 178)
          CFI Block cfiCond26 Using cfiCommon0
          CFI (cfiCond26) Function SampleApp_ProcessEvent
          CFI (cfiCond26) Conditional ??CrossCallReturnLabel_23
          CFI (cfiCond26) R6 load(1, XDATA, add(CFA_XSP16, literal(-16)))
          CFI (cfiCond26) VB load(1, XDATA, add(CFA_XSP16, literal(-15)))
          CFI (cfiCond26) V0 load(1, XDATA, add(CFA_XSP16, literal(-14)))
          CFI (cfiCond26) V1 load(1, XDATA, add(CFA_XSP16, literal(-13)))
          CFI (cfiCond26) V2 load(1, XDATA, add(CFA_XSP16, literal(-12)))
          CFI (cfiCond26) V3 load(1, XDATA, add(CFA_XSP16, literal(-11)))
          CFI (cfiCond26) V4 load(1, XDATA, add(CFA_XSP16, literal(-10)))
          CFI (cfiCond26) V5 load(1, XDATA, add(CFA_XSP16, literal(-9)))
          CFI (cfiCond26) V6 load(1, XDATA, add(CFA_XSP16, literal(-8)))
          CFI (cfiCond26) V7 load(1, XDATA, add(CFA_XSP16, literal(-7)))
          CFI (cfiCond26) R7 load(1, XDATA, add(CFA_XSP16, literal(-6)))
          CFI (cfiCond26) ?RET_LOW load(1, XDATA, add(CFA_XSP16, literal(-5)))
          CFI (cfiCond26) ?RET_HIGH load(1, XDATA, add(CFA_XSP16, literal(-4)))
          CFI (cfiCond26) ?BRET_EXT load(1, XDATA, add(CFA_XSP16, literal(-3)))
          CFI (cfiCond26) DPL0 load(1, XDATA, add(CFA_XSP16, literal(-2)))
          CFI (cfiCond26) DPH0 load(1, XDATA, add(CFA_XSP16, literal(-1)))
          CFI (cfiCond26) CFA_SP SP+-2
          CFI (cfiCond26) CFA_XSP16 add(XSP16, 178)
          CFI Block cfiCond27 Using cfiCommon0
          CFI (cfiCond27) Function SampleApp_ProcessEvent
          CFI (cfiCond27) Conditional ??CrossCallReturnLabel_24
          CFI (cfiCond27) R6 load(1, XDATA, add(CFA_XSP16, literal(-16)))
          CFI (cfiCond27) VB load(1, XDATA, add(CFA_XSP16, literal(-15)))
          CFI (cfiCond27) V0 load(1, XDATA, add(CFA_XSP16, literal(-14)))
          CFI (cfiCond27) V1 load(1, XDATA, add(CFA_XSP16, literal(-13)))
          CFI (cfiCond27) V2 load(1, XDATA, add(CFA_XSP16, literal(-12)))
          CFI (cfiCond27) V3 load(1, XDATA, add(CFA_XSP16, literal(-11)))
          CFI (cfiCond27) V4 load(1, XDATA, add(CFA_XSP16, literal(-10)))
          CFI (cfiCond27) V5 load(1, XDATA, add(CFA_XSP16, literal(-9)))
          CFI (cfiCond27) V6 load(1, XDATA, add(CFA_XSP16, literal(-8)))
          CFI (cfiCond27) V7 load(1, XDATA, add(CFA_XSP16, literal(-7)))
          CFI (cfiCond27) R7 load(1, XDATA, add(CFA_XSP16, literal(-6)))
          CFI (cfiCond27) ?RET_LOW load(1, XDATA, add(CFA_XSP16, literal(-5)))
          CFI (cfiCond27) ?RET_HIGH load(1, XDATA, add(CFA_XSP16, literal(-4)))
          CFI (cfiCond27) ?BRET_EXT load(1, XDATA, add(CFA_XSP16, literal(-3)))
          CFI (cfiCond27) DPL0 load(1, XDATA, add(CFA_XSP16, literal(-2)))
          CFI (cfiCond27) DPH0 load(1, XDATA, add(CFA_XSP16, literal(-1)))
          CFI (cfiCond27) CFA_SP SP+-2
          CFI (cfiCond27) CFA_XSP16 add(XSP16, 178)
          CFI Block cfiCond28 Using cfiCommon0
          CFI (cfiCond28) Function SampleApp_ProcessEvent
          CFI (cfiCond28) Conditional ??CrossCallReturnLabel_25
          CFI (cfiCond28) R6 load(1, XDATA, add(CFA_XSP16, literal(-16)))
          CFI (cfiCond28) VB load(1, XDATA, add(CFA_XSP16, literal(-15)))
          CFI (cfiCond28) V0 load(1, XDATA, add(CFA_XSP16, literal(-14)))
          CFI (cfiCond28) V1 load(1, XDATA, add(CFA_XSP16, literal(-13)))
          CFI (cfiCond28) V2 load(1, XDATA, add(CFA_XSP16, literal(-12)))
          CFI (cfiCond28) V3 load(1, XDATA, add(CFA_XSP16, literal(-11)))
          CFI (cfiCond28) V4 load(1, XDATA, add(CFA_XSP16, literal(-10)))
          CFI (cfiCond28) V5 load(1, XDATA, add(CFA_XSP16, literal(-9)))
          CFI (cfiCond28) V6 load(1, XDATA, add(CFA_XSP16, literal(-8)))
          CFI (cfiCond28) V7 load(1, XDATA, add(CFA_XSP16, literal(-7)))
          CFI (cfiCond28) R7 load(1, XDATA, add(CFA_XSP16, literal(-6)))
          CFI (cfiCond28) ?RET_LOW load(1, XDATA, add(CFA_XSP16, literal(-5)))
          CFI (cfiCond28) ?RET_HIGH load(1, XDATA, add(CFA_XSP16, literal(-4)))
          CFI (cfiCond28) ?BRET_EXT load(1, XDATA, add(CFA_XSP16, literal(-3)))
          CFI (cfiCond28) DPL0 load(1, XDATA, add(CFA_XSP16, literal(-2)))
          CFI (cfiCond28) DPH0 load(1, XDATA, add(CFA_XSP16, literal(-1)))
          CFI (cfiCond28) CFA_SP SP+-2
          CFI (cfiCond28) CFA_XSP16 add(XSP16, 178)
          CFI Block cfiCond29 Using cfiCommon0
          CFI (cfiCond29) Function SampleApp_ProcessEvent
          CFI (cfiCond29) Conditional ??CrossCallReturnLabel_26
          CFI (cfiCond29) R6 load(1, XDATA, add(CFA_XSP16, literal(-16)))
          CFI (cfiCond29) VB load(1, XDATA, add(CFA_XSP16, literal(-15)))
          CFI (cfiCond29) V0 load(1, XDATA, add(CFA_XSP16, literal(-14)))
          CFI (cfiCond29) V1 load(1, XDATA, add(CFA_XSP16, literal(-13)))
          CFI (cfiCond29) V2 load(1, XDATA, add(CFA_XSP16, literal(-12)))
          CFI (cfiCond29) V3 load(1, XDATA, add(CFA_XSP16, literal(-11)))
          CFI (cfiCond29) V4 load(1, XDATA, add(CFA_XSP16, literal(-10)))
          CFI (cfiCond29) V5 load(1, XDATA, add(CFA_XSP16, literal(-9)))
          CFI (cfiCond29) V6 load(1, XDATA, add(CFA_XSP16, literal(-8)))
          CFI (cfiCond29) V7 load(1, XDATA, add(CFA_XSP16, literal(-7)))
          CFI (cfiCond29) R7 load(1, XDATA, add(CFA_XSP16, literal(-6)))
          CFI (cfiCond29) ?RET_LOW load(1, XDATA, add(CFA_XSP16, literal(-5)))
          CFI (cfiCond29) ?RET_HIGH load(1, XDATA, add(CFA_XSP16, literal(-4)))
          CFI (cfiCond29) ?BRET_EXT load(1, XDATA, add(CFA_XSP16, literal(-3)))
          CFI (cfiCond29) DPL0 load(1, XDATA, add(CFA_XSP16, literal(-2)))
          CFI (cfiCond29) DPH0 load(1, XDATA, add(CFA_XSP16, literal(-1)))
          CFI (cfiCond29) CFA_SP SP+-2
          CFI (cfiCond29) CFA_XSP16 add(XSP16, 178)
          CFI Block cfiCond30 Using cfiCommon0
          CFI (cfiCond30) Function SampleApp_ProcessEvent
          CFI (cfiCond30) Conditional ??CrossCallReturnLabel_27
          CFI (cfiCond30) R6 load(1, XDATA, add(CFA_XSP16, literal(-16)))
          CFI (cfiCond30) VB load(1, XDATA, add(CFA_XSP16, literal(-15)))
          CFI (cfiCond30) V0 load(1, XDATA, add(CFA_XSP16, literal(-14)))
          CFI (cfiCond30) V1 load(1, XDATA, add(CFA_XSP16, literal(-13)))
          CFI (cfiCond30) V2 load(1, XDATA, add(CFA_XSP16, literal(-12)))
          CFI (cfiCond30) V3 load(1, XDATA, add(CFA_XSP16, literal(-11)))
          CFI (cfiCond30) V4 load(1, XDATA, add(CFA_XSP16, literal(-10)))
          CFI (cfiCond30) V5 load(1, XDATA, add(CFA_XSP16, literal(-9)))
          CFI (cfiCond30) V6 load(1, XDATA, add(CFA_XSP16, literal(-8)))
          CFI (cfiCond30) V7 load(1, XDATA, add(CFA_XSP16, literal(-7)))
          CFI (cfiCond30) R7 load(1, XDATA, add(CFA_XSP16, literal(-6)))
          CFI (cfiCond30) ?RET_LOW load(1, XDATA, add(CFA_XSP16, literal(-5)))
          CFI (cfiCond30) ?RET_HIGH load(1, XDATA, add(CFA_XSP16, literal(-4)))
          CFI (cfiCond30) ?BRET_EXT load(1, XDATA, add(CFA_XSP16, literal(-3)))
          CFI (cfiCond30) DPL0 load(1, XDATA, add(CFA_XSP16, literal(-2)))
          CFI (cfiCond30) DPH0 load(1, XDATA, add(CFA_XSP16, literal(-1)))
          CFI (cfiCond30) CFA_SP SP+-2
          CFI (cfiCond30) CFA_XSP16 add(XSP16, 178)
          CFI Block cfiCond31 Using cfiCommon0
          CFI (cfiCond31) Function SampleApp_ProcessEvent
          CFI (cfiCond31) Conditional ??CrossCallReturnLabel_28
          CFI (cfiCond31) R6 load(1, XDATA, add(CFA_XSP16, literal(-16)))
          CFI (cfiCond31) VB load(1, XDATA, add(CFA_XSP16, literal(-15)))
          CFI (cfiCond31) V0 load(1, XDATA, add(CFA_XSP16, literal(-14)))
          CFI (cfiCond31) V1 load(1, XDATA, add(CFA_XSP16, literal(-13)))
          CFI (cfiCond31) V2 load(1, XDATA, add(CFA_XSP16, literal(-12)))
          CFI (cfiCond31) V3 load(1, XDATA, add(CFA_XSP16, literal(-11)))
          CFI (cfiCond31) V4 load(1, XDATA, add(CFA_XSP16, literal(-10)))
          CFI (cfiCond31) V5 load(1, XDATA, add(CFA_XSP16, literal(-9)))
          CFI (cfiCond31) V6 load(1, XDATA, add(CFA_XSP16, literal(-8)))
          CFI (cfiCond31) V7 load(1, XDATA, add(CFA_XSP16, literal(-7)))
          CFI (cfiCond31) R7 load(1, XDATA, add(CFA_XSP16, literal(-6)))
          CFI (cfiCond31) ?RET_LOW load(1, XDATA, add(CFA_XSP16, literal(-5)))
          CFI (cfiCond31) ?RET_HIGH load(1, XDATA, add(CFA_XSP16, literal(-4)))
          CFI (cfiCond31) ?BRET_EXT load(1, XDATA, add(CFA_XSP16, literal(-3)))
          CFI (cfiCond31) DPL0 load(1, XDATA, add(CFA_XSP16, literal(-2)))
          CFI (cfiCond31) DPH0 load(1, XDATA, add(CFA_XSP16, literal(-1)))
          CFI (cfiCond31) CFA_SP SP+-2
          CFI (cfiCond31) CFA_XSP16 add(XSP16, 178)
          CFI Block cfiCond32 Using cfiCommon0
          CFI (cfiCond32) Function SampleApp_ProcessEvent
          CFI (cfiCond32) Conditional ??CrossCallReturnLabel_29
          CFI (cfiCond32) R6 load(1, XDATA, add(CFA_XSP16, literal(-16)))
          CFI (cfiCond32) VB load(1, XDATA, add(CFA_XSP16, literal(-15)))
          CFI (cfiCond32) V0 load(1, XDATA, add(CFA_XSP16, literal(-14)))
          CFI (cfiCond32) V1 load(1, XDATA, add(CFA_XSP16, literal(-13)))
          CFI (cfiCond32) V2 load(1, XDATA, add(CFA_XSP16, literal(-12)))
          CFI (cfiCond32) V3 load(1, XDATA, add(CFA_XSP16, literal(-11)))
          CFI (cfiCond32) V4 load(1, XDATA, add(CFA_XSP16, literal(-10)))
          CFI (cfiCond32) V5 load(1, XDATA, add(CFA_XSP16, literal(-9)))
          CFI (cfiCond32) V6 load(1, XDATA, add(CFA_XSP16, literal(-8)))
          CFI (cfiCond32) V7 load(1, XDATA, add(CFA_XSP16, literal(-7)))
          CFI (cfiCond32) R7 load(1, XDATA, add(CFA_XSP16, literal(-6)))
          CFI (cfiCond32) ?RET_LOW load(1, XDATA, add(CFA_XSP16, literal(-5)))
          CFI (cfiCond32) ?RET_HIGH load(1, XDATA, add(CFA_XSP16, literal(-4)))
          CFI (cfiCond32) ?BRET_EXT load(1, XDATA, add(CFA_XSP16, literal(-3)))
          CFI (cfiCond32) DPL0 load(1, XDATA, add(CFA_XSP16, literal(-2)))
          CFI (cfiCond32) DPH0 load(1, XDATA, add(CFA_XSP16, literal(-1)))
          CFI (cfiCond32) CFA_SP SP+-2
          CFI (cfiCond32) CFA_XSP16 add(XSP16, 178)
          CFI Block cfiCond33 Using cfiCommon0
          CFI (cfiCond33) Function SampleApp_ProcessEvent
          CFI (cfiCond33) Conditional ??CrossCallReturnLabel_30
          CFI (cfiCond33) R6 load(1, XDATA, add(CFA_XSP16, literal(-16)))
          CFI (cfiCond33) VB load(1, XDATA, add(CFA_XSP16, literal(-15)))
          CFI (cfiCond33) V0 load(1, XDATA, add(CFA_XSP16, literal(-14)))
          CFI (cfiCond33) V1 load(1, XDATA, add(CFA_XSP16, literal(-13)))
          CFI (cfiCond33) V2 load(1, XDATA, add(CFA_XSP16, literal(-12)))
          CFI (cfiCond33) V3 load(1, XDATA, add(CFA_XSP16, literal(-11)))
          CFI (cfiCond33) V4 load(1, XDATA, add(CFA_XSP16, literal(-10)))
          CFI (cfiCond33) V5 load(1, XDATA, add(CFA_XSP16, literal(-9)))
          CFI (cfiCond33) V6 load(1, XDATA, add(CFA_XSP16, literal(-8)))
          CFI (cfiCond33) V7 load(1, XDATA, add(CFA_XSP16, literal(-7)))
          CFI (cfiCond33) R7 load(1, XDATA, add(CFA_XSP16, literal(-6)))
          CFI (cfiCond33) ?RET_LOW load(1, XDATA, add(CFA_XSP16, literal(-5)))
          CFI (cfiCond33) ?RET_HIGH load(1, XDATA, add(CFA_XSP16, literal(-4)))
          CFI (cfiCond33) ?BRET_EXT load(1, XDATA, add(CFA_XSP16, literal(-3)))
          CFI (cfiCond33) DPL0 load(1, XDATA, add(CFA_XSP16, literal(-2)))
          CFI (cfiCond33) DPH0 load(1, XDATA, add(CFA_XSP16, literal(-1)))
          CFI (cfiCond33) CFA_SP SP+-2
          CFI (cfiCond33) CFA_XSP16 add(XSP16, 178)
          CFI Block cfiPicker34 Using cfiCommon1
          CFI (cfiPicker34) NoFunction
          CFI (cfiPicker34) Picker
        MOV       R1,DPL
        MOV       R2,DPH
        MOV       R3,#0x0
        LCALL     `??osal_memcmp::?relay`; Banked call to: osal_memcmp
        MOV       A,#0x3
        RET
          CFI EndBlock cfiCond19
          CFI EndBlock cfiCond20
          CFI EndBlock cfiCond21
          CFI EndBlock cfiCond22
          CFI EndBlock cfiCond23
          CFI EndBlock cfiCond24
          CFI EndBlock cfiCond25
          CFI EndBlock cfiCond26
          CFI EndBlock cfiCond27
          CFI EndBlock cfiCond28
          CFI EndBlock cfiCond29
          CFI EndBlock cfiCond30
          CFI EndBlock cfiCond31
          CFI EndBlock cfiCond32
          CFI EndBlock cfiCond33
          CFI EndBlock cfiPicker34

        RSEG BANKED_CODE:HUGECODE:NOROOT(0)
?Subroutine17:
          CFI Block cfiCond35 Using cfiCommon0
          CFI Function SampleApp_ProcessEvent
          CFI Conditional ??CrossCallReturnLabel_46
          CFI R6 load(1, XDATA, add(CFA_XSP16, literal(-16)))
          CFI VB load(1, XDATA, add(CFA_XSP16, literal(-15)))
          CFI V0 load(1, XDATA, add(CFA_XSP16, literal(-14)))
          CFI V1 load(1, XDATA, add(CFA_XSP16, literal(-13)))
          CFI V2 load(1, XDATA, add(CFA_XSP16, literal(-12)))
          CFI V3 load(1, XDATA, add(CFA_XSP16, literal(-11)))
          CFI V4 load(1, XDATA, add(CFA_XSP16, literal(-10)))
          CFI V5 load(1, XDATA, add(CFA_XSP16, literal(-9)))
          CFI V6 load(1, XDATA, add(CFA_XSP16, literal(-8)))
          CFI V7 load(1, XDATA, add(CFA_XSP16, literal(-7)))
          CFI R7 load(1, XDATA, add(CFA_XSP16, literal(-6)))
          CFI ?RET_LOW load(1, XDATA, add(CFA_XSP16, literal(-5)))
          CFI ?RET_HIGH load(1, XDATA, add(CFA_XSP16, literal(-4)))
          CFI ?BRET_EXT load(1, XDATA, add(CFA_XSP16, literal(-3)))
          CFI DPL0 load(1, XDATA, add(CFA_XSP16, literal(-2)))
          CFI DPH0 load(1, XDATA, add(CFA_XSP16, literal(-1)))
          CFI CFA_SP SP+-2
          CFI CFA_XSP16 add(XSP16, 179)
          CFI Block cfiCond36 Using cfiCommon0
          CFI (cfiCond36) Function SampleApp_ProcessEvent
          CFI (cfiCond36) Conditional ??CrossCallReturnLabel_47
          CFI (cfiCond36) R6 load(1, XDATA, add(CFA_XSP16, literal(-16)))
          CFI (cfiCond36) VB load(1, XDATA, add(CFA_XSP16, literal(-15)))
          CFI (cfiCond36) V0 load(1, XDATA, add(CFA_XSP16, literal(-14)))
          CFI (cfiCond36) V1 load(1, XDATA, add(CFA_XSP16, literal(-13)))
          CFI (cfiCond36) V2 load(1, XDATA, add(CFA_XSP16, literal(-12)))
          CFI (cfiCond36) V3 load(1, XDATA, add(CFA_XSP16, literal(-11)))
          CFI (cfiCond36) V4 load(1, XDATA, add(CFA_XSP16, literal(-10)))
          CFI (cfiCond36) V5 load(1, XDATA, add(CFA_XSP16, literal(-9)))
          CFI (cfiCond36) V6 load(1, XDATA, add(CFA_XSP16, literal(-8)))
          CFI (cfiCond36) V7 load(1, XDATA, add(CFA_XSP16, literal(-7)))
          CFI (cfiCond36) R7 load(1, XDATA, add(CFA_XSP16, literal(-6)))
          CFI (cfiCond36) ?RET_LOW load(1, XDATA, add(CFA_XSP16, literal(-5)))
          CFI (cfiCond36) ?RET_HIGH load(1, XDATA, add(CFA_XSP16, literal(-4)))
          CFI (cfiCond36) ?BRET_EXT load(1, XDATA, add(CFA_XSP16, literal(-3)))
          CFI (cfiCond36) DPL0 load(1, XDATA, add(CFA_XSP16, literal(-2)))
          CFI (cfiCond36) DPH0 load(1, XDATA, add(CFA_XSP16, literal(-1)))
          CFI (cfiCond36) CFA_SP SP+-2
          CFI (cfiCond36) CFA_XSP16 add(XSP16, 179)
          CFI Block cfiPicker37 Using cfiCommon1
          CFI (cfiPicker37) NoFunction
          CFI (cfiPicker37) Picker
        MOV       R2,?V0
        MOV       R3,?V1
        MOV       R1,#0x0
          CFI EndBlock cfiCond35
          CFI EndBlock cfiCond36
          CFI EndBlock cfiPicker37
        REQUIRE ??Subroutine26_0
        ; // Fall through to label ??Subroutine26_0

        RSEG BANKED_CODE:HUGECODE:NOROOT(0)
??Subroutine26_0:
          CFI Block cfiCond38 Using cfiCommon0
          CFI Function SampleApp_ProcessEvent
          CFI Conditional ??CrossCallReturnLabel_48
          CFI R6 load(1, XDATA, add(CFA_XSP16, literal(-16)))
          CFI VB load(1, XDATA, add(CFA_XSP16, literal(-15)))
          CFI V0 load(1, XDATA, add(CFA_XSP16, literal(-14)))
          CFI V1 load(1, XDATA, add(CFA_XSP16, literal(-13)))
          CFI V2 load(1, XDATA, add(CFA_XSP16, literal(-12)))
          CFI V3 load(1, XDATA, add(CFA_XSP16, literal(-11)))
          CFI V4 load(1, XDATA, add(CFA_XSP16, literal(-10)))
          CFI V5 load(1, XDATA, add(CFA_XSP16, literal(-9)))
          CFI V6 load(1, XDATA, add(CFA_XSP16, literal(-8)))
          CFI V7 load(1, XDATA, add(CFA_XSP16, literal(-7)))
          CFI R7 load(1, XDATA, add(CFA_XSP16, literal(-6)))
          CFI ?RET_LOW load(1, XDATA, add(CFA_XSP16, literal(-5)))
          CFI ?RET_HIGH load(1, XDATA, add(CFA_XSP16, literal(-4)))
          CFI ?BRET_EXT load(1, XDATA, add(CFA_XSP16, literal(-3)))
          CFI DPL0 load(1, XDATA, add(CFA_XSP16, literal(-2)))
          CFI DPH0 load(1, XDATA, add(CFA_XSP16, literal(-1)))
          CFI CFA_SP SP+-2
          CFI CFA_XSP16 add(XSP16, 179)
          CFI Block cfiCond39 Using cfiCommon0
          CFI (cfiCond39) Function SampleApp_ProcessEvent
          CFI (cfiCond39) Conditional ??CrossCallReturnLabel_49
          CFI (cfiCond39) R6 load(1, XDATA, add(CFA_XSP16, literal(-16)))
          CFI (cfiCond39) VB load(1, XDATA, add(CFA_XSP16, literal(-15)))
          CFI (cfiCond39) V0 load(1, XDATA, add(CFA_XSP16, literal(-14)))
          CFI (cfiCond39) V1 load(1, XDATA, add(CFA_XSP16, literal(-13)))
          CFI (cfiCond39) V2 load(1, XDATA, add(CFA_XSP16, literal(-12)))
          CFI (cfiCond39) V3 load(1, XDATA, add(CFA_XSP16, literal(-11)))
          CFI (cfiCond39) V4 load(1, XDATA, add(CFA_XSP16, literal(-10)))
          CFI (cfiCond39) V5 load(1, XDATA, add(CFA_XSP16, literal(-9)))
          CFI (cfiCond39) V6 load(1, XDATA, add(CFA_XSP16, literal(-8)))
          CFI (cfiCond39) V7 load(1, XDATA, add(CFA_XSP16, literal(-7)))
          CFI (cfiCond39) R7 load(1, XDATA, add(CFA_XSP16, literal(-6)))
          CFI (cfiCond39) ?RET_LOW load(1, XDATA, add(CFA_XSP16, literal(-5)))
          CFI (cfiCond39) ?RET_HIGH load(1, XDATA, add(CFA_XSP16, literal(-4)))
          CFI (cfiCond39) ?BRET_EXT load(1, XDATA, add(CFA_XSP16, literal(-3)))
          CFI (cfiCond39) DPL0 load(1, XDATA, add(CFA_XSP16, literal(-2)))
          CFI (cfiCond39) DPH0 load(1, XDATA, add(CFA_XSP16, literal(-1)))
          CFI (cfiCond39) CFA_SP SP+-2
          CFI (cfiCond39) CFA_XSP16 add(XSP16, 179)
          CFI Block cfiCond40 Using cfiCommon0
          CFI (cfiCond40) Function SampleApp_ProcessEvent
          CFI (cfiCond40) Conditional ??CrossCallReturnLabel_46
          CFI (cfiCond40) R6 load(1, XDATA, add(CFA_XSP16, literal(-16)))
          CFI (cfiCond40) VB load(1, XDATA, add(CFA_XSP16, literal(-15)))
          CFI (cfiCond40) V0 load(1, XDATA, add(CFA_XSP16, literal(-14)))
          CFI (cfiCond40) V1 load(1, XDATA, add(CFA_XSP16, literal(-13)))
          CFI (cfiCond40) V2 load(1, XDATA, add(CFA_XSP16, literal(-12)))
          CFI (cfiCond40) V3 load(1, XDATA, add(CFA_XSP16, literal(-11)))
          CFI (cfiCond40) V4 load(1, XDATA, add(CFA_XSP16, literal(-10)))
          CFI (cfiCond40) V5 load(1, XDATA, add(CFA_XSP16, literal(-9)))
          CFI (cfiCond40) V6 load(1, XDATA, add(CFA_XSP16, literal(-8)))
          CFI (cfiCond40) V7 load(1, XDATA, add(CFA_XSP16, literal(-7)))
          CFI (cfiCond40) R7 load(1, XDATA, add(CFA_XSP16, literal(-6)))
          CFI (cfiCond40) ?RET_LOW load(1, XDATA, add(CFA_XSP16, literal(-5)))
          CFI (cfiCond40) ?RET_HIGH load(1, XDATA, add(CFA_XSP16, literal(-4)))
          CFI (cfiCond40) ?BRET_EXT load(1, XDATA, add(CFA_XSP16, literal(-3)))
          CFI (cfiCond40) DPL0 load(1, XDATA, add(CFA_XSP16, literal(-2)))
          CFI (cfiCond40) DPH0 load(1, XDATA, add(CFA_XSP16, literal(-1)))
          CFI (cfiCond40) CFA_SP SP+-2
          CFI (cfiCond40) CFA_XSP16 add(XSP16, 179)
          CFI Block cfiCond41 Using cfiCommon0
          CFI (cfiCond41) Function SampleApp_ProcessEvent
          CFI (cfiCond41) Conditional ??CrossCallReturnLabel_47
          CFI (cfiCond41) R6 load(1, XDATA, add(CFA_XSP16, literal(-16)))
          CFI (cfiCond41) VB load(1, XDATA, add(CFA_XSP16, literal(-15)))
          CFI (cfiCond41) V0 load(1, XDATA, add(CFA_XSP16, literal(-14)))
          CFI (cfiCond41) V1 load(1, XDATA, add(CFA_XSP16, literal(-13)))
          CFI (cfiCond41) V2 load(1, XDATA, add(CFA_XSP16, literal(-12)))
          CFI (cfiCond41) V3 load(1, XDATA, add(CFA_XSP16, literal(-11)))
          CFI (cfiCond41) V4 load(1, XDATA, add(CFA_XSP16, literal(-10)))
          CFI (cfiCond41) V5 load(1, XDATA, add(CFA_XSP16, literal(-9)))
          CFI (cfiCond41) V6 load(1, XDATA, add(CFA_XSP16, literal(-8)))
          CFI (cfiCond41) V7 load(1, XDATA, add(CFA_XSP16, literal(-7)))
          CFI (cfiCond41) R7 load(1, XDATA, add(CFA_XSP16, literal(-6)))
          CFI (cfiCond41) ?RET_LOW load(1, XDATA, add(CFA_XSP16, literal(-5)))
          CFI (cfiCond41) ?RET_HIGH load(1, XDATA, add(CFA_XSP16, literal(-4)))
          CFI (cfiCond41) ?BRET_EXT load(1, XDATA, add(CFA_XSP16, literal(-3)))
          CFI (cfiCond41) DPL0 load(1, XDATA, add(CFA_XSP16, literal(-2)))
          CFI (cfiCond41) DPH0 load(1, XDATA, add(CFA_XSP16, literal(-1)))
          CFI (cfiCond41) CFA_SP SP+-2
          CFI (cfiCond41) CFA_XSP16 add(XSP16, 179)
          CFI Block cfiPicker42 Using cfiCommon1
          CFI (cfiPicker42) NoFunction
          CFI (cfiPicker42) Picker
        LCALL     `??_UARTSend::?relay`; Banked call to: _UARTSend
        MOV       A,#0x4
        RET
          CFI EndBlock cfiCond38
          CFI EndBlock cfiCond39
          CFI EndBlock cfiCond40
          CFI EndBlock cfiCond41
          CFI EndBlock cfiPicker42

        RSEG BANKED_CODE:HUGECODE:NOROOT(0)
?Subroutine16:
          CFI Block cfiCond43 Using cfiCommon0
          CFI Function SampleApp_ProcessEvent
          CFI Conditional ??CrossCallReturnLabel_13
          CFI R6 load(1, XDATA, add(CFA_XSP16, literal(-16)))
          CFI VB load(1, XDATA, add(CFA_XSP16, literal(-15)))
          CFI V0 load(1, XDATA, add(CFA_XSP16, literal(-14)))
          CFI V1 load(1, XDATA, add(CFA_XSP16, literal(-13)))
          CFI V2 load(1, XDATA, add(CFA_XSP16, literal(-12)))
          CFI V3 load(1, XDATA, add(CFA_XSP16, literal(-11)))
          CFI V4 load(1, XDATA, add(CFA_XSP16, literal(-10)))
          CFI V5 load(1, XDATA, add(CFA_XSP16, literal(-9)))
          CFI V6 load(1, XDATA, add(CFA_XSP16, literal(-8)))
          CFI V7 load(1, XDATA, add(CFA_XSP16, literal(-7)))
          CFI R7 load(1, XDATA, add(CFA_XSP16, literal(-6)))
          CFI ?RET_LOW load(1, XDATA, add(CFA_XSP16, literal(-5)))
          CFI ?RET_HIGH load(1, XDATA, add(CFA_XSP16, literal(-4)))
          CFI ?BRET_EXT load(1, XDATA, add(CFA_XSP16, literal(-3)))
          CFI DPL0 load(1, XDATA, add(CFA_XSP16, literal(-2)))
          CFI DPH0 load(1, XDATA, add(CFA_XSP16, literal(-1)))
          CFI CFA_SP SP+-2
          CFI CFA_XSP16 add(XSP16, 175)
          CFI Block cfiCond44 Using cfiCommon0
          CFI (cfiCond44) Function SampleApp_ProcessEvent
          CFI (cfiCond44) Conditional ??CrossCallReturnLabel_14
          CFI (cfiCond44) R6 load(1, XDATA, add(CFA_XSP16, literal(-16)))
          CFI (cfiCond44) VB load(1, XDATA, add(CFA_XSP16, literal(-15)))
          CFI (cfiCond44) V0 load(1, XDATA, add(CFA_XSP16, literal(-14)))
          CFI (cfiCond44) V1 load(1, XDATA, add(CFA_XSP16, literal(-13)))
          CFI (cfiCond44) V2 load(1, XDATA, add(CFA_XSP16, literal(-12)))
          CFI (cfiCond44) V3 load(1, XDATA, add(CFA_XSP16, literal(-11)))
          CFI (cfiCond44) V4 load(1, XDATA, add(CFA_XSP16, literal(-10)))
          CFI (cfiCond44) V5 load(1, XDATA, add(CFA_XSP16, literal(-9)))
          CFI (cfiCond44) V6 load(1, XDATA, add(CFA_XSP16, literal(-8)))
          CFI (cfiCond44) V7 load(1, XDATA, add(CFA_XSP16, literal(-7)))
          CFI (cfiCond44) R7 load(1, XDATA, add(CFA_XSP16, literal(-6)))
          CFI (cfiCond44) ?RET_LOW load(1, XDATA, add(CFA_XSP16, literal(-5)))
          CFI (cfiCond44) ?RET_HIGH load(1, XDATA, add(CFA_XSP16, literal(-4)))
          CFI (cfiCond44) ?BRET_EXT load(1, XDATA, add(CFA_XSP16, literal(-3)))
          CFI (cfiCond44) DPL0 load(1, XDATA, add(CFA_XSP16, literal(-2)))
          CFI (cfiCond44) DPH0 load(1, XDATA, add(CFA_XSP16, literal(-1)))
          CFI (cfiCond44) CFA_SP SP+-2
          CFI (cfiCond44) CFA_XSP16 add(XSP16, 175)
          CFI Block cfiCond45 Using cfiCommon0
          CFI (cfiCond45) Function SampleApp_ProcessEvent
          CFI (cfiCond45) Conditional ??CrossCallReturnLabel_15
          CFI (cfiCond45) R6 load(1, XDATA, add(CFA_XSP16, literal(-16)))
          CFI (cfiCond45) VB load(1, XDATA, add(CFA_XSP16, literal(-15)))
          CFI (cfiCond45) V0 load(1, XDATA, add(CFA_XSP16, literal(-14)))
          CFI (cfiCond45) V1 load(1, XDATA, add(CFA_XSP16, literal(-13)))
          CFI (cfiCond45) V2 load(1, XDATA, add(CFA_XSP16, literal(-12)))
          CFI (cfiCond45) V3 load(1, XDATA, add(CFA_XSP16, literal(-11)))
          CFI (cfiCond45) V4 load(1, XDATA, add(CFA_XSP16, literal(-10)))
          CFI (cfiCond45) V5 load(1, XDATA, add(CFA_XSP16, literal(-9)))
          CFI (cfiCond45) V6 load(1, XDATA, add(CFA_XSP16, literal(-8)))
          CFI (cfiCond45) V7 load(1, XDATA, add(CFA_XSP16, literal(-7)))
          CFI (cfiCond45) R7 load(1, XDATA, add(CFA_XSP16, literal(-6)))
          CFI (cfiCond45) ?RET_LOW load(1, XDATA, add(CFA_XSP16, literal(-5)))
          CFI (cfiCond45) ?RET_HIGH load(1, XDATA, add(CFA_XSP16, literal(-4)))
          CFI (cfiCond45) ?BRET_EXT load(1, XDATA, add(CFA_XSP16, literal(-3)))
          CFI (cfiCond45) DPL0 load(1, XDATA, add(CFA_XSP16, literal(-2)))
          CFI (cfiCond45) DPH0 load(1, XDATA, add(CFA_XSP16, literal(-1)))
          CFI (cfiCond45) CFA_SP SP+-2
          CFI (cfiCond45) CFA_XSP16 add(XSP16, 175)
          CFI Block cfiPicker46 Using cfiCommon1
          CFI (cfiPicker46) NoFunction
          CFI (cfiPicker46) Picker
        MOV       R1,#0x0
        LCALL     `??_UARTSend::?relay`; Banked call to: _UARTSend
        ; Setup parameters for call to function osal_nv_item_init
        ; Setup parameters for call to function osal_nv_item_init
        ; Setup parameters for call to function osal_nv_item_init
        CLR       A
        MOV       ?V0,A
        MOV       R0,#?V0
        RET
          CFI EndBlock cfiCond43
          CFI EndBlock cfiCond44
          CFI EndBlock cfiCond45
          CFI EndBlock cfiPicker46

        RSEG BANKED_CODE:HUGECODE:NOROOT(0)
?Subroutine12:
          CFI Block cfiCond47 Using cfiCommon0
          CFI Function SampleApp_ProcessEvent
          CFI Conditional ??CrossCallReturnLabel_50
          CFI R6 load(1, XDATA, add(CFA_XSP16, literal(-16)))
          CFI VB load(1, XDATA, add(CFA_XSP16, literal(-15)))
          CFI V0 load(1, XDATA, add(CFA_XSP16, literal(-14)))
          CFI V1 load(1, XDATA, add(CFA_XSP16, literal(-13)))
          CFI V2 load(1, XDATA, add(CFA_XSP16, literal(-12)))
          CFI V3 load(1, XDATA, add(CFA_XSP16, literal(-11)))
          CFI V4 load(1, XDATA, add(CFA_XSP16, literal(-10)))
          CFI V5 load(1, XDATA, add(CFA_XSP16, literal(-9)))
          CFI V6 load(1, XDATA, add(CFA_XSP16, literal(-8)))
          CFI V7 load(1, XDATA, add(CFA_XSP16, literal(-7)))
          CFI R7 load(1, XDATA, add(CFA_XSP16, literal(-6)))
          CFI ?RET_LOW load(1, XDATA, add(CFA_XSP16, literal(-5)))
          CFI ?RET_HIGH load(1, XDATA, add(CFA_XSP16, literal(-4)))
          CFI ?BRET_EXT load(1, XDATA, add(CFA_XSP16, literal(-3)))
          CFI DPL0 load(1, XDATA, add(CFA_XSP16, literal(-2)))
          CFI DPH0 load(1, XDATA, add(CFA_XSP16, literal(-1)))
          CFI CFA_SP SP+-2
          CFI CFA_XSP16 add(XSP16, 175)
          CFI Block cfiCond48 Using cfiCommon0
          CFI (cfiCond48) Function SampleApp_ProcessEvent
          CFI (cfiCond48) Conditional ??CrossCallReturnLabel_51
          CFI (cfiCond48) R6 load(1, XDATA, add(CFA_XSP16, literal(-16)))
          CFI (cfiCond48) VB load(1, XDATA, add(CFA_XSP16, literal(-15)))
          CFI (cfiCond48) V0 load(1, XDATA, add(CFA_XSP16, literal(-14)))
          CFI (cfiCond48) V1 load(1, XDATA, add(CFA_XSP16, literal(-13)))
          CFI (cfiCond48) V2 load(1, XDATA, add(CFA_XSP16, literal(-12)))
          CFI (cfiCond48) V3 load(1, XDATA, add(CFA_XSP16, literal(-11)))
          CFI (cfiCond48) V4 load(1, XDATA, add(CFA_XSP16, literal(-10)))
          CFI (cfiCond48) V5 load(1, XDATA, add(CFA_XSP16, literal(-9)))
          CFI (cfiCond48) V6 load(1, XDATA, add(CFA_XSP16, literal(-8)))
          CFI (cfiCond48) V7 load(1, XDATA, add(CFA_XSP16, literal(-7)))
          CFI (cfiCond48) R7 load(1, XDATA, add(CFA_XSP16, literal(-6)))
          CFI (cfiCond48) ?RET_LOW load(1, XDATA, add(CFA_XSP16, literal(-5)))
          CFI (cfiCond48) ?RET_HIGH load(1, XDATA, add(CFA_XSP16, literal(-4)))
          CFI (cfiCond48) ?BRET_EXT load(1, XDATA, add(CFA_XSP16, literal(-3)))
          CFI (cfiCond48) DPL0 load(1, XDATA, add(CFA_XSP16, literal(-2)))
          CFI (cfiCond48) DPH0 load(1, XDATA, add(CFA_XSP16, literal(-1)))
          CFI (cfiCond48) CFA_SP SP+-2
          CFI (cfiCond48) CFA_XSP16 add(XSP16, 175)
          CFI Block cfiPicker49 Using cfiCommon1
          CFI (cfiPicker49) NoFunction
          CFI (cfiPicker49) Picker
        MOV       ?V0,#`?<Constant "AT+RST\\r\\n">` & 0xff
        MOV       ?V1,#(`?<Constant "AT+RST\\r\\n">` >> 8) & 0xff
          CFI EndBlock cfiCond47
          CFI EndBlock cfiCond48
          CFI EndBlock cfiPicker49
        ; Setup parameters for call to function _UARTSend
        ; Setup parameters for call to function _UARTSend
        REQUIRE ??Subroutine27_0
        ; // Fall through to label ??Subroutine27_0

        RSEG BANKED_CODE:HUGECODE:NOROOT(0)
??Subroutine27_0:
          CFI Block cfiCond50 Using cfiCommon0
          CFI Function SampleApp_ProcessEvent
          CFI Conditional ??CrossCallReturnLabel_52
          CFI R6 load(1, XDATA, add(CFA_XSP16, literal(-16)))
          CFI VB load(1, XDATA, add(CFA_XSP16, literal(-15)))
          CFI V0 load(1, XDATA, add(CFA_XSP16, literal(-14)))
          CFI V1 load(1, XDATA, add(CFA_XSP16, literal(-13)))
          CFI V2 load(1, XDATA, add(CFA_XSP16, literal(-12)))
          CFI V3 load(1, XDATA, add(CFA_XSP16, literal(-11)))
          CFI V4 load(1, XDATA, add(CFA_XSP16, literal(-10)))
          CFI V5 load(1, XDATA, add(CFA_XSP16, literal(-9)))
          CFI V6 load(1, XDATA, add(CFA_XSP16, literal(-8)))
          CFI V7 load(1, XDATA, add(CFA_XSP16, literal(-7)))
          CFI R7 load(1, XDATA, add(CFA_XSP16, literal(-6)))
          CFI ?RET_LOW load(1, XDATA, add(CFA_XSP16, literal(-5)))
          CFI ?RET_HIGH load(1, XDATA, add(CFA_XSP16, literal(-4)))
          CFI ?BRET_EXT load(1, XDATA, add(CFA_XSP16, literal(-3)))
          CFI DPL0 load(1, XDATA, add(CFA_XSP16, literal(-2)))
          CFI DPH0 load(1, XDATA, add(CFA_XSP16, literal(-1)))
          CFI CFA_SP SP+-2
          CFI CFA_XSP16 add(XSP16, 175)
          CFI Block cfiCond51 Using cfiCommon0
          CFI (cfiCond51) Function SampleApp_ProcessEvent
          CFI (cfiCond51) Conditional ??CrossCallReturnLabel_53
          CFI (cfiCond51) R6 load(1, XDATA, add(CFA_XSP16, literal(-16)))
          CFI (cfiCond51) VB load(1, XDATA, add(CFA_XSP16, literal(-15)))
          CFI (cfiCond51) V0 load(1, XDATA, add(CFA_XSP16, literal(-14)))
          CFI (cfiCond51) V1 load(1, XDATA, add(CFA_XSP16, literal(-13)))
          CFI (cfiCond51) V2 load(1, XDATA, add(CFA_XSP16, literal(-12)))
          CFI (cfiCond51) V3 load(1, XDATA, add(CFA_XSP16, literal(-11)))
          CFI (cfiCond51) V4 load(1, XDATA, add(CFA_XSP16, literal(-10)))
          CFI (cfiCond51) V5 load(1, XDATA, add(CFA_XSP16, literal(-9)))
          CFI (cfiCond51) V6 load(1, XDATA, add(CFA_XSP16, literal(-8)))
          CFI (cfiCond51) V7 load(1, XDATA, add(CFA_XSP16, literal(-7)))
          CFI (cfiCond51) R7 load(1, XDATA, add(CFA_XSP16, literal(-6)))
          CFI (cfiCond51) ?RET_LOW load(1, XDATA, add(CFA_XSP16, literal(-5)))
          CFI (cfiCond51) ?RET_HIGH load(1, XDATA, add(CFA_XSP16, literal(-4)))
          CFI (cfiCond51) ?BRET_EXT load(1, XDATA, add(CFA_XSP16, literal(-3)))
          CFI (cfiCond51) DPL0 load(1, XDATA, add(CFA_XSP16, literal(-2)))
          CFI (cfiCond51) DPH0 load(1, XDATA, add(CFA_XSP16, literal(-1)))
          CFI (cfiCond51) CFA_SP SP+-2
          CFI (cfiCond51) CFA_XSP16 add(XSP16, 175)
          CFI Block cfiCond52 Using cfiCommon0
          CFI (cfiCond52) Function SampleApp_ProcessEvent
          CFI (cfiCond52) Conditional ??CrossCallReturnLabel_54
          CFI (cfiCond52) R6 load(1, XDATA, add(CFA_XSP16, literal(-16)))
          CFI (cfiCond52) VB load(1, XDATA, add(CFA_XSP16, literal(-15)))
          CFI (cfiCond52) V0 load(1, XDATA, add(CFA_XSP16, literal(-14)))
          CFI (cfiCond52) V1 load(1, XDATA, add(CFA_XSP16, literal(-13)))
          CFI (cfiCond52) V2 load(1, XDATA, add(CFA_XSP16, literal(-12)))
          CFI (cfiCond52) V3 load(1, XDATA, add(CFA_XSP16, literal(-11)))
          CFI (cfiCond52) V4 load(1, XDATA, add(CFA_XSP16, literal(-10)))
          CFI (cfiCond52) V5 load(1, XDATA, add(CFA_XSP16, literal(-9)))
          CFI (cfiCond52) V6 load(1, XDATA, add(CFA_XSP16, literal(-8)))
          CFI (cfiCond52) V7 load(1, XDATA, add(CFA_XSP16, literal(-7)))
          CFI (cfiCond52) R7 load(1, XDATA, add(CFA_XSP16, literal(-6)))
          CFI (cfiCond52) ?RET_LOW load(1, XDATA, add(CFA_XSP16, literal(-5)))
          CFI (cfiCond52) ?RET_HIGH load(1, XDATA, add(CFA_XSP16, literal(-4)))
          CFI (cfiCond52) ?BRET_EXT load(1, XDATA, add(CFA_XSP16, literal(-3)))
          CFI (cfiCond52) DPL0 load(1, XDATA, add(CFA_XSP16, literal(-2)))
          CFI (cfiCond52) DPH0 load(1, XDATA, add(CFA_XSP16, literal(-1)))
          CFI (cfiCond52) CFA_SP SP+-2
          CFI (cfiCond52) CFA_XSP16 add(XSP16, 175)
          CFI Block cfiCond53 Using cfiCommon0
          CFI (cfiCond53) Function SampleApp_ProcessEvent
          CFI (cfiCond53) Conditional ??CrossCallReturnLabel_55
          CFI (cfiCond53) R6 load(1, XDATA, add(CFA_XSP16, literal(-16)))
          CFI (cfiCond53) VB load(1, XDATA, add(CFA_XSP16, literal(-15)))
          CFI (cfiCond53) V0 load(1, XDATA, add(CFA_XSP16, literal(-14)))
          CFI (cfiCond53) V1 load(1, XDATA, add(CFA_XSP16, literal(-13)))
          CFI (cfiCond53) V2 load(1, XDATA, add(CFA_XSP16, literal(-12)))
          CFI (cfiCond53) V3 load(1, XDATA, add(CFA_XSP16, literal(-11)))
          CFI (cfiCond53) V4 load(1, XDATA, add(CFA_XSP16, literal(-10)))
          CFI (cfiCond53) V5 load(1, XDATA, add(CFA_XSP16, literal(-9)))
          CFI (cfiCond53) V6 load(1, XDATA, add(CFA_XSP16, literal(-8)))
          CFI (cfiCond53) V7 load(1, XDATA, add(CFA_XSP16, literal(-7)))
          CFI (cfiCond53) R7 load(1, XDATA, add(CFA_XSP16, literal(-6)))
          CFI (cfiCond53) ?RET_LOW load(1, XDATA, add(CFA_XSP16, literal(-5)))
          CFI (cfiCond53) ?RET_HIGH load(1, XDATA, add(CFA_XSP16, literal(-4)))
          CFI (cfiCond53) ?BRET_EXT load(1, XDATA, add(CFA_XSP16, literal(-3)))
          CFI (cfiCond53) DPL0 load(1, XDATA, add(CFA_XSP16, literal(-2)))
          CFI (cfiCond53) DPH0 load(1, XDATA, add(CFA_XSP16, literal(-1)))
          CFI (cfiCond53) CFA_SP SP+-2
          CFI (cfiCond53) CFA_XSP16 add(XSP16, 175)
          CFI Block cfiCond54 Using cfiCommon0
          CFI (cfiCond54) Function SampleApp_ProcessEvent
          CFI (cfiCond54) Conditional ??CrossCallReturnLabel_56
          CFI (cfiCond54) R6 load(1, XDATA, add(CFA_XSP16, literal(-16)))
          CFI (cfiCond54) VB load(1, XDATA, add(CFA_XSP16, literal(-15)))
          CFI (cfiCond54) V0 load(1, XDATA, add(CFA_XSP16, literal(-14)))
          CFI (cfiCond54) V1 load(1, XDATA, add(CFA_XSP16, literal(-13)))
          CFI (cfiCond54) V2 load(1, XDATA, add(CFA_XSP16, literal(-12)))
          CFI (cfiCond54) V3 load(1, XDATA, add(CFA_XSP16, literal(-11)))
          CFI (cfiCond54) V4 load(1, XDATA, add(CFA_XSP16, literal(-10)))
          CFI (cfiCond54) V5 load(1, XDATA, add(CFA_XSP16, literal(-9)))
          CFI (cfiCond54) V6 load(1, XDATA, add(CFA_XSP16, literal(-8)))
          CFI (cfiCond54) V7 load(1, XDATA, add(CFA_XSP16, literal(-7)))
          CFI (cfiCond54) R7 load(1, XDATA, add(CFA_XSP16, literal(-6)))
          CFI (cfiCond54) ?RET_LOW load(1, XDATA, add(CFA_XSP16, literal(-5)))
          CFI (cfiCond54) ?RET_HIGH load(1, XDATA, add(CFA_XSP16, literal(-4)))
          CFI (cfiCond54) ?BRET_EXT load(1, XDATA, add(CFA_XSP16, literal(-3)))
          CFI (cfiCond54) DPL0 load(1, XDATA, add(CFA_XSP16, literal(-2)))
          CFI (cfiCond54) DPH0 load(1, XDATA, add(CFA_XSP16, literal(-1)))
          CFI (cfiCond54) CFA_SP SP+-2
          CFI (cfiCond54) CFA_XSP16 add(XSP16, 175)
          CFI Block cfiCond55 Using cfiCommon0
          CFI (cfiCond55) Function SampleApp_ProcessEvent
          CFI (cfiCond55) Conditional ??CrossCallReturnLabel_57
          CFI (cfiCond55) R6 load(1, XDATA, add(CFA_XSP16, literal(-16)))
          CFI (cfiCond55) VB load(1, XDATA, add(CFA_XSP16, literal(-15)))
          CFI (cfiCond55) V0 load(1, XDATA, add(CFA_XSP16, literal(-14)))
          CFI (cfiCond55) V1 load(1, XDATA, add(CFA_XSP16, literal(-13)))
          CFI (cfiCond55) V2 load(1, XDATA, add(CFA_XSP16, literal(-12)))
          CFI (cfiCond55) V3 load(1, XDATA, add(CFA_XSP16, literal(-11)))
          CFI (cfiCond55) V4 load(1, XDATA, add(CFA_XSP16, literal(-10)))
          CFI (cfiCond55) V5 load(1, XDATA, add(CFA_XSP16, literal(-9)))
          CFI (cfiCond55) V6 load(1, XDATA, add(CFA_XSP16, literal(-8)))
          CFI (cfiCond55) V7 load(1, XDATA, add(CFA_XSP16, literal(-7)))
          CFI (cfiCond55) R7 load(1, XDATA, add(CFA_XSP16, literal(-6)))
          CFI (cfiCond55) ?RET_LOW load(1, XDATA, add(CFA_XSP16, literal(-5)))
          CFI (cfiCond55) ?RET_HIGH load(1, XDATA, add(CFA_XSP16, literal(-4)))
          CFI (cfiCond55) ?BRET_EXT load(1, XDATA, add(CFA_XSP16, literal(-3)))
          CFI (cfiCond55) DPL0 load(1, XDATA, add(CFA_XSP16, literal(-2)))
          CFI (cfiCond55) DPH0 load(1, XDATA, add(CFA_XSP16, literal(-1)))
          CFI (cfiCond55) CFA_SP SP+-2
          CFI (cfiCond55) CFA_XSP16 add(XSP16, 175)
          CFI Block cfiCond56 Using cfiCommon0
          CFI (cfiCond56) Function SampleApp_ProcessEvent
          CFI (cfiCond56) Conditional ??CrossCallReturnLabel_58
          CFI (cfiCond56) R6 load(1, XDATA, add(CFA_XSP16, literal(-16)))
          CFI (cfiCond56) VB load(1, XDATA, add(CFA_XSP16, literal(-15)))
          CFI (cfiCond56) V0 load(1, XDATA, add(CFA_XSP16, literal(-14)))
          CFI (cfiCond56) V1 load(1, XDATA, add(CFA_XSP16, literal(-13)))
          CFI (cfiCond56) V2 load(1, XDATA, add(CFA_XSP16, literal(-12)))
          CFI (cfiCond56) V3 load(1, XDATA, add(CFA_XSP16, literal(-11)))
          CFI (cfiCond56) V4 load(1, XDATA, add(CFA_XSP16, literal(-10)))
          CFI (cfiCond56) V5 load(1, XDATA, add(CFA_XSP16, literal(-9)))
          CFI (cfiCond56) V6 load(1, XDATA, add(CFA_XSP16, literal(-8)))
          CFI (cfiCond56) V7 load(1, XDATA, add(CFA_XSP16, literal(-7)))
          CFI (cfiCond56) R7 load(1, XDATA, add(CFA_XSP16, literal(-6)))
          CFI (cfiCond56) ?RET_LOW load(1, XDATA, add(CFA_XSP16, literal(-5)))
          CFI (cfiCond56) ?RET_HIGH load(1, XDATA, add(CFA_XSP16, literal(-4)))
          CFI (cfiCond56) ?BRET_EXT load(1, XDATA, add(CFA_XSP16, literal(-3)))
          CFI (cfiCond56) DPL0 load(1, XDATA, add(CFA_XSP16, literal(-2)))
          CFI (cfiCond56) DPH0 load(1, XDATA, add(CFA_XSP16, literal(-1)))
          CFI (cfiCond56) CFA_SP SP+-2
          CFI (cfiCond56) CFA_XSP16 add(XSP16, 175)
          CFI Block cfiCond57 Using cfiCommon0
          CFI (cfiCond57) Function SampleApp_ProcessEvent
          CFI (cfiCond57) Conditional ??CrossCallReturnLabel_59
          CFI (cfiCond57) R6 load(1, XDATA, add(CFA_XSP16, literal(-16)))
          CFI (cfiCond57) VB load(1, XDATA, add(CFA_XSP16, literal(-15)))
          CFI (cfiCond57) V0 load(1, XDATA, add(CFA_XSP16, literal(-14)))
          CFI (cfiCond57) V1 load(1, XDATA, add(CFA_XSP16, literal(-13)))
          CFI (cfiCond57) V2 load(1, XDATA, add(CFA_XSP16, literal(-12)))
          CFI (cfiCond57) V3 load(1, XDATA, add(CFA_XSP16, literal(-11)))
          CFI (cfiCond57) V4 load(1, XDATA, add(CFA_XSP16, literal(-10)))
          CFI (cfiCond57) V5 load(1, XDATA, add(CFA_XSP16, literal(-9)))
          CFI (cfiCond57) V6 load(1, XDATA, add(CFA_XSP16, literal(-8)))
          CFI (cfiCond57) V7 load(1, XDATA, add(CFA_XSP16, literal(-7)))
          CFI (cfiCond57) R7 load(1, XDATA, add(CFA_XSP16, literal(-6)))
          CFI (cfiCond57) ?RET_LOW load(1, XDATA, add(CFA_XSP16, literal(-5)))
          CFI (cfiCond57) ?RET_HIGH load(1, XDATA, add(CFA_XSP16, literal(-4)))
          CFI (cfiCond57) ?BRET_EXT load(1, XDATA, add(CFA_XSP16, literal(-3)))
          CFI (cfiCond57) DPL0 load(1, XDATA, add(CFA_XSP16, literal(-2)))
          CFI (cfiCond57) DPH0 load(1, XDATA, add(CFA_XSP16, literal(-1)))
          CFI (cfiCond57) CFA_SP SP+-2
          CFI (cfiCond57) CFA_XSP16 add(XSP16, 175)
          CFI Block cfiCond58 Using cfiCommon0
          CFI (cfiCond58) Function SampleApp_ProcessEvent
          CFI (cfiCond58) Conditional ??CrossCallReturnLabel_60
          CFI (cfiCond58) R6 load(1, XDATA, add(CFA_XSP16, literal(-16)))
          CFI (cfiCond58) VB load(1, XDATA, add(CFA_XSP16, literal(-15)))
          CFI (cfiCond58) V0 load(1, XDATA, add(CFA_XSP16, literal(-14)))
          CFI (cfiCond58) V1 load(1, XDATA, add(CFA_XSP16, literal(-13)))
          CFI (cfiCond58) V2 load(1, XDATA, add(CFA_XSP16, literal(-12)))
          CFI (cfiCond58) V3 load(1, XDATA, add(CFA_XSP16, literal(-11)))
          CFI (cfiCond58) V4 load(1, XDATA, add(CFA_XSP16, literal(-10)))
          CFI (cfiCond58) V5 load(1, XDATA, add(CFA_XSP16, literal(-9)))
          CFI (cfiCond58) V6 load(1, XDATA, add(CFA_XSP16, literal(-8)))
          CFI (cfiCond58) V7 load(1, XDATA, add(CFA_XSP16, literal(-7)))
          CFI (cfiCond58) R7 load(1, XDATA, add(CFA_XSP16, literal(-6)))
          CFI (cfiCond58) ?RET_LOW load(1, XDATA, add(CFA_XSP16, literal(-5)))
          CFI (cfiCond58) ?RET_HIGH load(1, XDATA, add(CFA_XSP16, literal(-4)))
          CFI (cfiCond58) ?BRET_EXT load(1, XDATA, add(CFA_XSP16, literal(-3)))
          CFI (cfiCond58) DPL0 load(1, XDATA, add(CFA_XSP16, literal(-2)))
          CFI (cfiCond58) DPH0 load(1, XDATA, add(CFA_XSP16, literal(-1)))
          CFI (cfiCond58) CFA_SP SP+-2
          CFI (cfiCond58) CFA_XSP16 add(XSP16, 175)
          CFI Block cfiCond59 Using cfiCommon0
          CFI (cfiCond59) Function SampleApp_ProcessEvent
          CFI (cfiCond59) Conditional ??CrossCallReturnLabel_50
          CFI (cfiCond59) R6 load(1, XDATA, add(CFA_XSP16, literal(-16)))
          CFI (cfiCond59) VB load(1, XDATA, add(CFA_XSP16, literal(-15)))
          CFI (cfiCond59) V0 load(1, XDATA, add(CFA_XSP16, literal(-14)))
          CFI (cfiCond59) V1 load(1, XDATA, add(CFA_XSP16, literal(-13)))
          CFI (cfiCond59) V2 load(1, XDATA, add(CFA_XSP16, literal(-12)))
          CFI (cfiCond59) V3 load(1, XDATA, add(CFA_XSP16, literal(-11)))
          CFI (cfiCond59) V4 load(1, XDATA, add(CFA_XSP16, literal(-10)))
          CFI (cfiCond59) V5 load(1, XDATA, add(CFA_XSP16, literal(-9)))
          CFI (cfiCond59) V6 load(1, XDATA, add(CFA_XSP16, literal(-8)))
          CFI (cfiCond59) V7 load(1, XDATA, add(CFA_XSP16, literal(-7)))
          CFI (cfiCond59) R7 load(1, XDATA, add(CFA_XSP16, literal(-6)))
          CFI (cfiCond59) ?RET_LOW load(1, XDATA, add(CFA_XSP16, literal(-5)))
          CFI (cfiCond59) ?RET_HIGH load(1, XDATA, add(CFA_XSP16, literal(-4)))
          CFI (cfiCond59) ?BRET_EXT load(1, XDATA, add(CFA_XSP16, literal(-3)))
          CFI (cfiCond59) DPL0 load(1, XDATA, add(CFA_XSP16, literal(-2)))
          CFI (cfiCond59) DPH0 load(1, XDATA, add(CFA_XSP16, literal(-1)))
          CFI (cfiCond59) CFA_SP SP+-2
          CFI (cfiCond59) CFA_XSP16 add(XSP16, 175)
          CFI Block cfiCond60 Using cfiCommon0
          CFI (cfiCond60) Function SampleApp_ProcessEvent
          CFI (cfiCond60) Conditional ??CrossCallReturnLabel_51
          CFI (cfiCond60) R6 load(1, XDATA, add(CFA_XSP16, literal(-16)))
          CFI (cfiCond60) VB load(1, XDATA, add(CFA_XSP16, literal(-15)))
          CFI (cfiCond60) V0 load(1, XDATA, add(CFA_XSP16, literal(-14)))
          CFI (cfiCond60) V1 load(1, XDATA, add(CFA_XSP16, literal(-13)))
          CFI (cfiCond60) V2 load(1, XDATA, add(CFA_XSP16, literal(-12)))
          CFI (cfiCond60) V3 load(1, XDATA, add(CFA_XSP16, literal(-11)))
          CFI (cfiCond60) V4 load(1, XDATA, add(CFA_XSP16, literal(-10)))
          CFI (cfiCond60) V5 load(1, XDATA, add(CFA_XSP16, literal(-9)))
          CFI (cfiCond60) V6 load(1, XDATA, add(CFA_XSP16, literal(-8)))
          CFI (cfiCond60) V7 load(1, XDATA, add(CFA_XSP16, literal(-7)))
          CFI (cfiCond60) R7 load(1, XDATA, add(CFA_XSP16, literal(-6)))
          CFI (cfiCond60) ?RET_LOW load(1, XDATA, add(CFA_XSP16, literal(-5)))
          CFI (cfiCond60) ?RET_HIGH load(1, XDATA, add(CFA_XSP16, literal(-4)))
          CFI (cfiCond60) ?BRET_EXT load(1, XDATA, add(CFA_XSP16, literal(-3)))
          CFI (cfiCond60) DPL0 load(1, XDATA, add(CFA_XSP16, literal(-2)))
          CFI (cfiCond60) DPH0 load(1, XDATA, add(CFA_XSP16, literal(-1)))
          CFI (cfiCond60) CFA_SP SP+-2
          CFI (cfiCond60) CFA_XSP16 add(XSP16, 175)
          CFI Block cfiPicker61 Using cfiCommon1
          CFI (cfiPicker61) NoFunction
          CFI (cfiPicker61) Picker
        MOV       R2,?V0
        MOV       R3,?V1
        MOV       R1,#0x0
        LCALL     `??_UARTSend::?relay`; Banked call to: _UARTSend
        ; Setup parameters for call to function _UARTSend
        ; Setup parameters for call to function _UARTSend
        ; Setup parameters for call to function _UARTSend
        ; Setup parameters for call to function _UARTSend
        ; Setup parameters for call to function _UARTSend
        ; Setup parameters for call to function _UARTSend
        ; Setup parameters for call to function _UARTSend
        ; Setup parameters for call to function _UARTSend
        ; Setup parameters for call to function _UARTSend
        ; Setup parameters for call to function _UARTSend
        ; Setup parameters for call to function _UARTSend
        MOV       R2,?V0
        MOV       R3,?V1
        MOV       R1,#0x1
        LCALL     `??_UARTSend::?relay`; Banked call to: _UARTSend
        ; Setup parameters for call to function wait_for
        ; Setup parameters for call to function wait_for
        ; Setup parameters for call to function wait_for
        ; Setup parameters for call to function wait_for
        ; Setup parameters for call to function wait_for
        ; Setup parameters for call to function wait_for
        ; Setup parameters for call to function wait_for
        ; Setup parameters for call to function wait_for
        ; Setup parameters for call to function wait_for
        ; Setup parameters for call to function wait_for
        ; Setup parameters for call to function wait_for
        CLR       A
        MOV       ?V0,A
        MOV       ?V1,A
        MOV       R0,#?V0
        RET
          CFI EndBlock cfiCond50
          CFI EndBlock cfiCond51
          CFI EndBlock cfiCond52
          CFI EndBlock cfiCond53
          CFI EndBlock cfiCond54
          CFI EndBlock cfiCond55
          CFI EndBlock cfiCond56
          CFI EndBlock cfiCond57
          CFI EndBlock cfiCond58
          CFI EndBlock cfiCond59
          CFI EndBlock cfiCond60
          CFI EndBlock cfiPicker61

        RSEG BANKED_CODE:HUGECODE:NOROOT(0)
?Subroutine7:
          CFI Block cfiCond62 Using cfiCommon0
          CFI Function SampleApp_ProcessEvent
          CFI Conditional ??CrossCallReturnLabel_61
          CFI R6 load(1, XDATA, add(CFA_XSP16, literal(-16)))
          CFI VB load(1, XDATA, add(CFA_XSP16, literal(-15)))
          CFI V0 load(1, XDATA, add(CFA_XSP16, literal(-14)))
          CFI V1 load(1, XDATA, add(CFA_XSP16, literal(-13)))
          CFI V2 load(1, XDATA, add(CFA_XSP16, literal(-12)))
          CFI V3 load(1, XDATA, add(CFA_XSP16, literal(-11)))
          CFI V4 load(1, XDATA, add(CFA_XSP16, literal(-10)))
          CFI V5 load(1, XDATA, add(CFA_XSP16, literal(-9)))
          CFI V6 load(1, XDATA, add(CFA_XSP16, literal(-8)))
          CFI V7 load(1, XDATA, add(CFA_XSP16, literal(-7)))
          CFI R7 load(1, XDATA, add(CFA_XSP16, literal(-6)))
          CFI ?RET_LOW load(1, XDATA, add(CFA_XSP16, literal(-5)))
          CFI ?RET_HIGH load(1, XDATA, add(CFA_XSP16, literal(-4)))
          CFI ?BRET_EXT load(1, XDATA, add(CFA_XSP16, literal(-3)))
          CFI DPL0 load(1, XDATA, add(CFA_XSP16, literal(-2)))
          CFI DPH0 load(1, XDATA, add(CFA_XSP16, literal(-1)))
          CFI CFA_SP SP+-2
          CFI CFA_XSP16 add(XSP16, 175)
          CFI Block cfiCond63 Using cfiCommon0
          CFI (cfiCond63) Function SampleApp_ProcessEvent
          CFI (cfiCond63) Conditional ??CrossCallReturnLabel_62
          CFI (cfiCond63) R6 load(1, XDATA, add(CFA_XSP16, literal(-16)))
          CFI (cfiCond63) VB load(1, XDATA, add(CFA_XSP16, literal(-15)))
          CFI (cfiCond63) V0 load(1, XDATA, add(CFA_XSP16, literal(-14)))
          CFI (cfiCond63) V1 load(1, XDATA, add(CFA_XSP16, literal(-13)))
          CFI (cfiCond63) V2 load(1, XDATA, add(CFA_XSP16, literal(-12)))
          CFI (cfiCond63) V3 load(1, XDATA, add(CFA_XSP16, literal(-11)))
          CFI (cfiCond63) V4 load(1, XDATA, add(CFA_XSP16, literal(-10)))
          CFI (cfiCond63) V5 load(1, XDATA, add(CFA_XSP16, literal(-9)))
          CFI (cfiCond63) V6 load(1, XDATA, add(CFA_XSP16, literal(-8)))
          CFI (cfiCond63) V7 load(1, XDATA, add(CFA_XSP16, literal(-7)))
          CFI (cfiCond63) R7 load(1, XDATA, add(CFA_XSP16, literal(-6)))
          CFI (cfiCond63) ?RET_LOW load(1, XDATA, add(CFA_XSP16, literal(-5)))
          CFI (cfiCond63) ?RET_HIGH load(1, XDATA, add(CFA_XSP16, literal(-4)))
          CFI (cfiCond63) ?BRET_EXT load(1, XDATA, add(CFA_XSP16, literal(-3)))
          CFI (cfiCond63) DPL0 load(1, XDATA, add(CFA_XSP16, literal(-2)))
          CFI (cfiCond63) DPH0 load(1, XDATA, add(CFA_XSP16, literal(-1)))
          CFI (cfiCond63) CFA_SP SP+-2
          CFI (cfiCond63) CFA_XSP16 add(XSP16, 175)
          CFI Block cfiPicker64 Using cfiCommon1
          CFI (cfiPicker64) NoFunction
          CFI (cfiPicker64) Picker
        MOV       R2,#0x4
          CFI EndBlock cfiCond62
          CFI EndBlock cfiCond63
          CFI EndBlock cfiPicker64
        REQUIRE ??Subroutine28_0
        ; // Fall through to label ??Subroutine28_0

        RSEG BANKED_CODE:HUGECODE:NOROOT(0)
??Subroutine28_0:
          CFI Block cfiCond65 Using cfiCommon0
          CFI Function SampleApp_ProcessEvent
          CFI Conditional ??CrossCallReturnLabel_63
          CFI R6 load(1, XDATA, add(CFA_XSP16, literal(-16)))
          CFI VB load(1, XDATA, add(CFA_XSP16, literal(-15)))
          CFI V0 load(1, XDATA, add(CFA_XSP16, literal(-14)))
          CFI V1 load(1, XDATA, add(CFA_XSP16, literal(-13)))
          CFI V2 load(1, XDATA, add(CFA_XSP16, literal(-12)))
          CFI V3 load(1, XDATA, add(CFA_XSP16, literal(-11)))
          CFI V4 load(1, XDATA, add(CFA_XSP16, literal(-10)))
          CFI V5 load(1, XDATA, add(CFA_XSP16, literal(-9)))
          CFI V6 load(1, XDATA, add(CFA_XSP16, literal(-8)))
          CFI V7 load(1, XDATA, add(CFA_XSP16, literal(-7)))
          CFI R7 load(1, XDATA, add(CFA_XSP16, literal(-6)))
          CFI ?RET_LOW load(1, XDATA, add(CFA_XSP16, literal(-5)))
          CFI ?RET_HIGH load(1, XDATA, add(CFA_XSP16, literal(-4)))
          CFI ?BRET_EXT load(1, XDATA, add(CFA_XSP16, literal(-3)))
          CFI DPL0 load(1, XDATA, add(CFA_XSP16, literal(-2)))
          CFI DPH0 load(1, XDATA, add(CFA_XSP16, literal(-1)))
          CFI CFA_SP SP+-2
          CFI CFA_XSP16 add(XSP16, 175)
          CFI Block cfiCond66 Using cfiCommon0
          CFI (cfiCond66) Function SampleApp_ProcessEvent
          CFI (cfiCond66) Conditional ??CrossCallReturnLabel_64
          CFI (cfiCond66) R6 load(1, XDATA, add(CFA_XSP16, literal(-16)))
          CFI (cfiCond66) VB load(1, XDATA, add(CFA_XSP16, literal(-15)))
          CFI (cfiCond66) V0 load(1, XDATA, add(CFA_XSP16, literal(-14)))
          CFI (cfiCond66) V1 load(1, XDATA, add(CFA_XSP16, literal(-13)))
          CFI (cfiCond66) V2 load(1, XDATA, add(CFA_XSP16, literal(-12)))
          CFI (cfiCond66) V3 load(1, XDATA, add(CFA_XSP16, literal(-11)))
          CFI (cfiCond66) V4 load(1, XDATA, add(CFA_XSP16, literal(-10)))
          CFI (cfiCond66) V5 load(1, XDATA, add(CFA_XSP16, literal(-9)))
          CFI (cfiCond66) V6 load(1, XDATA, add(CFA_XSP16, literal(-8)))
          CFI (cfiCond66) V7 load(1, XDATA, add(CFA_XSP16, literal(-7)))
          CFI (cfiCond66) R7 load(1, XDATA, add(CFA_XSP16, literal(-6)))
          CFI (cfiCond66) ?RET_LOW load(1, XDATA, add(CFA_XSP16, literal(-5)))
          CFI (cfiCond66) ?RET_HIGH load(1, XDATA, add(CFA_XSP16, literal(-4)))
          CFI (cfiCond66) ?BRET_EXT load(1, XDATA, add(CFA_XSP16, literal(-3)))
          CFI (cfiCond66) DPL0 load(1, XDATA, add(CFA_XSP16, literal(-2)))
          CFI (cfiCond66) DPH0 load(1, XDATA, add(CFA_XSP16, literal(-1)))
          CFI (cfiCond66) CFA_SP SP+-2
          CFI (cfiCond66) CFA_XSP16 add(XSP16, 175)
          CFI Block cfiCond67 Using cfiCommon0
          CFI (cfiCond67) Function SampleApp_ProcessEvent
          CFI (cfiCond67) Conditional ??CrossCallReturnLabel_65
          CFI (cfiCond67) R6 load(1, XDATA, add(CFA_XSP16, literal(-16)))
          CFI (cfiCond67) VB load(1, XDATA, add(CFA_XSP16, literal(-15)))
          CFI (cfiCond67) V0 load(1, XDATA, add(CFA_XSP16, literal(-14)))
          CFI (cfiCond67) V1 load(1, XDATA, add(CFA_XSP16, literal(-13)))
          CFI (cfiCond67) V2 load(1, XDATA, add(CFA_XSP16, literal(-12)))
          CFI (cfiCond67) V3 load(1, XDATA, add(CFA_XSP16, literal(-11)))
          CFI (cfiCond67) V4 load(1, XDATA, add(CFA_XSP16, literal(-10)))
          CFI (cfiCond67) V5 load(1, XDATA, add(CFA_XSP16, literal(-9)))
          CFI (cfiCond67) V6 load(1, XDATA, add(CFA_XSP16, literal(-8)))
          CFI (cfiCond67) V7 load(1, XDATA, add(CFA_XSP16, literal(-7)))
          CFI (cfiCond67) R7 load(1, XDATA, add(CFA_XSP16, literal(-6)))
          CFI (cfiCond67) ?RET_LOW load(1, XDATA, add(CFA_XSP16, literal(-5)))
          CFI (cfiCond67) ?RET_HIGH load(1, XDATA, add(CFA_XSP16, literal(-4)))
          CFI (cfiCond67) ?BRET_EXT load(1, XDATA, add(CFA_XSP16, literal(-3)))
          CFI (cfiCond67) DPL0 load(1, XDATA, add(CFA_XSP16, literal(-2)))
          CFI (cfiCond67) DPH0 load(1, XDATA, add(CFA_XSP16, literal(-1)))
          CFI (cfiCond67) CFA_SP SP+-2
          CFI (cfiCond67) CFA_XSP16 add(XSP16, 175)
          CFI Block cfiCond68 Using cfiCommon0
          CFI (cfiCond68) Function SampleApp_ProcessEvent
          CFI (cfiCond68) Conditional ??CrossCallReturnLabel_61
          CFI (cfiCond68) R6 load(1, XDATA, add(CFA_XSP16, literal(-16)))
          CFI (cfiCond68) VB load(1, XDATA, add(CFA_XSP16, literal(-15)))
          CFI (cfiCond68) V0 load(1, XDATA, add(CFA_XSP16, literal(-14)))
          CFI (cfiCond68) V1 load(1, XDATA, add(CFA_XSP16, literal(-13)))
          CFI (cfiCond68) V2 load(1, XDATA, add(CFA_XSP16, literal(-12)))
          CFI (cfiCond68) V3 load(1, XDATA, add(CFA_XSP16, literal(-11)))
          CFI (cfiCond68) V4 load(1, XDATA, add(CFA_XSP16, literal(-10)))
          CFI (cfiCond68) V5 load(1, XDATA, add(CFA_XSP16, literal(-9)))
          CFI (cfiCond68) V6 load(1, XDATA, add(CFA_XSP16, literal(-8)))
          CFI (cfiCond68) V7 load(1, XDATA, add(CFA_XSP16, literal(-7)))
          CFI (cfiCond68) R7 load(1, XDATA, add(CFA_XSP16, literal(-6)))
          CFI (cfiCond68) ?RET_LOW load(1, XDATA, add(CFA_XSP16, literal(-5)))
          CFI (cfiCond68) ?RET_HIGH load(1, XDATA, add(CFA_XSP16, literal(-4)))
          CFI (cfiCond68) ?BRET_EXT load(1, XDATA, add(CFA_XSP16, literal(-3)))
          CFI (cfiCond68) DPL0 load(1, XDATA, add(CFA_XSP16, literal(-2)))
          CFI (cfiCond68) DPH0 load(1, XDATA, add(CFA_XSP16, literal(-1)))
          CFI (cfiCond68) CFA_SP SP+-2
          CFI (cfiCond68) CFA_XSP16 add(XSP16, 175)
          CFI Block cfiCond69 Using cfiCommon0
          CFI (cfiCond69) Function SampleApp_ProcessEvent
          CFI (cfiCond69) Conditional ??CrossCallReturnLabel_62
          CFI (cfiCond69) R6 load(1, XDATA, add(CFA_XSP16, literal(-16)))
          CFI (cfiCond69) VB load(1, XDATA, add(CFA_XSP16, literal(-15)))
          CFI (cfiCond69) V0 load(1, XDATA, add(CFA_XSP16, literal(-14)))
          CFI (cfiCond69) V1 load(1, XDATA, add(CFA_XSP16, literal(-13)))
          CFI (cfiCond69) V2 load(1, XDATA, add(CFA_XSP16, literal(-12)))
          CFI (cfiCond69) V3 load(1, XDATA, add(CFA_XSP16, literal(-11)))
          CFI (cfiCond69) V4 load(1, XDATA, add(CFA_XSP16, literal(-10)))
          CFI (cfiCond69) V5 load(1, XDATA, add(CFA_XSP16, literal(-9)))
          CFI (cfiCond69) V6 load(1, XDATA, add(CFA_XSP16, literal(-8)))
          CFI (cfiCond69) V7 load(1, XDATA, add(CFA_XSP16, literal(-7)))
          CFI (cfiCond69) R7 load(1, XDATA, add(CFA_XSP16, literal(-6)))
          CFI (cfiCond69) ?RET_LOW load(1, XDATA, add(CFA_XSP16, literal(-5)))
          CFI (cfiCond69) ?RET_HIGH load(1, XDATA, add(CFA_XSP16, literal(-4)))
          CFI (cfiCond69) ?BRET_EXT load(1, XDATA, add(CFA_XSP16, literal(-3)))
          CFI (cfiCond69) DPL0 load(1, XDATA, add(CFA_XSP16, literal(-2)))
          CFI (cfiCond69) DPH0 load(1, XDATA, add(CFA_XSP16, literal(-1)))
          CFI (cfiCond69) CFA_SP SP+-2
          CFI (cfiCond69) CFA_XSP16 add(XSP16, 175)
          CFI Block cfiPicker70 Using cfiCommon1
          CFI (cfiPicker70) NoFunction
          CFI (cfiPicker70) Picker
        MOV       R3,#0x0
        MOV       DPTR,#SampleApp_TaskID
        MOVX      A,@DPTR
        MOV       R1,A
        LCALL     `??osal_set_event::?relay`; Banked call to: osal_set_event
        RET
          CFI EndBlock cfiCond65
          CFI EndBlock cfiCond66
          CFI EndBlock cfiCond67
          CFI EndBlock cfiCond68
          CFI EndBlock cfiCond69
          CFI EndBlock cfiPicker70

        RSEG BANKED_CODE:HUGECODE:NOROOT(0)
?Subroutine6:
          CFI Block cfiCond71 Using cfiCommon0
          CFI Function SampleApp_Init
          CFI Conditional ??CrossCallReturnLabel_70
          CFI R6 load(1, XDATA, add(CFA_XSP16, literal(-11)))
          CFI VB load(1, XDATA, add(CFA_XSP16, literal(-10)))
          CFI V0 load(1, XDATA, add(CFA_XSP16, literal(-9)))
          CFI V1 load(1, XDATA, add(CFA_XSP16, literal(-8)))
          CFI V2 load(1, XDATA, add(CFA_XSP16, literal(-7)))
          CFI R7 load(1, XDATA, add(CFA_XSP16, literal(-6)))
          CFI ?RET_LOW load(1, XDATA, add(CFA_XSP16, literal(-5)))
          CFI ?RET_HIGH load(1, XDATA, add(CFA_XSP16, literal(-4)))
          CFI ?BRET_EXT load(1, XDATA, add(CFA_XSP16, literal(-3)))
          CFI DPL0 load(1, XDATA, add(CFA_XSP16, literal(-2)))
          CFI DPH0 load(1, XDATA, add(CFA_XSP16, literal(-1)))
          CFI CFA_SP SP+-2
          CFI CFA_XSP16 add(XSP16, 11)
          CFI Block cfiCond72 Using cfiCommon0
          CFI (cfiCond72) Function SampleApp_Init
          CFI (cfiCond72) Conditional ??CrossCallReturnLabel_71
          CFI (cfiCond72) R6 load(1, XDATA, add(CFA_XSP16, literal(-11)))
          CFI (cfiCond72) VB load(1, XDATA, add(CFA_XSP16, literal(-10)))
          CFI (cfiCond72) V0 load(1, XDATA, add(CFA_XSP16, literal(-9)))
          CFI (cfiCond72) V1 load(1, XDATA, add(CFA_XSP16, literal(-8)))
          CFI (cfiCond72) V2 load(1, XDATA, add(CFA_XSP16, literal(-7)))
          CFI (cfiCond72) R7 load(1, XDATA, add(CFA_XSP16, literal(-6)))
          CFI (cfiCond72) ?RET_LOW load(1, XDATA, add(CFA_XSP16, literal(-5)))
          CFI (cfiCond72) ?RET_HIGH load(1, XDATA, add(CFA_XSP16, literal(-4)))
          CFI (cfiCond72) ?BRET_EXT load(1, XDATA, add(CFA_XSP16, literal(-3)))
          CFI (cfiCond72) DPL0 load(1, XDATA, add(CFA_XSP16, literal(-2)))
          CFI (cfiCond72) DPH0 load(1, XDATA, add(CFA_XSP16, literal(-1)))
          CFI (cfiCond72) CFA_SP SP+-2
          CFI (cfiCond72) CFA_XSP16 add(XSP16, 11)
          CFI Block cfiPicker73 Using cfiCommon1
          CFI (cfiPicker73) NoFunction
          CFI (cfiPicker73) Picker
        MOV       A,#0x3
          CFI EndBlock cfiCond71
          CFI EndBlock cfiCond72
          CFI EndBlock cfiPicker73
        REQUIRE ??Subroutine29_0
        ; // Fall through to label ??Subroutine29_0

        RSEG BANKED_CODE:HUGECODE:NOROOT(0)
??Subroutine29_0:
          CFI Block cfiCond74 Using cfiCommon0
          CFI Function SampleApp_Init
          CFI Conditional ??CrossCallReturnLabel_66
          CFI R6 load(1, XDATA, add(CFA_XSP16, literal(-11)))
          CFI VB load(1, XDATA, add(CFA_XSP16, literal(-10)))
          CFI V0 load(1, XDATA, add(CFA_XSP16, literal(-9)))
          CFI V1 load(1, XDATA, add(CFA_XSP16, literal(-8)))
          CFI V2 load(1, XDATA, add(CFA_XSP16, literal(-7)))
          CFI R7 load(1, XDATA, add(CFA_XSP16, literal(-6)))
          CFI ?RET_LOW load(1, XDATA, add(CFA_XSP16, literal(-5)))
          CFI ?RET_HIGH load(1, XDATA, add(CFA_XSP16, literal(-4)))
          CFI ?BRET_EXT load(1, XDATA, add(CFA_XSP16, literal(-3)))
          CFI DPL0 load(1, XDATA, add(CFA_XSP16, literal(-2)))
          CFI DPH0 load(1, XDATA, add(CFA_XSP16, literal(-1)))
          CFI CFA_SP SP+-2
          CFI CFA_XSP16 add(XSP16, 11)
          CFI Block cfiCond75 Using cfiCommon0
          CFI (cfiCond75) Function SampleApp_ProcessEvent
          CFI (cfiCond75) Conditional ??CrossCallReturnLabel_67
          CFI (cfiCond75) R6 load(1, XDATA, add(CFA_XSP16, literal(-16)))
          CFI (cfiCond75) VB load(1, XDATA, add(CFA_XSP16, literal(-15)))
          CFI (cfiCond75) V0 load(1, XDATA, add(CFA_XSP16, literal(-14)))
          CFI (cfiCond75) V1 load(1, XDATA, add(CFA_XSP16, literal(-13)))
          CFI (cfiCond75) V2 load(1, XDATA, add(CFA_XSP16, literal(-12)))
          CFI (cfiCond75) V3 load(1, XDATA, add(CFA_XSP16, literal(-11)))
          CFI (cfiCond75) V4 load(1, XDATA, add(CFA_XSP16, literal(-10)))
          CFI (cfiCond75) V5 load(1, XDATA, add(CFA_XSP16, literal(-9)))
          CFI (cfiCond75) V6 load(1, XDATA, add(CFA_XSP16, literal(-8)))
          CFI (cfiCond75) V7 load(1, XDATA, add(CFA_XSP16, literal(-7)))
          CFI (cfiCond75) R7 load(1, XDATA, add(CFA_XSP16, literal(-6)))
          CFI (cfiCond75) ?RET_LOW load(1, XDATA, add(CFA_XSP16, literal(-5)))
          CFI (cfiCond75) ?RET_HIGH load(1, XDATA, add(CFA_XSP16, literal(-4)))
          CFI (cfiCond75) ?BRET_EXT load(1, XDATA, add(CFA_XSP16, literal(-3)))
          CFI (cfiCond75) DPL0 load(1, XDATA, add(CFA_XSP16, literal(-2)))
          CFI (cfiCond75) DPH0 load(1, XDATA, add(CFA_XSP16, literal(-1)))
          CFI (cfiCond75) CFA_SP SP+-2
          CFI (cfiCond75) CFA_XSP16 add(XSP16, 175)
          CFI Block cfiCond76 Using cfiCommon0
          CFI (cfiCond76) Function SampleApp_ProcessEvent
          CFI (cfiCond76) Conditional ??CrossCallReturnLabel_68
          CFI (cfiCond76) R6 load(1, XDATA, add(CFA_XSP16, literal(-16)))
          CFI (cfiCond76) VB load(1, XDATA, add(CFA_XSP16, literal(-15)))
          CFI (cfiCond76) V0 load(1, XDATA, add(CFA_XSP16, literal(-14)))
          CFI (cfiCond76) V1 load(1, XDATA, add(CFA_XSP16, literal(-13)))
          CFI (cfiCond76) V2 load(1, XDATA, add(CFA_XSP16, literal(-12)))
          CFI (cfiCond76) V3 load(1, XDATA, add(CFA_XSP16, literal(-11)))
          CFI (cfiCond76) V4 load(1, XDATA, add(CFA_XSP16, literal(-10)))
          CFI (cfiCond76) V5 load(1, XDATA, add(CFA_XSP16, literal(-9)))
          CFI (cfiCond76) V6 load(1, XDATA, add(CFA_XSP16, literal(-8)))
          CFI (cfiCond76) V7 load(1, XDATA, add(CFA_XSP16, literal(-7)))
          CFI (cfiCond76) R7 load(1, XDATA, add(CFA_XSP16, literal(-6)))
          CFI (cfiCond76) ?RET_LOW load(1, XDATA, add(CFA_XSP16, literal(-5)))
          CFI (cfiCond76) ?RET_HIGH load(1, XDATA, add(CFA_XSP16, literal(-4)))
          CFI (cfiCond76) ?BRET_EXT load(1, XDATA, add(CFA_XSP16, literal(-3)))
          CFI (cfiCond76) DPL0 load(1, XDATA, add(CFA_XSP16, literal(-2)))
          CFI (cfiCond76) DPH0 load(1, XDATA, add(CFA_XSP16, literal(-1)))
          CFI (cfiCond76) CFA_SP SP+-2
          CFI (cfiCond76) CFA_XSP16 add(XSP16, 175)
          CFI Block cfiCond77 Using cfiCommon0
          CFI (cfiCond77) Function SampleApp_ProcessEvent
          CFI (cfiCond77) Conditional ??CrossCallReturnLabel_69
          CFI (cfiCond77) R6 load(1, XDATA, add(CFA_XSP16, literal(-16)))
          CFI (cfiCond77) VB load(1, XDATA, add(CFA_XSP16, literal(-15)))
          CFI (cfiCond77) V0 load(1, XDATA, add(CFA_XSP16, literal(-14)))
          CFI (cfiCond77) V1 load(1, XDATA, add(CFA_XSP16, literal(-13)))
          CFI (cfiCond77) V2 load(1, XDATA, add(CFA_XSP16, literal(-12)))
          CFI (cfiCond77) V3 load(1, XDATA, add(CFA_XSP16, literal(-11)))
          CFI (cfiCond77) V4 load(1, XDATA, add(CFA_XSP16, literal(-10)))
          CFI (cfiCond77) V5 load(1, XDATA, add(CFA_XSP16, literal(-9)))
          CFI (cfiCond77) V6 load(1, XDATA, add(CFA_XSP16, literal(-8)))
          CFI (cfiCond77) V7 load(1, XDATA, add(CFA_XSP16, literal(-7)))
          CFI (cfiCond77) R7 load(1, XDATA, add(CFA_XSP16, literal(-6)))
          CFI (cfiCond77) ?RET_LOW load(1, XDATA, add(CFA_XSP16, literal(-5)))
          CFI (cfiCond77) ?RET_HIGH load(1, XDATA, add(CFA_XSP16, literal(-4)))
          CFI (cfiCond77) ?BRET_EXT load(1, XDATA, add(CFA_XSP16, literal(-3)))
          CFI (cfiCond77) DPL0 load(1, XDATA, add(CFA_XSP16, literal(-2)))
          CFI (cfiCond77) DPH0 load(1, XDATA, add(CFA_XSP16, literal(-1)))
          CFI (cfiCond77) CFA_SP SP+-2
          CFI (cfiCond77) CFA_XSP16 add(XSP16, 175)
          CFI Block cfiCond78 Using cfiCommon0
          CFI (cfiCond78) Function SampleApp_Init
          CFI (cfiCond78) Conditional ??CrossCallReturnLabel_70
          CFI (cfiCond78) R6 load(1, XDATA, add(CFA_XSP16, literal(-11)))
          CFI (cfiCond78) VB load(1, XDATA, add(CFA_XSP16, literal(-10)))
          CFI (cfiCond78) V0 load(1, XDATA, add(CFA_XSP16, literal(-9)))
          CFI (cfiCond78) V1 load(1, XDATA, add(CFA_XSP16, literal(-8)))
          CFI (cfiCond78) V2 load(1, XDATA, add(CFA_XSP16, literal(-7)))
          CFI (cfiCond78) R7 load(1, XDATA, add(CFA_XSP16, literal(-6)))
          CFI (cfiCond78) ?RET_LOW load(1, XDATA, add(CFA_XSP16, literal(-5)))
          CFI (cfiCond78) ?RET_HIGH load(1, XDATA, add(CFA_XSP16, literal(-4)))
          CFI (cfiCond78) ?BRET_EXT load(1, XDATA, add(CFA_XSP16, literal(-3)))
          CFI (cfiCond78) DPL0 load(1, XDATA, add(CFA_XSP16, literal(-2)))
          CFI (cfiCond78) DPH0 load(1, XDATA, add(CFA_XSP16, literal(-1)))
          CFI (cfiCond78) CFA_SP SP+-2
          CFI (cfiCond78) CFA_XSP16 add(XSP16, 11)
          CFI Block cfiCond79 Using cfiCommon0
          CFI (cfiCond79) Function SampleApp_Init
          CFI (cfiCond79) Conditional ??CrossCallReturnLabel_71
          CFI (cfiCond79) R6 load(1, XDATA, add(CFA_XSP16, literal(-11)))
          CFI (cfiCond79) VB load(1, XDATA, add(CFA_XSP16, literal(-10)))
          CFI (cfiCond79) V0 load(1, XDATA, add(CFA_XSP16, literal(-9)))
          CFI (cfiCond79) V1 load(1, XDATA, add(CFA_XSP16, literal(-8)))
          CFI (cfiCond79) V2 load(1, XDATA, add(CFA_XSP16, literal(-7)))
          CFI (cfiCond79) R7 load(1, XDATA, add(CFA_XSP16, literal(-6)))
          CFI (cfiCond79) ?RET_LOW load(1, XDATA, add(CFA_XSP16, literal(-5)))
          CFI (cfiCond79) ?RET_HIGH load(1, XDATA, add(CFA_XSP16, literal(-4)))
          CFI (cfiCond79) ?BRET_EXT load(1, XDATA, add(CFA_XSP16, literal(-3)))
          CFI (cfiCond79) DPL0 load(1, XDATA, add(CFA_XSP16, literal(-2)))
          CFI (cfiCond79) DPH0 load(1, XDATA, add(CFA_XSP16, literal(-1)))
          CFI (cfiCond79) CFA_SP SP+-2
          CFI (cfiCond79) CFA_XSP16 add(XSP16, 11)
          CFI Block cfiPicker80 Using cfiCommon1
          CFI (cfiPicker80) NoFunction
          CFI (cfiPicker80) Picker
        MOVX      @DPTR,A
        INC       DPTR
        CLR       A
        MOVX      @DPTR,A
        RET
          CFI EndBlock cfiCond74
          CFI EndBlock cfiCond75
          CFI EndBlock cfiCond76
          CFI EndBlock cfiCond77
          CFI EndBlock cfiCond78
          CFI EndBlock cfiCond79
          CFI EndBlock cfiPicker80

        RSEG BANKED_CODE:HUGECODE:NOROOT(0)
?Subroutine5:
          CFI Block cfiCond81 Using cfiCommon0
          CFI Function SampleApp_ProcessEvent
          CFI Conditional ??CrossCallReturnLabel_3
          CFI R6 load(1, XDATA, add(CFA_XSP16, literal(-16)))
          CFI VB load(1, XDATA, add(CFA_XSP16, literal(-15)))
          CFI V0 load(1, XDATA, add(CFA_XSP16, literal(-14)))
          CFI V1 load(1, XDATA, add(CFA_XSP16, literal(-13)))
          CFI V2 load(1, XDATA, add(CFA_XSP16, literal(-12)))
          CFI V3 load(1, XDATA, add(CFA_XSP16, literal(-11)))
          CFI V4 load(1, XDATA, add(CFA_XSP16, literal(-10)))
          CFI V5 load(1, XDATA, add(CFA_XSP16, literal(-9)))
          CFI V6 load(1, XDATA, add(CFA_XSP16, literal(-8)))
          CFI V7 load(1, XDATA, add(CFA_XSP16, literal(-7)))
          CFI R7 load(1, XDATA, add(CFA_XSP16, literal(-6)))
          CFI ?RET_LOW load(1, XDATA, add(CFA_XSP16, literal(-5)))
          CFI ?RET_HIGH load(1, XDATA, add(CFA_XSP16, literal(-4)))
          CFI ?BRET_EXT load(1, XDATA, add(CFA_XSP16, literal(-3)))
          CFI DPL0 load(1, XDATA, add(CFA_XSP16, literal(-2)))
          CFI DPH0 load(1, XDATA, add(CFA_XSP16, literal(-1)))
          CFI CFA_SP SP+-2
          CFI CFA_XSP16 add(XSP16, 175)
          CFI Block cfiCond82 Using cfiCommon0
          CFI (cfiCond82) Function SampleApp_ProcessEvent
          CFI (cfiCond82) Conditional ??CrossCallReturnLabel_4
          CFI (cfiCond82) R6 load(1, XDATA, add(CFA_XSP16, literal(-16)))
          CFI (cfiCond82) VB load(1, XDATA, add(CFA_XSP16, literal(-15)))
          CFI (cfiCond82) V0 load(1, XDATA, add(CFA_XSP16, literal(-14)))
          CFI (cfiCond82) V1 load(1, XDATA, add(CFA_XSP16, literal(-13)))
          CFI (cfiCond82) V2 load(1, XDATA, add(CFA_XSP16, literal(-12)))
          CFI (cfiCond82) V3 load(1, XDATA, add(CFA_XSP16, literal(-11)))
          CFI (cfiCond82) V4 load(1, XDATA, add(CFA_XSP16, literal(-10)))
          CFI (cfiCond82) V5 load(1, XDATA, add(CFA_XSP16, literal(-9)))
          CFI (cfiCond82) V6 load(1, XDATA, add(CFA_XSP16, literal(-8)))
          CFI (cfiCond82) V7 load(1, XDATA, add(CFA_XSP16, literal(-7)))
          CFI (cfiCond82) R7 load(1, XDATA, add(CFA_XSP16, literal(-6)))
          CFI (cfiCond82) ?RET_LOW load(1, XDATA, add(CFA_XSP16, literal(-5)))
          CFI (cfiCond82) ?RET_HIGH load(1, XDATA, add(CFA_XSP16, literal(-4)))
          CFI (cfiCond82) ?BRET_EXT load(1, XDATA, add(CFA_XSP16, literal(-3)))
          CFI (cfiCond82) DPL0 load(1, XDATA, add(CFA_XSP16, literal(-2)))
          CFI (cfiCond82) DPH0 load(1, XDATA, add(CFA_XSP16, literal(-1)))
          CFI (cfiCond82) CFA_SP SP+-2
          CFI (cfiCond82) CFA_XSP16 add(XSP16, 175)
          CFI Block cfiPicker83 Using cfiCommon1
          CFI (cfiPicker83) NoFunction
          CFI (cfiPicker83) Picker
        LCALL     `??WiFiRecv::?relay`; Banked call to: WiFiRecv
        MOV       DPL,?XSP + 0
        MOV       DPH,?XSP + 1
        MOV       A,R2
        MOVX      @DPTR,A
        INC       DPTR
        MOV       A,R3
        MOVX      @DPTR,A
        MOV       DPL,?XSP + 0
        MOV       DPH,?XSP + 1
        RET
          CFI EndBlock cfiCond81
          CFI EndBlock cfiCond82
          CFI EndBlock cfiPicker83
//  547 
//  548 /*********************************************************************
//  549  * Event Generation Functions
//  550  */
//  551 /*********************************************************************
//  552  * @fn      SampleApp_HandleKeys
//  553  *
//  554  * @brief   Handles all key events for this device.
//  555  *
//  556  * @param   shift - true if in shift/alt.
//  557  * @param   keys - bit field for key events. Valid entries:
//  558  *                 HAL_KEY_SW_2
//  559  *                 HAL_KEY_SW_1
//  560  *
//  561  * @return  none
//  562  */

        RSEG BANKED_CODE:HUGECODE:NOROOT(0)
//  563 void SampleApp_HandleKeys( uint8 shift, uint8 keys )
SampleApp_HandleKeys:
          CFI Block cfiBlock84 Using cfiCommon0
          CFI Function SampleApp_HandleKeys
        CODE
//  564 {
        FUNCALL SampleApp_HandleKeys, SampleApp_SendFlashMessage
        LOCFRAME ISTACK, 0, STACK
        LOCFRAME PSTACK, 0, STACK
        LOCFRAME XSTACK, 10, STACK
        LOCFRAME IOVERLAY, 0, STATIC
        LOCFRAME DOVERLAY, 0, STATIC
        ARGFRAME ISTACK, 0, STACK
        ARGFRAME PSTACK, 0, STACK
        ARGFRAME XSTACK, 10, STACK
        ARGFRAME IOVERLAY, 0, STATIC
        ARGFRAME DOVERLAY, 0, STATIC
        FUNCALL SampleApp_HandleKeys, aps_FindGroup
        LOCFRAME ISTACK, 0, STACK
        LOCFRAME PSTACK, 0, STACK
        LOCFRAME XSTACK, 10, STACK
        LOCFRAME IOVERLAY, 0, STATIC
        LOCFRAME DOVERLAY, 0, STATIC
        ARGFRAME ISTACK, 0, STACK
        ARGFRAME PSTACK, 0, STACK
        ARGFRAME XSTACK, 10, STACK
        ARGFRAME IOVERLAY, 0, STATIC
        ARGFRAME DOVERLAY, 0, STATIC
        FUNCALL SampleApp_HandleKeys, aps_RemoveGroup
        LOCFRAME ISTACK, 0, STACK
        LOCFRAME PSTACK, 0, STACK
        LOCFRAME XSTACK, 10, STACK
        LOCFRAME IOVERLAY, 0, STATIC
        LOCFRAME DOVERLAY, 0, STATIC
        ARGFRAME ISTACK, 0, STACK
        ARGFRAME PSTACK, 0, STACK
        ARGFRAME XSTACK, 10, STACK
        ARGFRAME IOVERLAY, 0, STATIC
        ARGFRAME DOVERLAY, 0, STATIC
        FUNCALL SampleApp_HandleKeys, aps_AddGroup
        LOCFRAME ISTACK, 0, STACK
        LOCFRAME PSTACK, 0, STACK
        LOCFRAME XSTACK, 10, STACK
        LOCFRAME IOVERLAY, 0, STATIC
        LOCFRAME DOVERLAY, 0, STATIC
        ARGFRAME ISTACK, 0, STACK
        ARGFRAME PSTACK, 0, STACK
        ARGFRAME XSTACK, 10, STACK
        ARGFRAME IOVERLAY, 0, STATIC
        ARGFRAME DOVERLAY, 0, STATIC
        REQUIRE ?V0
        REQUIRE ?V1
        MOV       A,#-0xa
        LCALL     ?BANKED_ENTER_XDATA
          CFI DPH0 load(1, XDATA, add(CFA_XSP16, literal(-1)))
          CFI DPL0 load(1, XDATA, add(CFA_XSP16, literal(-2)))
          CFI ?BRET_EXT load(1, XDATA, add(CFA_XSP16, literal(-3)))
          CFI ?RET_HIGH load(1, XDATA, add(CFA_XSP16, literal(-4)))
          CFI ?RET_LOW load(1, XDATA, add(CFA_XSP16, literal(-5)))
          CFI R7 load(1, XDATA, add(CFA_XSP16, literal(-6)))
          CFI V1 load(1, XDATA, add(CFA_XSP16, literal(-7)))
          CFI V0 load(1, XDATA, add(CFA_XSP16, literal(-8)))
          CFI VB load(1, XDATA, add(CFA_XSP16, literal(-9)))
          CFI R6 load(1, XDATA, add(CFA_XSP16, literal(-10)))
          CFI CFA_SP SP+0
          CFI CFA_XSP16 add(XSP16, 10)
        ; Saved register size: 10
        ; Auto size: 0
        MOV       A,R2
        MOV       R6,A
//  565   (void)shift;  // Intentionally unreferenced parameter
//  566   
//  567   if ( keys & HAL_KEY_SW_1 )
        MOV       C,0xE0 /* A   */.0
        JNC       ??SampleApp_HandleKeys_0
//  568   {
//  569 	/* This key sends the Flash Command is sent to Group 1.
//  570 	 * This device will not receive the Flash Command from this
//  571 	 * device (even if it belongs to group 1).
//  572 	 */
//  573 	SampleApp_SendFlashMessage( SAMPLEAPP_FLASH_DURATION );
        ; Setup parameters for call to function SampleApp_SendFlashMessage
        MOV       R2,#-0x18
        MOV       R3,#0x3
        LCALL     `??SampleApp_SendFlashMessage::?relay`; Banked call to: SampleApp_SendFlashMessage
//  574   }
//  575 
//  576   if ( keys & HAL_KEY_SW_2 )
??SampleApp_HandleKeys_0:
        MOV       A,R6
        MOV       C,0xE0 /* A   */.1
        JNC       ??SampleApp_HandleKeys_1
//  577   {
//  578 	/* The Flashr Command is sent to Group 1.
//  579 	 * This key toggles this device in and out of group 1.
//  580 	 * If this device doesn't belong to group 1, this application
//  581 	 * will not receive the Flash command sent to group 1.
//  582 	 */
//  583 	aps_Group_t *grp;
//  584 	grp = aps_FindGroup( SAMPLEAPP_ENDPOINT, SAMPLEAPP_FLASH_GROUP );
//  585 	if ( grp )
        ; Setup parameters for call to function aps_FindGroup
        MOV       R2,#0x3
        MOV       R3,#0x0
        MOV       R1,#0x14
        LCALL     `??aps_FindGroup::?relay`; Banked call to: aps_FindGroup
        MOV       A,R2
        ORL       A,R3
        JZ        ??SampleApp_HandleKeys_2
//  586 	{
//  587 	  // Remove from the group
//  588 	  aps_RemoveGroup( SAMPLEAPP_ENDPOINT, SAMPLEAPP_FLASH_GROUP );
        ; Setup parameters for call to function aps_RemoveGroup
        MOV       R2,#0x3
        MOV       R3,#0x0
        MOV       R1,#0x14
        LCALL     `??aps_RemoveGroup::?relay`; Banked call to: aps_RemoveGroup
        SJMP      ??SampleApp_HandleKeys_1
//  589 	}
//  590 	else
//  591 	{
//  592 	  // Add to the flash group
//  593 	  aps_AddGroup( SAMPLEAPP_ENDPOINT, &SampleApp_Group );
??SampleApp_HandleKeys_2:
        ; Setup parameters for call to function aps_AddGroup
        MOV       R2,#SampleApp_Group & 0xff
        MOV       R3,#(SampleApp_Group >> 8) & 0xff
        MOV       R1,#0x14
        LCALL     `??aps_AddGroup::?relay`; Banked call to: aps_AddGroup
//  594 	}
//  595   }
//  596 }
??SampleApp_HandleKeys_1:
        LJMP      ??Subroutine31_0 & 0xFFFF
          CFI EndBlock cfiBlock84
//  597 
//  598 /*********************************************************************
//  599  * LOCAL FUNCTIONS
//  600  */
//  601 
//  602 /*********************************************************************
//  603  * @fn      SampleApp_MessageMSGCB
//  604  *
//  605  * @brief   Data message processor callback.  This function processes
//  606  *          any incoming data - probably from other devices.  So, based
//  607  *          on cluster ID, perform the intended action.
//  608  *
//  609  * @param   none
//  610  *
//  611  * @return  none
//  612  */

        RSEG BANKED_CODE:HUGECODE:NOROOT(0)
//  613 void SampleApp_MessageMSGCB( afIncomingMSGPacket_t *pkt )
SampleApp_MessageMSGCB:
          CFI Block cfiBlock85 Using cfiCommon0
          CFI Function SampleApp_MessageMSGCB
        CODE
//  614 {
        FUNCALL SampleApp_MessageMSGCB, HalUARTWrite
        LOCFRAME ISTACK, 0, STACK
        LOCFRAME PSTACK, 0, STACK
        LOCFRAME XSTACK, 10, STACK
        LOCFRAME IOVERLAY, 0, STATIC
        LOCFRAME DOVERLAY, 0, STATIC
        ARGFRAME ISTACK, 0, STACK
        ARGFRAME PSTACK, 0, STACK
        ARGFRAME XSTACK, 10, STACK
        ARGFRAME IOVERLAY, 0, STATIC
        ARGFRAME DOVERLAY, 0, STATIC
        FUNCALL SampleApp_MessageMSGCB, HalUARTWrite
        LOCFRAME ISTACK, 0, STACK
        LOCFRAME PSTACK, 0, STACK
        LOCFRAME XSTACK, 10, STACK
        LOCFRAME IOVERLAY, 0, STATIC
        LOCFRAME DOVERLAY, 0, STATIC
        ARGFRAME ISTACK, 0, STACK
        ARGFRAME PSTACK, 0, STACK
        ARGFRAME XSTACK, 10, STACK
        ARGFRAME IOVERLAY, 0, STATIC
        ARGFRAME DOVERLAY, 0, STATIC
        FUNCALL SampleApp_MessageMSGCB, HalUARTWrite
        LOCFRAME ISTACK, 0, STACK
        LOCFRAME PSTACK, 0, STACK
        LOCFRAME XSTACK, 10, STACK
        LOCFRAME IOVERLAY, 0, STATIC
        LOCFRAME DOVERLAY, 0, STATIC
        ARGFRAME ISTACK, 0, STACK
        ARGFRAME PSTACK, 0, STACK
        ARGFRAME XSTACK, 10, STACK
        ARGFRAME IOVERLAY, 0, STATIC
        ARGFRAME DOVERLAY, 0, STATIC
        FUNCALL SampleApp_MessageMSGCB, HalUARTWrite
        LOCFRAME ISTACK, 0, STACK
        LOCFRAME PSTACK, 0, STACK
        LOCFRAME XSTACK, 10, STACK
        LOCFRAME IOVERLAY, 0, STATIC
        LOCFRAME DOVERLAY, 0, STATIC
        ARGFRAME ISTACK, 0, STACK
        ARGFRAME PSTACK, 0, STACK
        ARGFRAME XSTACK, 10, STACK
        ARGFRAME IOVERLAY, 0, STATIC
        ARGFRAME DOVERLAY, 0, STATIC
        FUNCALL SampleApp_MessageMSGCB, HalUARTWrite
        LOCFRAME ISTACK, 0, STACK
        LOCFRAME PSTACK, 0, STACK
        LOCFRAME XSTACK, 10, STACK
        LOCFRAME IOVERLAY, 0, STATIC
        LOCFRAME DOVERLAY, 0, STATIC
        ARGFRAME ISTACK, 0, STACK
        ARGFRAME PSTACK, 0, STACK
        ARGFRAME XSTACK, 10, STACK
        ARGFRAME IOVERLAY, 0, STATIC
        ARGFRAME DOVERLAY, 0, STATIC
        FUNCALL SampleApp_MessageMSGCB, HalUARTWrite
        LOCFRAME ISTACK, 0, STACK
        LOCFRAME PSTACK, 0, STACK
        LOCFRAME XSTACK, 10, STACK
        LOCFRAME IOVERLAY, 0, STATIC
        LOCFRAME DOVERLAY, 0, STATIC
        ARGFRAME ISTACK, 0, STACK
        ARGFRAME PSTACK, 0, STACK
        ARGFRAME XSTACK, 10, STACK
        ARGFRAME IOVERLAY, 0, STATIC
        ARGFRAME DOVERLAY, 0, STATIC
        FUNCALL SampleApp_MessageMSGCB, HalUARTWrite
        LOCFRAME ISTACK, 0, STACK
        LOCFRAME PSTACK, 0, STACK
        LOCFRAME XSTACK, 10, STACK
        LOCFRAME IOVERLAY, 0, STATIC
        LOCFRAME DOVERLAY, 0, STATIC
        ARGFRAME ISTACK, 0, STACK
        ARGFRAME PSTACK, 0, STACK
        ARGFRAME XSTACK, 10, STACK
        ARGFRAME IOVERLAY, 0, STATIC
        ARGFRAME DOVERLAY, 0, STATIC
        FUNCALL SampleApp_MessageMSGCB, HalUARTWrite
        LOCFRAME ISTACK, 0, STACK
        LOCFRAME PSTACK, 0, STACK
        LOCFRAME XSTACK, 10, STACK
        LOCFRAME IOVERLAY, 0, STATIC
        LOCFRAME DOVERLAY, 0, STATIC
        ARGFRAME ISTACK, 0, STACK
        ARGFRAME PSTACK, 0, STACK
        ARGFRAME XSTACK, 10, STACK
        ARGFRAME IOVERLAY, 0, STATIC
        ARGFRAME DOVERLAY, 0, STATIC
        FUNCALL SampleApp_MessageMSGCB, HalUARTWrite
        LOCFRAME ISTACK, 0, STACK
        LOCFRAME PSTACK, 0, STACK
        LOCFRAME XSTACK, 10, STACK
        LOCFRAME IOVERLAY, 0, STATIC
        LOCFRAME DOVERLAY, 0, STATIC
        ARGFRAME ISTACK, 0, STACK
        ARGFRAME PSTACK, 0, STACK
        ARGFRAME XSTACK, 10, STACK
        ARGFRAME IOVERLAY, 0, STATIC
        ARGFRAME DOVERLAY, 0, STATIC
        FUNCALL SampleApp_MessageMSGCB, HalUARTWrite
        LOCFRAME ISTACK, 0, STACK
        LOCFRAME PSTACK, 0, STACK
        LOCFRAME XSTACK, 10, STACK
        LOCFRAME IOVERLAY, 0, STATIC
        LOCFRAME DOVERLAY, 0, STATIC
        ARGFRAME ISTACK, 0, STACK
        ARGFRAME PSTACK, 0, STACK
        ARGFRAME XSTACK, 10, STACK
        ARGFRAME IOVERLAY, 0, STATIC
        ARGFRAME DOVERLAY, 0, STATIC
        FUNCALL SampleApp_MessageMSGCB, HalUARTWrite
        LOCFRAME ISTACK, 0, STACK
        LOCFRAME PSTACK, 0, STACK
        LOCFRAME XSTACK, 10, STACK
        LOCFRAME IOVERLAY, 0, STATIC
        LOCFRAME DOVERLAY, 0, STATIC
        ARGFRAME ISTACK, 0, STACK
        ARGFRAME PSTACK, 0, STACK
        ARGFRAME XSTACK, 10, STACK
        ARGFRAME IOVERLAY, 0, STATIC
        ARGFRAME DOVERLAY, 0, STATIC
        FUNCALL SampleApp_MessageMSGCB, HalUARTWrite
        LOCFRAME ISTACK, 0, STACK
        LOCFRAME PSTACK, 0, STACK
        LOCFRAME XSTACK, 10, STACK
        LOCFRAME IOVERLAY, 0, STATIC
        LOCFRAME DOVERLAY, 0, STATIC
        ARGFRAME ISTACK, 0, STACK
        ARGFRAME PSTACK, 0, STACK
        ARGFRAME XSTACK, 10, STACK
        ARGFRAME IOVERLAY, 0, STATIC
        ARGFRAME DOVERLAY, 0, STATIC
        REQUIRE ?V0
        REQUIRE ?V1
        MOV       A,#-0xa
        LCALL     ?BANKED_ENTER_XDATA
          CFI DPH0 load(1, XDATA, add(CFA_XSP16, literal(-1)))
          CFI DPL0 load(1, XDATA, add(CFA_XSP16, literal(-2)))
          CFI ?BRET_EXT load(1, XDATA, add(CFA_XSP16, literal(-3)))
          CFI ?RET_HIGH load(1, XDATA, add(CFA_XSP16, literal(-4)))
          CFI ?RET_LOW load(1, XDATA, add(CFA_XSP16, literal(-5)))
          CFI R7 load(1, XDATA, add(CFA_XSP16, literal(-6)))
          CFI V1 load(1, XDATA, add(CFA_XSP16, literal(-7)))
          CFI V0 load(1, XDATA, add(CFA_XSP16, literal(-8)))
          CFI VB load(1, XDATA, add(CFA_XSP16, literal(-9)))
          CFI R6 load(1, XDATA, add(CFA_XSP16, literal(-10)))
          CFI CFA_SP SP+0
          CFI CFA_XSP16 add(XSP16, 10)
        ; Saved register size: 10
        ; Auto size: 0
        MOV       A,R2
        MOV       R6,A
        MOV       A,R3
        MOV       R7,A
//  615   //uint16 flashTime;
//  616 
//  617   switch ( pkt->clusterId )
        MOV       DPL,R2
        MOV       DPH,A
        INC       DPTR
        INC       DPTR
        INC       DPTR
        INC       DPTR
        MOVX      A,@DPTR
        MOV       ?V0,A
        INC       DPTR
        MOVX      A,@DPTR
        MOV       ?V1,A
        MOV       R0,#?V0
        LCALL     ?US_SWITCH_DENSE
`?<Jumptable for SampleApp_MessageMSGCB>_0`:
        DATA
        DATA16
        DATA
        DATA16
        DW        1
        DATA
        DATA8
        DATA
        DATA8
        DB        1
        DATA
        DATA16
        DATA
        DATA16
        DW        ??SampleApp_MessageMSGCB_0
        DATA
        DATA16
        DATA
        DATA16
        DW        ??SampleApp_MessageMSGCB_1
        DATA
        DATA16
        DATA
        DATA16
        DW        ??SampleApp_MessageMSGCB_2
        CODE
//  618   {
//  619 	 case SAMPLEAPP_PERIODIC_CLUSTERID:
//  620 	  HalUARTWrite(0,"I get data\n",11);//用于提示有数据
??SampleApp_MessageMSGCB_1:
        ; Setup parameters for call to function HalUARTWrite
        MOV       R4,#0xb
        MOV       R5,#0x0
        MOV       R2,#`?<Constant "I get data\\n">` & 0xff
        MOV       R3,#(`?<Constant "I get data\\n">` >> 8) & 0xff
        MOV       R1,#0x0
        LCALL     `??HalUARTWrite::?relay`; Banked call to: HalUARTWrite
//  621 	  HalUARTWrite(0, &(pkt->cmd.Data[0]),10); //打印收到数据
        ; Setup parameters for call to function HalUARTWrite
        MOV       R4,#0xa
        MOV       R5,#0x0
        MOV       A,R6
        ADD       A,#0x22
        MOV       DPL,A
        CLR       A
        ADDC      A,R7
        LCALL     ?Subroutine8 & 0xFFFF
//  622 	  HalUARTWrite(0,"\n",1);  //回车换行，便于观察
??CrossCallReturnLabel_5:
        ; Setup parameters for call to function HalUARTWrite
        MOV       R4,#0x1
        MOV       R5,#0x0
        MOV       R2,#`?<Constant "\\n">` & 0xff
        MOV       R3,#(`?<Constant "\\n">` >> 8) & 0xff
        LJMP      ??SampleApp_MessageMSGCB_3 & 0xFFFF
//  623 	  break;
//  624 
//  625 	 case SAMPLEAPP_FLASH_CLUSTERID:
//  626 	   if(pkt->cmd.Data[4]=='E' && pkt->cmd.Data[5] =='2')
??SampleApp_MessageMSGCB_2:
        MOV       A,R2
        LCALL     ?Subroutine22 & 0xFFFF
??CrossCallReturnLabel_37:
        MOV       R0,A
        LCALL     ?Subroutine10 & 0xFFFF
??CrossCallReturnLabel_7:
        MOVX      A,@DPTR
        XRL       A,#0x45
        JNZ       ??SampleApp_MessageMSGCB_4
        MOV       A,R2
        LCALL     ?Subroutine24 & 0xFFFF
??CrossCallReturnLabel_39:
        LCALL     ?Subroutine10 & 0xFFFF
??CrossCallReturnLabel_8:
        INC       DPTR
        MOVX      A,@DPTR
        XRL       A,#0x32
        JNZ       ??SampleApp_MessageMSGCB_4
//  627 	   {
//  628 		 HalUARTWrite(0,"Temp is:",8);
        ; Setup parameters for call to function HalUARTWrite
        MOV       R4,#0x8
        MOV       R5,#0x0
        MOV       R2,#`?<Constant "Temp is:">` & 0xff
        MOV       R3,#(`?<Constant "Temp is:">` >> 8) & 0xff
        MOV       R1,#0x0
        LCALL     `??HalUARTWrite::?relay`; Banked call to: HalUARTWrite
//  629 		 HalUARTWrite(0,&pkt->cmd.Data[0],2);
        MOV       A,R6
        ADD       A,#0x22
        MOV       ?V0,A
        CLR       A
        ADDC      A,R7
        MOV       ?V1,A
        ; Setup parameters for call to function HalUARTWrite
        MOV       R4,#0x2
        MOV       R5,#0x0
        MOV       DPL,?V0
        LCALL     ?Subroutine8 & 0xFFFF
//  630 		 HalUARTWrite(0,"\r\n",2);
??CrossCallReturnLabel_6:
        ; Setup parameters for call to function HalUARTWrite
        MOV       R4,#0x2
        MOV       R5,#0x0
        MOV       R2,#`?<Constant "\\r\\n">` & 0xff
        MOV       R3,#(`?<Constant "\\r\\n">` >> 8) & 0xff
        MOV       R1,#0x0
        LCALL     `??HalUARTWrite::?relay`; Banked call to: HalUARTWrite
//  631 
//  632 		 HalUARTWrite(0,"Humidity is:",12);
        ; Setup parameters for call to function HalUARTWrite
        MOV       R4,#0xc
        MOV       R5,#0x0
        MOV       R2,#`?<Constant "Humidity is:">` & 0xff
        MOV       R3,#(`?<Constant "Humidity is:">` >> 8) & 0xff
        MOV       R1,#0x0
        LCALL     `??HalUARTWrite::?relay`; Banked call to: HalUARTWrite
//  633 		 HalUARTWrite(0,&pkt->cmd.Data[2],2);
        ; Setup parameters for call to function HalUARTWrite
        MOV       R4,#0x2
        MOV       R5,#0x0
        MOV       DPL,?V0
        MOV       DPH,?V1
        MOVX      A,@DPTR
        ADD       A,R4
        MOV       R2,A
        INC       DPTR
        MOVX      A,@DPTR
        ADDC      A,#0x0
        SJMP      ??SampleApp_MessageMSGCB_5
//  634 		 HalUARTWrite(0,"\r\n",2);
//  635 	   }
//  636 	   else
//  637 	   {
//  638 	  HalUARTWrite(0,"I get data:\n",12);//用于提示有数据
??SampleApp_MessageMSGCB_4:
        ; Setup parameters for call to function HalUARTWrite
        MOV       R4,#0xc
        MOV       R5,#0x0
        MOV       R2,#`?<Constant "I get data:\\n">` & 0xff
        MOV       R3,#(`?<Constant "I get data:\\n">` >> 8) & 0xff
        MOV       R1,#0x0
        LCALL     `??HalUARTWrite::?relay`; Banked call to: HalUARTWrite
//  639 	  HalUARTWrite(0, &pkt->cmd.Data[0],20); //打印收到数据
        ; Setup parameters for call to function HalUARTWrite
        MOV       R4,#0x14
        MOV       R5,#0x0
        MOV       A,R6
        LCALL     ?Subroutine22 & 0xFFFF
??CrossCallReturnLabel_38:
        MOV       R2,A
        INC       DPTR
        MOVX      A,@DPTR
??SampleApp_MessageMSGCB_5:
        MOV       R3,A
        MOV       R1,#0x0
        LCALL     `??HalUARTWrite::?relay`; Banked call to: HalUARTWrite
//  640 	  HalUARTWrite(0,"\r\n",2);  //回车换行，便于观察
        ; Setup parameters for call to function HalUARTWrite
        MOV       R4,#0x2
        MOV       R5,#0x0
        MOV       R2,#`?<Constant "\\r\\n">` & 0xff
        MOV       R3,#(`?<Constant "\\r\\n">` >> 8) & 0xff
??SampleApp_MessageMSGCB_3:
        MOV       R1,#0x0
        LCALL     `??HalUARTWrite::?relay`; Banked call to: HalUARTWrite
//  641 	//  flashTime = BUILD_UINT16(pkt->cmd.Data[1], pkt->cmd.Data[2] );
//  642 	 // HalLedBlink( HAL_LED_4, 4, 50, (flashTime / 4) );
//  643 	   }
//  644 	  break;
//  645   }
//  646 }
??SampleApp_MessageMSGCB_0:
        LJMP      ??Subroutine31_0 & 0xFFFF
          CFI EndBlock cfiBlock85

        RSEG BANKED_CODE:HUGECODE:NOROOT(0)
?Subroutine22:
          CFI Block cfiCond86 Using cfiCommon0
          CFI Function SampleApp_MessageMSGCB
          CFI Conditional ??CrossCallReturnLabel_37
          CFI R6 load(1, XDATA, add(CFA_XSP16, literal(-10)))
          CFI VB load(1, XDATA, add(CFA_XSP16, literal(-9)))
          CFI V0 load(1, XDATA, add(CFA_XSP16, literal(-8)))
          CFI V1 load(1, XDATA, add(CFA_XSP16, literal(-7)))
          CFI R7 load(1, XDATA, add(CFA_XSP16, literal(-6)))
          CFI ?RET_LOW load(1, XDATA, add(CFA_XSP16, literal(-5)))
          CFI ?RET_HIGH load(1, XDATA, add(CFA_XSP16, literal(-4)))
          CFI ?BRET_EXT load(1, XDATA, add(CFA_XSP16, literal(-3)))
          CFI DPL0 load(1, XDATA, add(CFA_XSP16, literal(-2)))
          CFI DPH0 load(1, XDATA, add(CFA_XSP16, literal(-1)))
          CFI CFA_SP SP+-2
          CFI CFA_XSP16 add(XSP16, 10)
          CFI Block cfiCond87 Using cfiCommon0
          CFI (cfiCond87) Function SampleApp_MessageMSGCB
          CFI (cfiCond87) Conditional ??CrossCallReturnLabel_38
          CFI (cfiCond87) R6 load(1, XDATA, add(CFA_XSP16, literal(-10)))
          CFI (cfiCond87) VB load(1, XDATA, add(CFA_XSP16, literal(-9)))
          CFI (cfiCond87) V0 load(1, XDATA, add(CFA_XSP16, literal(-8)))
          CFI (cfiCond87) V1 load(1, XDATA, add(CFA_XSP16, literal(-7)))
          CFI (cfiCond87) R7 load(1, XDATA, add(CFA_XSP16, literal(-6)))
          CFI (cfiCond87) ?RET_LOW load(1, XDATA, add(CFA_XSP16, literal(-5)))
          CFI (cfiCond87) ?RET_HIGH load(1, XDATA, add(CFA_XSP16, literal(-4)))
          CFI (cfiCond87) ?BRET_EXT load(1, XDATA, add(CFA_XSP16, literal(-3)))
          CFI (cfiCond87) DPL0 load(1, XDATA, add(CFA_XSP16, literal(-2)))
          CFI (cfiCond87) DPH0 load(1, XDATA, add(CFA_XSP16, literal(-1)))
          CFI (cfiCond87) CFA_SP SP+-2
          CFI (cfiCond87) CFA_XSP16 add(XSP16, 10)
          CFI Block cfiPicker88 Using cfiCommon1
          CFI (cfiPicker88) NoFunction
          CFI (cfiPicker88) Picker
        LCALL     ?Subroutine24 & 0xFFFF
??CrossCallReturnLabel_40:
        MOVX      A,@DPTR
        RET
          CFI EndBlock cfiCond86
          CFI EndBlock cfiCond87
          CFI EndBlock cfiPicker88

        RSEG BANKED_CODE:HUGECODE:NOROOT(0)
?Subroutine24:
          CFI Block cfiCond89 Using cfiCommon0
          CFI Function SampleApp_MessageMSGCB
          CFI Conditional ??CrossCallReturnLabel_39
          CFI R6 load(1, XDATA, add(CFA_XSP16, literal(-10)))
          CFI VB load(1, XDATA, add(CFA_XSP16, literal(-9)))
          CFI V0 load(1, XDATA, add(CFA_XSP16, literal(-8)))
          CFI V1 load(1, XDATA, add(CFA_XSP16, literal(-7)))
          CFI R7 load(1, XDATA, add(CFA_XSP16, literal(-6)))
          CFI ?RET_LOW load(1, XDATA, add(CFA_XSP16, literal(-5)))
          CFI ?RET_HIGH load(1, XDATA, add(CFA_XSP16, literal(-4)))
          CFI ?BRET_EXT load(1, XDATA, add(CFA_XSP16, literal(-3)))
          CFI DPL0 load(1, XDATA, add(CFA_XSP16, literal(-2)))
          CFI DPH0 load(1, XDATA, add(CFA_XSP16, literal(-1)))
          CFI CFA_SP SP+-2
          CFI CFA_XSP16 add(XSP16, 10)
          CFI Block cfiCond90 Using cfiCommon0
          CFI (cfiCond90) Function SampleApp_MessageMSGCB
          CFI (cfiCond90) Conditional ??CrossCallReturnLabel_40, ??CrossCallReturnLabel_37
          CFI (cfiCond90) R6 load(1, XDATA, add(CFA_XSP16, literal(-10)))
          CFI (cfiCond90) VB load(1, XDATA, add(CFA_XSP16, literal(-9)))
          CFI (cfiCond90) V0 load(1, XDATA, add(CFA_XSP16, literal(-8)))
          CFI (cfiCond90) V1 load(1, XDATA, add(CFA_XSP16, literal(-7)))
          CFI (cfiCond90) R7 load(1, XDATA, add(CFA_XSP16, literal(-6)))
          CFI (cfiCond90) ?RET_LOW load(1, XDATA, add(CFA_XSP16, literal(-5)))
          CFI (cfiCond90) ?RET_HIGH load(1, XDATA, add(CFA_XSP16, literal(-4)))
          CFI (cfiCond90) ?BRET_EXT load(1, XDATA, add(CFA_XSP16, literal(-3)))
          CFI (cfiCond90) DPL0 load(1, XDATA, add(CFA_XSP16, literal(-2)))
          CFI (cfiCond90) DPH0 load(1, XDATA, add(CFA_XSP16, literal(-1)))
          CFI (cfiCond90) CFA_SP SP+-4
          CFI (cfiCond90) CFA_XSP16 add(XSP16, 10)
          CFI Block cfiCond91 Using cfiCommon0
          CFI (cfiCond91) Function SampleApp_MessageMSGCB
          CFI (cfiCond91) Conditional ??CrossCallReturnLabel_40, ??CrossCallReturnLabel_38
          CFI (cfiCond91) R6 load(1, XDATA, add(CFA_XSP16, literal(-10)))
          CFI (cfiCond91) VB load(1, XDATA, add(CFA_XSP16, literal(-9)))
          CFI (cfiCond91) V0 load(1, XDATA, add(CFA_XSP16, literal(-8)))
          CFI (cfiCond91) V1 load(1, XDATA, add(CFA_XSP16, literal(-7)))
          CFI (cfiCond91) R7 load(1, XDATA, add(CFA_XSP16, literal(-6)))
          CFI (cfiCond91) ?RET_LOW load(1, XDATA, add(CFA_XSP16, literal(-5)))
          CFI (cfiCond91) ?RET_HIGH load(1, XDATA, add(CFA_XSP16, literal(-4)))
          CFI (cfiCond91) ?BRET_EXT load(1, XDATA, add(CFA_XSP16, literal(-3)))
          CFI (cfiCond91) DPL0 load(1, XDATA, add(CFA_XSP16, literal(-2)))
          CFI (cfiCond91) DPH0 load(1, XDATA, add(CFA_XSP16, literal(-1)))
          CFI (cfiCond91) CFA_SP SP+-4
          CFI (cfiCond91) CFA_XSP16 add(XSP16, 10)
          CFI Block cfiPicker92 Using cfiCommon1
          CFI (cfiPicker92) NoFunction
          CFI (cfiPicker92) Picker
        ADD       A,#0x22
        MOV       DPL,A
        CLR       A
        ADDC      A,R7
        MOV       DPH,A
        RET
          CFI EndBlock cfiCond89
          CFI EndBlock cfiCond90
          CFI EndBlock cfiCond91
          CFI EndBlock cfiPicker92

        RSEG BANKED_CODE:HUGECODE:NOROOT(0)
?Subroutine10:
          CFI Block cfiCond93 Using cfiCommon0
          CFI Function SampleApp_MessageMSGCB
          CFI Conditional ??CrossCallReturnLabel_7
          CFI R6 load(1, XDATA, add(CFA_XSP16, literal(-10)))
          CFI VB load(1, XDATA, add(CFA_XSP16, literal(-9)))
          CFI V0 load(1, XDATA, add(CFA_XSP16, literal(-8)))
          CFI V1 load(1, XDATA, add(CFA_XSP16, literal(-7)))
          CFI R7 load(1, XDATA, add(CFA_XSP16, literal(-6)))
          CFI ?RET_LOW load(1, XDATA, add(CFA_XSP16, literal(-5)))
          CFI ?RET_HIGH load(1, XDATA, add(CFA_XSP16, literal(-4)))
          CFI ?BRET_EXT load(1, XDATA, add(CFA_XSP16, literal(-3)))
          CFI DPL0 load(1, XDATA, add(CFA_XSP16, literal(-2)))
          CFI DPH0 load(1, XDATA, add(CFA_XSP16, literal(-1)))
          CFI CFA_SP SP+-2
          CFI CFA_XSP16 add(XSP16, 10)
          CFI Block cfiCond94 Using cfiCommon0
          CFI (cfiCond94) Function SampleApp_MessageMSGCB
          CFI (cfiCond94) Conditional ??CrossCallReturnLabel_8
          CFI (cfiCond94) R6 load(1, XDATA, add(CFA_XSP16, literal(-10)))
          CFI (cfiCond94) VB load(1, XDATA, add(CFA_XSP16, literal(-9)))
          CFI (cfiCond94) V0 load(1, XDATA, add(CFA_XSP16, literal(-8)))
          CFI (cfiCond94) V1 load(1, XDATA, add(CFA_XSP16, literal(-7)))
          CFI (cfiCond94) R7 load(1, XDATA, add(CFA_XSP16, literal(-6)))
          CFI (cfiCond94) ?RET_LOW load(1, XDATA, add(CFA_XSP16, literal(-5)))
          CFI (cfiCond94) ?RET_HIGH load(1, XDATA, add(CFA_XSP16, literal(-4)))
          CFI (cfiCond94) ?BRET_EXT load(1, XDATA, add(CFA_XSP16, literal(-3)))
          CFI (cfiCond94) DPL0 load(1, XDATA, add(CFA_XSP16, literal(-2)))
          CFI (cfiCond94) DPH0 load(1, XDATA, add(CFA_XSP16, literal(-1)))
          CFI (cfiCond94) CFA_SP SP+-2
          CFI (cfiCond94) CFA_XSP16 add(XSP16, 10)
          CFI Block cfiPicker95 Using cfiCommon1
          CFI (cfiPicker95) NoFunction
          CFI (cfiPicker95) Picker
        INC       DPTR
        MOVX      A,@DPTR
        MOV       DPH,A
        MOV       DPL,R0
        INC       DPTR
        INC       DPTR
        INC       DPTR
        INC       DPTR
        RET
          CFI EndBlock cfiCond93
          CFI EndBlock cfiCond94
          CFI EndBlock cfiPicker95

        RSEG BANKED_CODE:HUGECODE:NOROOT(0)
?Subroutine8:
          CFI Block cfiCond96 Using cfiCommon0
          CFI Function SampleApp_MessageMSGCB
          CFI Conditional ??CrossCallReturnLabel_5
          CFI R6 load(1, XDATA, add(CFA_XSP16, literal(-10)))
          CFI VB load(1, XDATA, add(CFA_XSP16, literal(-9)))
          CFI V0 load(1, XDATA, add(CFA_XSP16, literal(-8)))
          CFI V1 load(1, XDATA, add(CFA_XSP16, literal(-7)))
          CFI R7 load(1, XDATA, add(CFA_XSP16, literal(-6)))
          CFI ?RET_LOW load(1, XDATA, add(CFA_XSP16, literal(-5)))
          CFI ?RET_HIGH load(1, XDATA, add(CFA_XSP16, literal(-4)))
          CFI ?BRET_EXT load(1, XDATA, add(CFA_XSP16, literal(-3)))
          CFI DPL0 load(1, XDATA, add(CFA_XSP16, literal(-2)))
          CFI DPH0 load(1, XDATA, add(CFA_XSP16, literal(-1)))
          CFI CFA_SP SP+-2
          CFI CFA_XSP16 add(XSP16, 10)
          CFI Block cfiCond97 Using cfiCommon0
          CFI (cfiCond97) Function SampleApp_MessageMSGCB
          CFI (cfiCond97) Conditional ??CrossCallReturnLabel_6
          CFI (cfiCond97) R6 load(1, XDATA, add(CFA_XSP16, literal(-10)))
          CFI (cfiCond97) VB load(1, XDATA, add(CFA_XSP16, literal(-9)))
          CFI (cfiCond97) V0 load(1, XDATA, add(CFA_XSP16, literal(-8)))
          CFI (cfiCond97) V1 load(1, XDATA, add(CFA_XSP16, literal(-7)))
          CFI (cfiCond97) R7 load(1, XDATA, add(CFA_XSP16, literal(-6)))
          CFI (cfiCond97) ?RET_LOW load(1, XDATA, add(CFA_XSP16, literal(-5)))
          CFI (cfiCond97) ?RET_HIGH load(1, XDATA, add(CFA_XSP16, literal(-4)))
          CFI (cfiCond97) ?BRET_EXT load(1, XDATA, add(CFA_XSP16, literal(-3)))
          CFI (cfiCond97) DPL0 load(1, XDATA, add(CFA_XSP16, literal(-2)))
          CFI (cfiCond97) DPH0 load(1, XDATA, add(CFA_XSP16, literal(-1)))
          CFI (cfiCond97) CFA_SP SP+-2
          CFI (cfiCond97) CFA_XSP16 add(XSP16, 10)
          CFI Block cfiPicker98 Using cfiCommon1
          CFI (cfiPicker98) NoFunction
          CFI (cfiPicker98) Picker
        MOV       DPH,A
        MOVX      A,@DPTR
        MOV       R2,A
        INC       DPTR
        MOVX      A,@DPTR
        MOV       R3,A
        MOV       R1,#0x0
        LCALL     `??HalUARTWrite::?relay`; Banked call to: HalUARTWrite
        RET
          CFI EndBlock cfiCond96
          CFI EndBlock cfiCond97
          CFI EndBlock cfiPicker98
//  647 
//  648 /*********************************************************************
//  649  * @fn      SampleApp_SendPeriodicMessage
//  650  *
//  651  * @brief   Send the periodic message.
//  652  *
//  653  * @param   none
//  654  *
//  655  * @return  none
//  656  */

        RSEG BANKED_CODE:HUGECODE:NOROOT(0)
//  657 void SampleApp_SendPeriodicMessage( void )
SampleApp_SendPeriodicMessage:
          CFI Block cfiBlock99 Using cfiCommon0
          CFI Function SampleApp_SendPeriodicMessage
        CODE
//  658 {
        FUNCALL SampleApp_SendPeriodicMessage, AF_DataRequest
        LOCFRAME ISTACK, 0, STACK
        LOCFRAME PSTACK, 0, STACK
        LOCFRAME XSTACK, 29, STACK
        LOCFRAME IOVERLAY, 0, STATIC
        LOCFRAME DOVERLAY, 0, STATIC
        ARGFRAME ISTACK, 0, STACK
        ARGFRAME PSTACK, 0, STACK
        ARGFRAME XSTACK, 29, STACK
        ARGFRAME IOVERLAY, 0, STATIC
        ARGFRAME DOVERLAY, 0, STATIC
        REQUIRE ?V0
        REQUIRE ?V1
        MOV       A,#-0xa
        LCALL     ?BANKED_ENTER_XDATA
          CFI DPH0 load(1, XDATA, add(CFA_XSP16, literal(-1)))
          CFI DPL0 load(1, XDATA, add(CFA_XSP16, literal(-2)))
          CFI ?BRET_EXT load(1, XDATA, add(CFA_XSP16, literal(-3)))
          CFI ?RET_HIGH load(1, XDATA, add(CFA_XSP16, literal(-4)))
          CFI ?RET_LOW load(1, XDATA, add(CFA_XSP16, literal(-5)))
          CFI R7 load(1, XDATA, add(CFA_XSP16, literal(-6)))
          CFI V1 load(1, XDATA, add(CFA_XSP16, literal(-7)))
          CFI V0 load(1, XDATA, add(CFA_XSP16, literal(-8)))
          CFI VB load(1, XDATA, add(CFA_XSP16, literal(-9)))
          CFI R6 load(1, XDATA, add(CFA_XSP16, literal(-10)))
          CFI CFA_SP SP+0
          CFI CFA_XSP16 add(XSP16, 10)
        ; Saved register size: 10
        ; Auto size: 10
        MOV       A,#-0xa
        LCALL     ?ALLOC_XSTACK8
          CFI CFA_XSP16 add(XSP16, 20)
//  659   uint8 data[10]={'0','1','2','3','4','5','6','7','8','9'};//自定义数据
        MOV       DPTR,#`?<Constant {48, 49, 50, 51, 52, 53, 54, 55, 56`
        MOV       R4,?XSP + 0
        MOV       R5,?XSP + 1
        MOV       A,#0xa
        LCALL     ?MOVE_LONG8_XDATA_XDATA
//  660   if ( AF_DataRequest( &SampleApp_Periodic_DstAddr, &SampleApp_epDesc,
//  661 					   SAMPLEAPP_PERIODIC_CLUSTERID,
//  662 					   10,//字节数
//  663 					   data,//指针头
//  664 					   &SampleApp_TransID,
//  665 					   AF_DISCV_ROUTE,
//  666 					   AF_DEFAULT_RADIUS ) == afStatus_SUCCESS )
        ; Setup parameters for call to function AF_DataRequest
        MOV       ?V0,#0x1e
        MOV       R0,#?V0
        LCALL     ?PUSH_XSTACK_I_ONE
          CFI CFA_XSP16 add(XSP16, 21)
        MOV       ?V0,#SampleApp_TransID & 0xff
        MOV       ?V1,#(SampleApp_TransID >> 8) & 0xff
        MOV       R0,#?V0
        LCALL     ?PUSH_XSTACK_I_TWO
          CFI CFA_XSP16 add(XSP16, 23)
        MOV       A,#0x3
        LCALL     ?XSTACK_DISP100_8
        MOV       ?V0,R0
        MOV       ?V1,R1
        MOV       R0,#?V0
        LCALL     ?PUSH_XSTACK_I_TWO
          CFI CFA_XSP16 add(XSP16, 25)
        MOV       ?V0,#0xa
        MOV       ?V1,#0x0
        MOV       R0,#?V0
        LCALL     ?PUSH_XSTACK_I_TWO
          CFI CFA_XSP16 add(XSP16, 27)
        MOV       ?V0,#0x1
        MOV       R0,#?V0
        LCALL     ?PUSH_XSTACK_I_TWO
          CFI CFA_XSP16 add(XSP16, 29)
        MOV       R1,#0x20
        MOV       R4,#SampleApp_epDesc & 0xff
        MOV       R5,#(SampleApp_epDesc >> 8) & 0xff
        MOV       R2,#SampleApp_Periodic_DstAddr & 0xff
        MOV       R3,#(SampleApp_Periodic_DstAddr >> 8) & 0xff
        LCALL     ??Subroutine30_0 & 0xFFFF
??CrossCallReturnLabel_75:
        LCALL     ?DEALLOC_XSTACK8
          CFI CFA_XSP16 add(XSP16, 20)
//  667   {
//  668   }
//  669   else
//  670   {
//  671 	// Error occurred in request to send.
//  672   }
//  673 }
        MOV       A,#0xa
        LJMP      ?Subroutine1 & 0xFFFF
          CFI EndBlock cfiBlock99
//  674 
//  675 /*********************************************************************
//  676  * @fn      SampleApp_SendFlashMessage
//  677  *
//  678  * @brief   Send the flash message to group 1.
//  679  *
//  680  * @param   flashTime - in milliseconds
//  681  *
//  682  * @return  none
//  683  */

        RSEG BANKED_CODE:HUGECODE:NOROOT(0)
//  684 void SampleApp_SendFlashMessage( uint16 flashTime )
SampleApp_SendFlashMessage:
          CFI Block cfiBlock100 Using cfiCommon0
          CFI Function SampleApp_SendFlashMessage
        CODE
//  685 {
        FUNCALL SampleApp_SendFlashMessage, AF_DataRequest
        LOCFRAME ISTACK, 0, STACK
        LOCFRAME PSTACK, 0, STACK
        LOCFRAME XSTACK, 22, STACK
        LOCFRAME IOVERLAY, 0, STATIC
        LOCFRAME DOVERLAY, 0, STATIC
        ARGFRAME ISTACK, 0, STACK
        ARGFRAME PSTACK, 0, STACK
        ARGFRAME XSTACK, 22, STACK
        ARGFRAME IOVERLAY, 0, STATIC
        ARGFRAME DOVERLAY, 0, STATIC
        REQUIRE ?V0
        REQUIRE ?V1
        MOV       A,#-0xa
        LCALL     ?BANKED_ENTER_XDATA
          CFI DPH0 load(1, XDATA, add(CFA_XSP16, literal(-1)))
          CFI DPL0 load(1, XDATA, add(CFA_XSP16, literal(-2)))
          CFI ?BRET_EXT load(1, XDATA, add(CFA_XSP16, literal(-3)))
          CFI ?RET_HIGH load(1, XDATA, add(CFA_XSP16, literal(-4)))
          CFI ?RET_LOW load(1, XDATA, add(CFA_XSP16, literal(-5)))
          CFI R7 load(1, XDATA, add(CFA_XSP16, literal(-6)))
          CFI V1 load(1, XDATA, add(CFA_XSP16, literal(-7)))
          CFI V0 load(1, XDATA, add(CFA_XSP16, literal(-8)))
          CFI VB load(1, XDATA, add(CFA_XSP16, literal(-9)))
          CFI R6 load(1, XDATA, add(CFA_XSP16, literal(-10)))
          CFI CFA_SP SP+0
          CFI CFA_XSP16 add(XSP16, 10)
        ; Saved register size: 10
        ; Auto size: 3
        MOV       A,#-0x3
        LCALL     ?ALLOC_XSTACK8
          CFI CFA_XSP16 add(XSP16, 13)
//  686   uint8 buffer[3];
//  687   buffer[0] = (uint8)(SampleAppFlashCounter++);
        MOV       DPTR,#SampleAppFlashCounter
        MOVX      A,@DPTR
        MOV       DPL,?XSP + 0
        MOV       DPH,?XSP + 1
        MOVX      @DPTR,A
        MOV       DPTR,#SampleAppFlashCounter
        MOVX      A,@DPTR
        INC       A
        MOVX      @DPTR,A
//  688   buffer[1] = LO_UINT16( flashTime );
        MOV       A,#0x1
        LCALL     ?XSTACK_DISP0_8
        MOV       A,R2
        MOVX      @DPTR,A
//  689   buffer[2] = HI_UINT16( flashTime );
        MOV       A,#0x2
        LCALL     ?XSTACK_DISP0_8
        MOV       A,R3
        MOVX      @DPTR,A
//  690 
//  691   if ( AF_DataRequest( &SampleApp_Flash_DstAddr, &SampleApp_epDesc,
//  692 					   SAMPLEAPP_FLASH_CLUSTERID,
//  693 					   3,
//  694 					   buffer,
//  695 					   &SampleApp_TransID,
//  696 					   AF_DISCV_ROUTE,
//  697 					   AF_DEFAULT_RADIUS ) == afStatus_SUCCESS )
        ; Setup parameters for call to function AF_DataRequest
        MOV       ?V0,#0x1e
        MOV       R0,#?V0
        LCALL     ?PUSH_XSTACK_I_ONE
          CFI CFA_XSP16 add(XSP16, 14)
        MOV       ?V0,#SampleApp_TransID & 0xff
        MOV       ?V1,#(SampleApp_TransID >> 8) & 0xff
        MOV       R0,#?V0
        LCALL     ?PUSH_XSTACK_I_TWO
          CFI CFA_XSP16 add(XSP16, 16)
        MOV       A,#0x3
        LCALL     ?XSTACK_DISP100_8
        MOV       ?V0,R0
        MOV       ?V1,R1
        MOV       R0,#?V0
        LCALL     ?PUSH_XSTACK_I_TWO
          CFI CFA_XSP16 add(XSP16, 18)
        MOV       ?V0,#0x3
        MOV       ?V1,#0x0
        MOV       R0,#?V0
        LCALL     ?PUSH_XSTACK_I_TWO
          CFI CFA_XSP16 add(XSP16, 20)
        MOV       ?V0,#0x2
        MOV       R0,#?V0
        LCALL     ?PUSH_XSTACK_I_TWO
          CFI CFA_XSP16 add(XSP16, 22)
        LCALL     ?Subroutine23 & 0xFFFF
??CrossCallReturnLabel_72:
        LCALL     ?DEALLOC_XSTACK8
          CFI CFA_XSP16 add(XSP16, 13)
//  698   {
//  699   }
//  700   else
//  701   {
//  702 	// Error occurred in request to send.
//  703   }
//  704 }
        MOV       A,#0x3
        LJMP      ?Subroutine1 & 0xFFFF
          CFI EndBlock cfiBlock100
//  705 
//  706 /*********************************************************************
//  707 *********************************************************************/

        RSEG BANKED_CODE:HUGECODE:NOROOT(0)
//  708 void SampleApp_SendGroupMessage( void )
SampleApp_SendGroupMessage:
          CFI Block cfiBlock101 Using cfiCommon0
          CFI Function SampleApp_SendGroupMessage
        CODE
//  709 {
        FUNCALL SampleApp_SendGroupMessage, AF_DataRequest
        LOCFRAME ISTACK, 0, STACK
        LOCFRAME PSTACK, 0, STACK
        LOCFRAME XSTACK, 39, STACK
        LOCFRAME IOVERLAY, 0, STATIC
        LOCFRAME DOVERLAY, 0, STATIC
        ARGFRAME ISTACK, 0, STACK
        ARGFRAME PSTACK, 0, STACK
        ARGFRAME XSTACK, 39, STACK
        ARGFRAME IOVERLAY, 0, STATIC
        ARGFRAME DOVERLAY, 0, STATIC
        REQUIRE ?V0
        REQUIRE ?V1
        MOV       A,#-0xa
        LCALL     ?BANKED_ENTER_XDATA
          CFI DPH0 load(1, XDATA, add(CFA_XSP16, literal(-1)))
          CFI DPL0 load(1, XDATA, add(CFA_XSP16, literal(-2)))
          CFI ?BRET_EXT load(1, XDATA, add(CFA_XSP16, literal(-3)))
          CFI ?RET_HIGH load(1, XDATA, add(CFA_XSP16, literal(-4)))
          CFI ?RET_LOW load(1, XDATA, add(CFA_XSP16, literal(-5)))
          CFI R7 load(1, XDATA, add(CFA_XSP16, literal(-6)))
          CFI V1 load(1, XDATA, add(CFA_XSP16, literal(-7)))
          CFI V0 load(1, XDATA, add(CFA_XSP16, literal(-8)))
          CFI VB load(1, XDATA, add(CFA_XSP16, literal(-9)))
          CFI R6 load(1, XDATA, add(CFA_XSP16, literal(-10)))
          CFI CFA_SP SP+0
          CFI CFA_XSP16 add(XSP16, 10)
        ; Saved register size: 10
        ; Auto size: 20
        MOV       A,#-0x14
        LCALL     ?ALLOC_XSTACK8
          CFI CFA_XSP16 add(XSP16, 30)
//  710   uint8 data[20]="I am Coordinator\r\n\0";
        MOV       DPTR,#`?<Constant "I am Coordinator\\r\\n\\000">`
        MOV       R4,?XSP + 0
        MOV       R5,?XSP + 1
        MOV       A,#0x14
        LCALL     ?MOVE_LONG8_XDATA_XDATA
//  711   //uint8 data[20]="I am EndDevice1\r\n\0";
//  712   //uint8 data[20]="I am EndDevice2\r\n\0";
//  713   if ( AF_DataRequest( & SampleApp_Flash_DstAddr,
//  714 					   &SampleApp_epDesc,
//  715 					   SAMPLEAPP_FLASH_CLUSTERID,
//  716 					   20,
//  717 					   data,
//  718 					   &SampleApp_TransID,
//  719 					   AF_DISCV_ROUTE,
//  720 					   AF_DEFAULT_RADIUS ) == afStatus_SUCCESS )
        ; Setup parameters for call to function AF_DataRequest
        MOV       ?V0,#0x1e
        MOV       R0,#?V0
        LCALL     ?PUSH_XSTACK_I_ONE
          CFI CFA_XSP16 add(XSP16, 31)
        MOV       ?V0,#SampleApp_TransID & 0xff
        MOV       ?V1,#(SampleApp_TransID >> 8) & 0xff
        MOV       R0,#?V0
        LCALL     ?PUSH_XSTACK_I_TWO
          CFI CFA_XSP16 add(XSP16, 33)
        MOV       A,#0x3
        LCALL     ?XSTACK_DISP100_8
        MOV       ?V0,R0
        MOV       ?V1,R1
        MOV       R0,#?V0
        LCALL     ?PUSH_XSTACK_I_TWO
          CFI CFA_XSP16 add(XSP16, 35)
        MOV       ?V0,#0x14
        MOV       ?V1,#0x0
        MOV       R0,#?V0
        LCALL     ?PUSH_XSTACK_I_TWO
          CFI CFA_XSP16 add(XSP16, 37)
        MOV       ?V0,#0x2
        MOV       R0,#?V0
        LCALL     ?PUSH_XSTACK_I_TWO
          CFI CFA_XSP16 add(XSP16, 39)
        LCALL     ?Subroutine23 & 0xFFFF
??CrossCallReturnLabel_73:
        LCALL     ?DEALLOC_XSTACK8
          CFI CFA_XSP16 add(XSP16, 30)
//  721   {
//  722   }
//  723   else
//  724   {
//  725 	// Error occurred in request to send.
//  726   }
//  727 }
        MOV       A,#0x14
        LJMP      ?Subroutine1 & 0xFFFF
          CFI EndBlock cfiBlock101

        RSEG BANKED_CODE:HUGECODE:NOROOT(0)
?Subroutine23:
          CFI Block cfiCond102 Using cfiCommon0
          CFI Function SampleApp_SendFlashMessage
          CFI Conditional ??CrossCallReturnLabel_72
          CFI R6 load(1, XDATA, add(CFA_XSP16, literal(-10)))
          CFI VB load(1, XDATA, add(CFA_XSP16, literal(-9)))
          CFI V0 load(1, XDATA, add(CFA_XSP16, literal(-8)))
          CFI V1 load(1, XDATA, add(CFA_XSP16, literal(-7)))
          CFI R7 load(1, XDATA, add(CFA_XSP16, literal(-6)))
          CFI ?RET_LOW load(1, XDATA, add(CFA_XSP16, literal(-5)))
          CFI ?RET_HIGH load(1, XDATA, add(CFA_XSP16, literal(-4)))
          CFI ?BRET_EXT load(1, XDATA, add(CFA_XSP16, literal(-3)))
          CFI DPL0 load(1, XDATA, add(CFA_XSP16, literal(-2)))
          CFI DPH0 load(1, XDATA, add(CFA_XSP16, literal(-1)))
          CFI CFA_SP SP+-2
          CFI CFA_XSP16 add(XSP16, 22)
          CFI Block cfiCond103 Using cfiCommon0
          CFI (cfiCond103) Function SampleApp_SendGroupMessage
          CFI (cfiCond103) Conditional ??CrossCallReturnLabel_73
          CFI (cfiCond103) R6 load(1, XDATA, add(CFA_XSP16, literal(-10)))
          CFI (cfiCond103) VB load(1, XDATA, add(CFA_XSP16, literal(-9)))
          CFI (cfiCond103) V0 load(1, XDATA, add(CFA_XSP16, literal(-8)))
          CFI (cfiCond103) V1 load(1, XDATA, add(CFA_XSP16, literal(-7)))
          CFI (cfiCond103) R7 load(1, XDATA, add(CFA_XSP16, literal(-6)))
          CFI (cfiCond103) ?RET_LOW load(1, XDATA, add(CFA_XSP16, literal(-5)))
          CFI (cfiCond103) ?RET_HIGH load(1, XDATA, add(CFA_XSP16, literal(-4)))
          CFI (cfiCond103) ?BRET_EXT load(1, XDATA, add(CFA_XSP16, literal(-3)))
          CFI (cfiCond103) DPL0 load(1, XDATA, add(CFA_XSP16, literal(-2)))
          CFI (cfiCond103) DPH0 load(1, XDATA, add(CFA_XSP16, literal(-1)))
          CFI (cfiCond103) CFA_SP SP+-2
          CFI (cfiCond103) CFA_XSP16 add(XSP16, 39)
          CFI Block cfiCond104 Using cfiCommon0
          CFI (cfiCond104) Function _zigbeeSend
          CFI (cfiCond104) Conditional ??CrossCallReturnLabel_74
          CFI (cfiCond104) R6 load(1, XDATA, add(CFA_XSP16, literal(-12)))
          CFI (cfiCond104) VB load(1, XDATA, add(CFA_XSP16, literal(-11)))
          CFI (cfiCond104) V0 load(1, XDATA, add(CFA_XSP16, literal(-10)))
          CFI (cfiCond104) V1 load(1, XDATA, add(CFA_XSP16, literal(-9)))
          CFI (cfiCond104) V2 load(1, XDATA, add(CFA_XSP16, literal(-8)))
          CFI (cfiCond104) V3 load(1, XDATA, add(CFA_XSP16, literal(-7)))
          CFI (cfiCond104) R7 load(1, XDATA, add(CFA_XSP16, literal(-6)))
          CFI (cfiCond104) ?RET_LOW load(1, XDATA, add(CFA_XSP16, literal(-5)))
          CFI (cfiCond104) ?RET_HIGH load(1, XDATA, add(CFA_XSP16, literal(-4)))
          CFI (cfiCond104) ?BRET_EXT load(1, XDATA, add(CFA_XSP16, literal(-3)))
          CFI (cfiCond104) DPL0 load(1, XDATA, add(CFA_XSP16, literal(-2)))
          CFI (cfiCond104) DPH0 load(1, XDATA, add(CFA_XSP16, literal(-1)))
          CFI (cfiCond104) CFA_SP SP+-2
          CFI (cfiCond104) CFA_XSP16 add(XSP16, 87)
          CFI Block cfiPicker105 Using cfiCommon1
          CFI (cfiPicker105) NoFunction
          CFI (cfiPicker105) Picker
        MOV       R1,#0x20
        MOV       R4,#SampleApp_epDesc & 0xff
        MOV       R5,#(SampleApp_epDesc >> 8) & 0xff
        MOV       R2,#SampleApp_Flash_DstAddr & 0xff
        MOV       R3,#(SampleApp_Flash_DstAddr >> 8) & 0xff
          CFI EndBlock cfiCond102
          CFI EndBlock cfiCond103
          CFI EndBlock cfiCond104
          CFI EndBlock cfiPicker105
        REQUIRE ??Subroutine30_0
        ; // Fall through to label ??Subroutine30_0

        RSEG BANKED_CODE:HUGECODE:NOROOT(0)
??Subroutine30_0:
          CFI Block cfiCond106 Using cfiCommon0
          CFI Function SampleApp_SendPeriodicMessage
          CFI Conditional ??CrossCallReturnLabel_75
          CFI R6 load(1, XDATA, add(CFA_XSP16, literal(-10)))
          CFI VB load(1, XDATA, add(CFA_XSP16, literal(-9)))
          CFI V0 load(1, XDATA, add(CFA_XSP16, literal(-8)))
          CFI V1 load(1, XDATA, add(CFA_XSP16, literal(-7)))
          CFI R7 load(1, XDATA, add(CFA_XSP16, literal(-6)))
          CFI ?RET_LOW load(1, XDATA, add(CFA_XSP16, literal(-5)))
          CFI ?RET_HIGH load(1, XDATA, add(CFA_XSP16, literal(-4)))
          CFI ?BRET_EXT load(1, XDATA, add(CFA_XSP16, literal(-3)))
          CFI DPL0 load(1, XDATA, add(CFA_XSP16, literal(-2)))
          CFI DPH0 load(1, XDATA, add(CFA_XSP16, literal(-1)))
          CFI CFA_SP SP+-2
          CFI CFA_XSP16 add(XSP16, 29)
          CFI Block cfiCond107 Using cfiCommon0
          CFI (cfiCond107) Function SampleApp_SendFlashMessage
          CFI (cfiCond107) Conditional ??CrossCallReturnLabel_72
          CFI (cfiCond107) R6 load(1, XDATA, add(CFA_XSP16, literal(-10)))
          CFI (cfiCond107) VB load(1, XDATA, add(CFA_XSP16, literal(-9)))
          CFI (cfiCond107) V0 load(1, XDATA, add(CFA_XSP16, literal(-8)))
          CFI (cfiCond107) V1 load(1, XDATA, add(CFA_XSP16, literal(-7)))
          CFI (cfiCond107) R7 load(1, XDATA, add(CFA_XSP16, literal(-6)))
          CFI (cfiCond107) ?RET_LOW load(1, XDATA, add(CFA_XSP16, literal(-5)))
          CFI (cfiCond107) ?RET_HIGH load(1, XDATA, add(CFA_XSP16, literal(-4)))
          CFI (cfiCond107) ?BRET_EXT load(1, XDATA, add(CFA_XSP16, literal(-3)))
          CFI (cfiCond107) DPL0 load(1, XDATA, add(CFA_XSP16, literal(-2)))
          CFI (cfiCond107) DPH0 load(1, XDATA, add(CFA_XSP16, literal(-1)))
          CFI (cfiCond107) CFA_SP SP+-2
          CFI (cfiCond107) CFA_XSP16 add(XSP16, 22)
          CFI Block cfiCond108 Using cfiCommon0
          CFI (cfiCond108) Function SampleApp_SendGroupMessage
          CFI (cfiCond108) Conditional ??CrossCallReturnLabel_73
          CFI (cfiCond108) R6 load(1, XDATA, add(CFA_XSP16, literal(-10)))
          CFI (cfiCond108) VB load(1, XDATA, add(CFA_XSP16, literal(-9)))
          CFI (cfiCond108) V0 load(1, XDATA, add(CFA_XSP16, literal(-8)))
          CFI (cfiCond108) V1 load(1, XDATA, add(CFA_XSP16, literal(-7)))
          CFI (cfiCond108) R7 load(1, XDATA, add(CFA_XSP16, literal(-6)))
          CFI (cfiCond108) ?RET_LOW load(1, XDATA, add(CFA_XSP16, literal(-5)))
          CFI (cfiCond108) ?RET_HIGH load(1, XDATA, add(CFA_XSP16, literal(-4)))
          CFI (cfiCond108) ?BRET_EXT load(1, XDATA, add(CFA_XSP16, literal(-3)))
          CFI (cfiCond108) DPL0 load(1, XDATA, add(CFA_XSP16, literal(-2)))
          CFI (cfiCond108) DPH0 load(1, XDATA, add(CFA_XSP16, literal(-1)))
          CFI (cfiCond108) CFA_SP SP+-2
          CFI (cfiCond108) CFA_XSP16 add(XSP16, 39)
          CFI Block cfiCond109 Using cfiCommon0
          CFI (cfiCond109) Function _zigbeeSend
          CFI (cfiCond109) Conditional ??CrossCallReturnLabel_74
          CFI (cfiCond109) R6 load(1, XDATA, add(CFA_XSP16, literal(-12)))
          CFI (cfiCond109) VB load(1, XDATA, add(CFA_XSP16, literal(-11)))
          CFI (cfiCond109) V0 load(1, XDATA, add(CFA_XSP16, literal(-10)))
          CFI (cfiCond109) V1 load(1, XDATA, add(CFA_XSP16, literal(-9)))
          CFI (cfiCond109) V2 load(1, XDATA, add(CFA_XSP16, literal(-8)))
          CFI (cfiCond109) V3 load(1, XDATA, add(CFA_XSP16, literal(-7)))
          CFI (cfiCond109) R7 load(1, XDATA, add(CFA_XSP16, literal(-6)))
          CFI (cfiCond109) ?RET_LOW load(1, XDATA, add(CFA_XSP16, literal(-5)))
          CFI (cfiCond109) ?RET_HIGH load(1, XDATA, add(CFA_XSP16, literal(-4)))
          CFI (cfiCond109) ?BRET_EXT load(1, XDATA, add(CFA_XSP16, literal(-3)))
          CFI (cfiCond109) DPL0 load(1, XDATA, add(CFA_XSP16, literal(-2)))
          CFI (cfiCond109) DPH0 load(1, XDATA, add(CFA_XSP16, literal(-1)))
          CFI (cfiCond109) CFA_SP SP+-2
          CFI (cfiCond109) CFA_XSP16 add(XSP16, 87)
          CFI Block cfiPicker110 Using cfiCommon1
          CFI (cfiPicker110) NoFunction
          CFI (cfiPicker110) Picker
        LCALL     `??AF_DataRequest::?relay`; Banked call to: AF_DataRequest
        MOV       A,#0x9
        RET
          CFI EndBlock cfiCond106
          CFI EndBlock cfiCond107
          CFI EndBlock cfiCond108
          CFI EndBlock cfiCond109
          CFI EndBlock cfiPicker110
//  728 

        RSEG BANKED_CODE:HUGECODE:NOROOT(0)
//  729 void _zigbeeSend(uint8 *fmt, ...) {
_zigbeeSend:
          CFI Block cfiBlock111 Using cfiCommon0
          CFI Function _zigbeeSend
        CODE
        FUNCALL _zigbeeSend, vsprintf
        LOCFRAME ISTACK, 0, STACK
        LOCFRAME PSTACK, 0, STACK
        LOCFRAME XSTACK, 80, STACK
        LOCFRAME IOVERLAY, 0, STATIC
        LOCFRAME DOVERLAY, 0, STATIC
        ARGFRAME ISTACK, 0, STACK
        ARGFRAME PSTACK, 0, STACK
        ARGFRAME XSTACK, 80, STACK
        ARGFRAME IOVERLAY, 0, STATIC
        ARGFRAME DOVERLAY, 0, STATIC
        FUNCALL _zigbeeSend, AF_DataRequest
        LOCFRAME ISTACK, 0, STACK
        LOCFRAME PSTACK, 0, STACK
        LOCFRAME XSTACK, 87, STACK
        LOCFRAME IOVERLAY, 0, STATIC
        LOCFRAME DOVERLAY, 0, STATIC
        ARGFRAME ISTACK, 0, STACK
        ARGFRAME PSTACK, 0, STACK
        ARGFRAME XSTACK, 87, STACK
        ARGFRAME IOVERLAY, 0, STATIC
        ARGFRAME DOVERLAY, 0, STATIC
        REQUIRE ?V0
        REQUIRE ?V1
        REQUIRE ?V2
        REQUIRE ?V3
        MOV       A,#-0xc
        LCALL     ?BANKED_ENTER_XDATA
          CFI DPH0 load(1, XDATA, add(CFA_XSP16, literal(-1)))
          CFI DPL0 load(1, XDATA, add(CFA_XSP16, literal(-2)))
          CFI ?BRET_EXT load(1, XDATA, add(CFA_XSP16, literal(-3)))
          CFI ?RET_HIGH load(1, XDATA, add(CFA_XSP16, literal(-4)))
          CFI ?RET_LOW load(1, XDATA, add(CFA_XSP16, literal(-5)))
          CFI R7 load(1, XDATA, add(CFA_XSP16, literal(-6)))
          CFI V3 load(1, XDATA, add(CFA_XSP16, literal(-7)))
          CFI V2 load(1, XDATA, add(CFA_XSP16, literal(-8)))
          CFI V1 load(1, XDATA, add(CFA_XSP16, literal(-9)))
          CFI V0 load(1, XDATA, add(CFA_XSP16, literal(-10)))
          CFI VB load(1, XDATA, add(CFA_XSP16, literal(-11)))
          CFI R6 load(1, XDATA, add(CFA_XSP16, literal(-12)))
          CFI CFA_SP SP+0
          CFI CFA_XSP16 add(XSP16, 12)
        ; Saved register size: 12
        ; Auto size: 66
        MOV       A,#-0x42
        LCALL     ?ALLOC_XSTACK8
          CFI CFA_XSP16 add(XSP16, 78)
//  730 	va_list arg_ptr;
//  731 	uint8 _buffer[UartDefaultTxLen], cnt;
//  732 	uint16 length = 0;
//  733 	for(cnt = 0 ; cnt < UartDefaultTxLen ; cnt++)
//  734 		_buffer[cnt] = 0x00;
        MOV       A,#0x2
        LCALL     ?XSTACK_DISP0_8
        CLR       A
        MOV       R0,#0x40
??_zigbeeSend_0:
        MOVX      @DPTR,A
        INC       DPTR
        DJNZ      R0,??_zigbeeSend_0
//  735 	va_start(arg_ptr, fmt);
        MOV       A,#0x4e
        LCALL     ?XSTACK_DISP100_8
        LCALL     ?Subroutine4 & 0xFFFF
//  736 	length = vsprintf((char *)_buffer, (const char *)fmt, arg_ptr);
??CrossCallReturnLabel_0:
        LCALL     ?PUSH_XSTACK_I_TWO
          CFI CFA_XSP16 add(XSP16, 80)
        MOV       A,R2
        MOV       R4,A
        MOV       A,R3
        MOV       R5,A
        MOV       A,#0x4
        LCALL     ?XSTACK_DISP101_8
        LCALL     `??vsprintf::?relay`; Banked call to: vsprintf
        MOV       A,#0x2
        LCALL     ?DEALLOC_XSTACK8
          CFI CFA_XSP16 add(XSP16, 78)
        MOV       ?V0,R2
        MOV       ?V1,R3
//  737 	va_end(arg_ptr);
//  738 	if (AF_DataRequest(&SampleApp_Flash_DstAddr, &SampleApp_epDesc,
//  739 		SAMPLEAPP_FLASH_CLUSTERID, length, _buffer,
//  740 		&SampleApp_TransID, AF_DISCV_ROUTE, AF_DEFAULT_RADIUS) == afStatus_SUCCESS) {
        ; Setup parameters for call to function AF_DataRequest
        MOV       ?V2,#0x1e
        MOV       R0,#?V2
        LCALL     ?PUSH_XSTACK_I_ONE
          CFI CFA_XSP16 add(XSP16, 79)
        MOV       ?V2,#SampleApp_TransID & 0xff
        MOV       ?V3,#(SampleApp_TransID >> 8) & 0xff
        MOV       R0,#?V2
        LCALL     ?PUSH_XSTACK_I_TWO
          CFI CFA_XSP16 add(XSP16, 81)
        MOV       A,#0x5
        LCALL     ?XSTACK_DISP100_8
        MOV       ?V2,R0
        MOV       ?V3,R1
        MOV       R0,#?V2
        LCALL     ?PUSH_XSTACK_I_TWO
          CFI CFA_XSP16 add(XSP16, 83)
        MOV       R0,#?V0
        LCALL     ?PUSH_XSTACK_I_TWO
          CFI CFA_XSP16 add(XSP16, 85)
        MOV       ?V0,#0x2
        MOV       ?V1,#0x0
        MOV       R0,#?V0
        LCALL     ?PUSH_XSTACK_I_TWO
          CFI CFA_XSP16 add(XSP16, 87)
        LCALL     ?Subroutine23 & 0xFFFF
??CrossCallReturnLabel_74:
          CFI EndBlock cfiBlock111
        REQUIRE ?Subroutine2
        ; // Fall through to label ?Subroutine2
//  741 		
//  742 	}
//  743 }

        RSEG BANKED_CODE:HUGECODE:NOROOT(0)
?Subroutine2:
          CFI Block cfiBlock112 Using cfiCommon0
          CFI NoFunction
          CFI CFA_SP SP+0
          CFI CFA_XSP16 add(XSP16, 87)
          CFI VB load(1, XDATA, add(CFA_XSP16, literal(-11)))
          CFI DPL0 load(1, XDATA, add(CFA_XSP16, literal(-2)))
          CFI DPH0 load(1, XDATA, add(CFA_XSP16, literal(-1)))
          CFI R6 load(1, XDATA, add(CFA_XSP16, literal(-12)))
          CFI R7 load(1, XDATA, add(CFA_XSP16, literal(-6)))
          CFI V0 load(1, XDATA, add(CFA_XSP16, literal(-10)))
          CFI V1 load(1, XDATA, add(CFA_XSP16, literal(-9)))
          CFI V2 load(1, XDATA, add(CFA_XSP16, literal(-8)))
          CFI V3 load(1, XDATA, add(CFA_XSP16, literal(-7)))
          CFI ?BRET_EXT load(1, XDATA, add(CFA_XSP16, literal(-3)))
          CFI ?RET_HIGH load(1, XDATA, add(CFA_XSP16, literal(-4)))
          CFI ?RET_LOW load(1, XDATA, add(CFA_XSP16, literal(-5)))
          CFI Invalid
        LCALL     ?DEALLOC_XSTACK8
          CFI CFA_XSP16 add(XSP16, 78)
          CFI Valid
        MOV       A,#0x42
        LCALL     ?DEALLOC_XSTACK8
          CFI CFA_XSP16 add(XSP16, 12)
        MOV       R7,#0x4
        LJMP      ?BANKED_LEAVE_XDATA
          CFI EndBlock cfiBlock112
//  744 

        RSEG BANKED_CODE:HUGECODE:NOROOT(0)
//  745 void _UARTSend(uint8 port, uint8 *fmt, ...) {
_UARTSend:
          CFI Block cfiBlock113 Using cfiCommon0
          CFI Function _UARTSend
        CODE
        FUNCALL _UARTSend, vsprintf
        LOCFRAME ISTACK, 0, STACK
        LOCFRAME PSTACK, 0, STACK
        LOCFRAME XSTACK, 78, STACK
        LOCFRAME IOVERLAY, 0, STATIC
        LOCFRAME DOVERLAY, 0, STATIC
        ARGFRAME ISTACK, 0, STACK
        ARGFRAME PSTACK, 0, STACK
        ARGFRAME XSTACK, 78, STACK
        ARGFRAME IOVERLAY, 0, STATIC
        ARGFRAME DOVERLAY, 0, STATIC
        FUNCALL _UARTSend, HalUARTWrite
        LOCFRAME ISTACK, 0, STACK
        LOCFRAME PSTACK, 0, STACK
        LOCFRAME XSTACK, 76, STACK
        LOCFRAME IOVERLAY, 0, STATIC
        LOCFRAME DOVERLAY, 0, STATIC
        ARGFRAME ISTACK, 0, STACK
        ARGFRAME PSTACK, 0, STACK
        ARGFRAME XSTACK, 76, STACK
        ARGFRAME IOVERLAY, 0, STATIC
        ARGFRAME DOVERLAY, 0, STATIC
        REQUIRE ?V0
        REQUIRE ?V1
        MOV       A,#-0xa
        LCALL     ?BANKED_ENTER_XDATA
          CFI DPH0 load(1, XDATA, add(CFA_XSP16, literal(-1)))
          CFI DPL0 load(1, XDATA, add(CFA_XSP16, literal(-2)))
          CFI ?BRET_EXT load(1, XDATA, add(CFA_XSP16, literal(-3)))
          CFI ?RET_HIGH load(1, XDATA, add(CFA_XSP16, literal(-4)))
          CFI ?RET_LOW load(1, XDATA, add(CFA_XSP16, literal(-5)))
          CFI R7 load(1, XDATA, add(CFA_XSP16, literal(-6)))
          CFI V1 load(1, XDATA, add(CFA_XSP16, literal(-7)))
          CFI V0 load(1, XDATA, add(CFA_XSP16, literal(-8)))
          CFI VB load(1, XDATA, add(CFA_XSP16, literal(-9)))
          CFI R6 load(1, XDATA, add(CFA_XSP16, literal(-10)))
          CFI CFA_SP SP+0
          CFI CFA_XSP16 add(XSP16, 10)
        ; Saved register size: 10
        ; Auto size: 66
        MOV       A,#-0x42
        LCALL     ?ALLOC_XSTACK8
          CFI CFA_XSP16 add(XSP16, 76)
        MOV       A,R1
        MOV       R6,A
//  746 	va_list arg_ptr;
//  747 	uint8 _buffer[UartDefaultTxLen], cnt;
//  748 	uint16 length = 0;
//  749 	for(cnt = 0 ; cnt < UartDefaultTxLen ; cnt++)
//  750 		_buffer[cnt] = 0x00;
        MOV       A,#0x2
        LCALL     ?XSTACK_DISP0_8
        CLR       A
        MOV       R0,#0x40
??_UARTSend_0:
        MOVX      @DPTR,A
        INC       DPTR
        DJNZ      R0,??_UARTSend_0
//  751 	va_start(arg_ptr, fmt);
        MOV       A,#0x4c
        LCALL     ?XSTACK_DISP100_8
        LCALL     ?Subroutine4 & 0xFFFF
//  752 	length = vsprintf((char *)_buffer, (const char *)fmt, arg_ptr);
??CrossCallReturnLabel_1:
        LCALL     ?PUSH_XSTACK_I_TWO
          CFI CFA_XSP16 add(XSP16, 78)
        MOV       A,R2
        MOV       R4,A
        MOV       A,R3
        MOV       R5,A
        MOV       A,#0x4
        LCALL     ?XSTACK_DISP101_8
        LCALL     `??vsprintf::?relay`; Banked call to: vsprintf
        MOV       A,#0x2
        LCALL     ?DEALLOC_XSTACK8
          CFI CFA_XSP16 add(XSP16, 76)
        MOV       ?V0,R2
        MOV       ?V1,R3
        MOV       R4,?V0
        MOV       R5,?V1
//  753 	va_end(arg_ptr);
//  754 	HalUARTWrite(port, (uint8 *)_buffer, length);
        ; Setup parameters for call to function HalUARTWrite
        MOV       A,#0x2
        LCALL     ?XSTACK_DISP101_8
        MOV       A,R6
        MOV       R1,A
        LCALL     `??HalUARTWrite::?relay`; Banked call to: HalUARTWrite
//  755 }
        MOV       A,#0x42
          CFI EndBlock cfiBlock113
        REQUIRE ?Subroutine1
        ; // Fall through to label ?Subroutine1

        RSEG BANKED_CODE:HUGECODE:NOROOT(0)
?Subroutine1:
          CFI Block cfiBlock114 Using cfiCommon0
          CFI NoFunction
          CFI CFA_SP SP+0
          CFI CFA_XSP16 add(XSP16, 20)
          CFI VB load(1, XDATA, add(CFA_XSP16, literal(-9)))
          CFI DPL0 load(1, XDATA, add(CFA_XSP16, literal(-2)))
          CFI DPH0 load(1, XDATA, add(CFA_XSP16, literal(-1)))
          CFI R6 load(1, XDATA, add(CFA_XSP16, literal(-10)))
          CFI R7 load(1, XDATA, add(CFA_XSP16, literal(-6)))
          CFI V0 load(1, XDATA, add(CFA_XSP16, literal(-8)))
          CFI V1 load(1, XDATA, add(CFA_XSP16, literal(-7)))
          CFI ?BRET_EXT load(1, XDATA, add(CFA_XSP16, literal(-3)))
          CFI ?RET_HIGH load(1, XDATA, add(CFA_XSP16, literal(-4)))
          CFI ?RET_LOW load(1, XDATA, add(CFA_XSP16, literal(-5)))
          CFI Invalid
        LCALL     ?DEALLOC_XSTACK8
          CFI EndBlock cfiBlock114
        REQUIRE ??Subroutine31_0
        ; // Fall through to label ??Subroutine31_0

        RSEG BANKED_CODE:HUGECODE:NOROOT(0)
??Subroutine31_0:
          CFI Block cfiBlock115 Using cfiCommon0
          CFI NoFunction
          CFI CFA_SP SP+0
          CFI CFA_XSP16 add(XSP16, 10)
          CFI VB load(1, XDATA, add(CFA_XSP16, literal(-9)))
          CFI DPL0 load(1, XDATA, add(CFA_XSP16, literal(-2)))
          CFI DPH0 load(1, XDATA, add(CFA_XSP16, literal(-1)))
          CFI R6 load(1, XDATA, add(CFA_XSP16, literal(-10)))
          CFI R7 load(1, XDATA, add(CFA_XSP16, literal(-6)))
          CFI V0 load(1, XDATA, add(CFA_XSP16, literal(-8)))
          CFI V1 load(1, XDATA, add(CFA_XSP16, literal(-7)))
          CFI ?BRET_EXT load(1, XDATA, add(CFA_XSP16, literal(-3)))
          CFI ?RET_HIGH load(1, XDATA, add(CFA_XSP16, literal(-4)))
          CFI ?RET_LOW load(1, XDATA, add(CFA_XSP16, literal(-5)))
        MOV       R7,#0x2
        LJMP      ?BANKED_LEAVE_XDATA
          CFI EndBlock cfiBlock115

        RSEG BANKED_CODE:HUGECODE:NOROOT(0)
?Subroutine4:
          CFI Block cfiCond116 Using cfiCommon0
          CFI Function _zigbeeSend
          CFI Conditional ??CrossCallReturnLabel_0
          CFI R6 load(1, XDATA, add(CFA_XSP16, literal(-12)))
          CFI VB load(1, XDATA, add(CFA_XSP16, literal(-11)))
          CFI V0 load(1, XDATA, add(CFA_XSP16, literal(-10)))
          CFI V1 load(1, XDATA, add(CFA_XSP16, literal(-9)))
          CFI V2 load(1, XDATA, add(CFA_XSP16, literal(-8)))
          CFI V3 load(1, XDATA, add(CFA_XSP16, literal(-7)))
          CFI R7 load(1, XDATA, add(CFA_XSP16, literal(-6)))
          CFI ?RET_LOW load(1, XDATA, add(CFA_XSP16, literal(-5)))
          CFI ?RET_HIGH load(1, XDATA, add(CFA_XSP16, literal(-4)))
          CFI ?BRET_EXT load(1, XDATA, add(CFA_XSP16, literal(-3)))
          CFI DPL0 load(1, XDATA, add(CFA_XSP16, literal(-2)))
          CFI DPH0 load(1, XDATA, add(CFA_XSP16, literal(-1)))
          CFI CFA_SP SP+-2
          CFI CFA_XSP16 add(XSP16, 78)
          CFI Block cfiCond117 Using cfiCommon0
          CFI (cfiCond117) Function _UARTSend
          CFI (cfiCond117) Conditional ??CrossCallReturnLabel_1
          CFI (cfiCond117) R6 load(1, XDATA, add(CFA_XSP16, literal(-10)))
          CFI (cfiCond117) VB load(1, XDATA, add(CFA_XSP16, literal(-9)))
          CFI (cfiCond117) V0 load(1, XDATA, add(CFA_XSP16, literal(-8)))
          CFI (cfiCond117) V1 load(1, XDATA, add(CFA_XSP16, literal(-7)))
          CFI (cfiCond117) R7 load(1, XDATA, add(CFA_XSP16, literal(-6)))
          CFI (cfiCond117) ?RET_LOW load(1, XDATA, add(CFA_XSP16, literal(-5)))
          CFI (cfiCond117) ?RET_HIGH load(1, XDATA, add(CFA_XSP16, literal(-4)))
          CFI (cfiCond117) ?BRET_EXT load(1, XDATA, add(CFA_XSP16, literal(-3)))
          CFI (cfiCond117) DPL0 load(1, XDATA, add(CFA_XSP16, literal(-2)))
          CFI (cfiCond117) DPH0 load(1, XDATA, add(CFA_XSP16, literal(-1)))
          CFI (cfiCond117) CFA_SP SP+-2
          CFI (cfiCond117) CFA_XSP16 add(XSP16, 76)
          CFI Block cfiCond118 Using cfiCommon0
          CFI (cfiCond118) Function WiFiSend
          CFI (cfiCond118) Conditional ??CrossCallReturnLabel_2
          CFI (cfiCond118) R6 load(1, XDATA, add(CFA_XSP16, literal(-12)))
          CFI (cfiCond118) VB load(1, XDATA, add(CFA_XSP16, literal(-11)))
          CFI (cfiCond118) V0 load(1, XDATA, add(CFA_XSP16, literal(-10)))
          CFI (cfiCond118) V1 load(1, XDATA, add(CFA_XSP16, literal(-9)))
          CFI (cfiCond118) V2 load(1, XDATA, add(CFA_XSP16, literal(-8)))
          CFI (cfiCond118) V3 load(1, XDATA, add(CFA_XSP16, literal(-7)))
          CFI (cfiCond118) R7 load(1, XDATA, add(CFA_XSP16, literal(-6)))
          CFI (cfiCond118) ?RET_LOW load(1, XDATA, add(CFA_XSP16, literal(-5)))
          CFI (cfiCond118) ?RET_HIGH load(1, XDATA, add(CFA_XSP16, literal(-4)))
          CFI (cfiCond118) ?BRET_EXT load(1, XDATA, add(CFA_XSP16, literal(-3)))
          CFI (cfiCond118) DPL0 load(1, XDATA, add(CFA_XSP16, literal(-2)))
          CFI (cfiCond118) DPH0 load(1, XDATA, add(CFA_XSP16, literal(-1)))
          CFI (cfiCond118) CFA_SP SP+-2
          CFI (cfiCond118) CFA_XSP16 add(XSP16, 78)
          CFI Block cfiPicker119 Using cfiCommon1
          CFI (cfiPicker119) NoFunction
          CFI (cfiPicker119) Picker
        MOV       DPL,?XSP + 0
        MOV       DPH,?XSP + 1
        MOV       A,R0
        MOVX      @DPTR,A
        INC       DPTR
        MOV       A,R1
        MOVX      @DPTR,A
        ; Setup parameters for call to function vsprintf
        ; Setup parameters for call to function vsprintf
        ; Setup parameters for call to function vsprintf
        MOV       R0,?XSP + 0
        MOV       R1,?XSP + 1
        MOV       ?V0,R0
        MOV       ?V1,R1
        MOV       R0,#?V0
        RET
          CFI EndBlock cfiCond116
          CFI EndBlock cfiCond117
          CFI EndBlock cfiCond118
          CFI EndBlock cfiPicker119
//  756 

        RSEG BANKED_CODE:HUGECODE:NOROOT(0)
//  757 void _UARTRead(uint8 port, uint8 *_buffer, uint16 *length) {
_UARTRead:
          CFI Block cfiBlock120 Using cfiCommon0
          CFI Function _UARTRead
        CODE
        FUNCALL _UARTRead, HalUARTRead
        LOCFRAME ISTACK, 0, STACK
        LOCFRAME PSTACK, 0, STACK
        LOCFRAME XSTACK, 9, STACK
        LOCFRAME IOVERLAY, 0, STATIC
        LOCFRAME DOVERLAY, 0, STATIC
        ARGFRAME ISTACK, 0, STACK
        ARGFRAME PSTACK, 0, STACK
        ARGFRAME XSTACK, 9, STACK
        ARGFRAME IOVERLAY, 0, STATIC
        ARGFRAME DOVERLAY, 0, STATIC
        REQUIRE ?V0
        MOV       A,#-0x9
        LCALL     ?BANKED_ENTER_XDATA
          CFI DPH0 load(1, XDATA, add(CFA_XSP16, literal(-1)))
          CFI DPL0 load(1, XDATA, add(CFA_XSP16, literal(-2)))
          CFI ?BRET_EXT load(1, XDATA, add(CFA_XSP16, literal(-3)))
          CFI ?RET_HIGH load(1, XDATA, add(CFA_XSP16, literal(-4)))
          CFI ?RET_LOW load(1, XDATA, add(CFA_XSP16, literal(-5)))
          CFI R7 load(1, XDATA, add(CFA_XSP16, literal(-6)))
          CFI V0 load(1, XDATA, add(CFA_XSP16, literal(-7)))
          CFI VB load(1, XDATA, add(CFA_XSP16, literal(-8)))
          CFI R6 load(1, XDATA, add(CFA_XSP16, literal(-9)))
          CFI CFA_SP SP+0
          CFI CFA_XSP16 add(XSP16, 9)
        ; Saved register size: 9
        ; Auto size: 0
        MOV       ?V0,R1
        MOV       A,R4
        MOV       R6,A
        MOV       A,R5
        MOV       R7,A
//  758 	for(*length = 0 ; *length < UartDefaultRxLen; (*length)++)
        MOV       DPL,R4
        MOV       DPH,A
        CLR       A
        MOVX      @DPTR,A
        INC       DPTR
        MOVX      @DPTR,A
//  759 		_buffer[*length] = 0x00;
??_UARTRead_0:
        MOV       DPL,R4
        MOV       DPH,R5
        LCALL     ??Subroutine32_0 & 0xFFFF
??CrossCallReturnLabel_77:
        MOV       A,R2
        ADD       A,R0
        MOV       DPL,A
        MOV       A,R3
        ADDC      A,R1
        MOV       DPH,A
        CLR       A
        MOVX      @DPTR,A
        MOV       DPL,R4
        MOV       DPH,R5
        MOVX      A,@DPTR
        ADD       A,#0x1
        MOVX      @DPTR,A
        INC       DPTR
        MOVX      A,@DPTR
        ADDC      A,#0x0
        MOVX      @DPTR,A
        MOV       DPL,R4
        MOV       DPH,R5
        CLR       C
        MOVX      A,@DPTR
        SUBB      A,#0x40
        INC       DPTR
        MOVX      A,@DPTR
        SUBB      A,#0x0
        JC        ??_UARTRead_0
//  760 	*length = HalUARTRead(port, _buffer, UartDefaultRxLen);
        ; Setup parameters for call to function HalUARTRead
        MOV       R4,#0x40
        MOV       R5,#0x0
        MOV       R1,?V0
        LCALL     `??HalUARTRead::?relay`; Banked call to: HalUARTRead
        MOV       DPL,R6
        MOV       DPH,R7
        MOV       A,R2
        MOVX      @DPTR,A
        INC       DPTR
        MOV       A,R3
        MOVX      @DPTR,A
//  761 }
          CFI EndBlock cfiBlock120
        REQUIRE ?Subroutine3
        ; // Fall through to label ?Subroutine3

        RSEG BANKED_CODE:HUGECODE:NOROOT(0)
?Subroutine3:
          CFI Block cfiBlock121 Using cfiCommon0
          CFI NoFunction
          CFI CFA_SP SP+0
          CFI CFA_XSP16 add(XSP16, 9)
          CFI VB load(1, XDATA, add(CFA_XSP16, literal(-8)))
          CFI DPL0 load(1, XDATA, add(CFA_XSP16, literal(-2)))
          CFI DPH0 load(1, XDATA, add(CFA_XSP16, literal(-1)))
          CFI R6 load(1, XDATA, add(CFA_XSP16, literal(-9)))
          CFI R7 load(1, XDATA, add(CFA_XSP16, literal(-6)))
          CFI V0 load(1, XDATA, add(CFA_XSP16, literal(-7)))
          CFI ?BRET_EXT load(1, XDATA, add(CFA_XSP16, literal(-3)))
          CFI ?RET_HIGH load(1, XDATA, add(CFA_XSP16, literal(-4)))
          CFI ?RET_LOW load(1, XDATA, add(CFA_XSP16, literal(-5)))
        MOV       R7,#0x1
        LJMP      ?BANKED_LEAVE_XDATA
          CFI EndBlock cfiBlock121

        RSEG BANKED_CODE:HUGECODE:NOROOT(0)
?Subroutine9:
          CFI Block cfiCond122 Using cfiCommon0
          CFI Function SampleApp_ProcessEvent
          CFI Conditional ??CrossCallReturnLabel_78
          CFI R6 load(1, XDATA, add(CFA_XSP16, literal(-16)))
          CFI VB load(1, XDATA, add(CFA_XSP16, literal(-15)))
          CFI V0 load(1, XDATA, add(CFA_XSP16, literal(-14)))
          CFI V1 load(1, XDATA, add(CFA_XSP16, literal(-13)))
          CFI V2 load(1, XDATA, add(CFA_XSP16, literal(-12)))
          CFI V3 load(1, XDATA, add(CFA_XSP16, literal(-11)))
          CFI V4 load(1, XDATA, add(CFA_XSP16, literal(-10)))
          CFI V5 load(1, XDATA, add(CFA_XSP16, literal(-9)))
          CFI V6 load(1, XDATA, add(CFA_XSP16, literal(-8)))
          CFI V7 load(1, XDATA, add(CFA_XSP16, literal(-7)))
          CFI R7 load(1, XDATA, add(CFA_XSP16, literal(-6)))
          CFI ?RET_LOW load(1, XDATA, add(CFA_XSP16, literal(-5)))
          CFI ?RET_HIGH load(1, XDATA, add(CFA_XSP16, literal(-4)))
          CFI ?BRET_EXT load(1, XDATA, add(CFA_XSP16, literal(-3)))
          CFI DPL0 load(1, XDATA, add(CFA_XSP16, literal(-2)))
          CFI DPH0 load(1, XDATA, add(CFA_XSP16, literal(-1)))
          CFI CFA_SP SP+-2
          CFI CFA_XSP16 add(XSP16, 175)
          CFI Block cfiCond123 Using cfiCommon0
          CFI (cfiCond123) Function WiFiRecv
          CFI (cfiCond123) Conditional ??CrossCallReturnLabel_79
          CFI (cfiCond123) R6 load(1, XDATA, add(CFA_XSP16, literal(-14)))
          CFI (cfiCond123) VB load(1, XDATA, add(CFA_XSP16, literal(-13)))
          CFI (cfiCond123) V0 load(1, XDATA, add(CFA_XSP16, literal(-12)))
          CFI (cfiCond123) V1 load(1, XDATA, add(CFA_XSP16, literal(-11)))
          CFI (cfiCond123) V2 load(1, XDATA, add(CFA_XSP16, literal(-10)))
          CFI (cfiCond123) V3 load(1, XDATA, add(CFA_XSP16, literal(-9)))
          CFI (cfiCond123) V4 load(1, XDATA, add(CFA_XSP16, literal(-8)))
          CFI (cfiCond123) V5 load(1, XDATA, add(CFA_XSP16, literal(-7)))
          CFI (cfiCond123) R7 load(1, XDATA, add(CFA_XSP16, literal(-6)))
          CFI (cfiCond123) ?RET_LOW load(1, XDATA, add(CFA_XSP16, literal(-5)))
          CFI (cfiCond123) ?RET_HIGH load(1, XDATA, add(CFA_XSP16, literal(-4)))
          CFI (cfiCond123) ?BRET_EXT load(1, XDATA, add(CFA_XSP16, literal(-3)))
          CFI (cfiCond123) DPL0 load(1, XDATA, add(CFA_XSP16, literal(-2)))
          CFI (cfiCond123) DPH0 load(1, XDATA, add(CFA_XSP16, literal(-1)))
          CFI (cfiCond123) CFA_SP SP+-2
          CFI (cfiCond123) CFA_XSP16 add(XSP16, 80)
          CFI Block cfiPicker124 Using cfiCommon1
          CFI (cfiPicker124) NoFunction
          CFI (cfiPicker124) Picker
        MOV       DPL,?XSP + 0
        MOV       DPH,?XSP + 1
          CFI EndBlock cfiCond122
          CFI EndBlock cfiCond123
          CFI EndBlock cfiPicker124
        REQUIRE ??Subroutine32_0
        ; // Fall through to label ??Subroutine32_0

        RSEG BANKED_CODE:HUGECODE:NOROOT(0)
??Subroutine32_0:
          CFI Block cfiCond125 Using cfiCommon0
          CFI Function SampleApp_ProcessEvent
          CFI Conditional ??CrossCallReturnLabel_76
          CFI R6 load(1, XDATA, add(CFA_XSP16, literal(-16)))
          CFI VB load(1, XDATA, add(CFA_XSP16, literal(-15)))
          CFI V0 load(1, XDATA, add(CFA_XSP16, literal(-14)))
          CFI V1 load(1, XDATA, add(CFA_XSP16, literal(-13)))
          CFI V2 load(1, XDATA, add(CFA_XSP16, literal(-12)))
          CFI V3 load(1, XDATA, add(CFA_XSP16, literal(-11)))
          CFI V4 load(1, XDATA, add(CFA_XSP16, literal(-10)))
          CFI V5 load(1, XDATA, add(CFA_XSP16, literal(-9)))
          CFI V6 load(1, XDATA, add(CFA_XSP16, literal(-8)))
          CFI V7 load(1, XDATA, add(CFA_XSP16, literal(-7)))
          CFI R7 load(1, XDATA, add(CFA_XSP16, literal(-6)))
          CFI ?RET_LOW load(1, XDATA, add(CFA_XSP16, literal(-5)))
          CFI ?RET_HIGH load(1, XDATA, add(CFA_XSP16, literal(-4)))
          CFI ?BRET_EXT load(1, XDATA, add(CFA_XSP16, literal(-3)))
          CFI DPL0 load(1, XDATA, add(CFA_XSP16, literal(-2)))
          CFI DPH0 load(1, XDATA, add(CFA_XSP16, literal(-1)))
          CFI CFA_SP SP+-2
          CFI CFA_XSP16 add(XSP16, 175)
          CFI Block cfiCond126 Using cfiCommon0
          CFI (cfiCond126) Function _UARTRead
          CFI (cfiCond126) Conditional ??CrossCallReturnLabel_77
          CFI (cfiCond126) R6 load(1, XDATA, add(CFA_XSP16, literal(-9)))
          CFI (cfiCond126) VB load(1, XDATA, add(CFA_XSP16, literal(-8)))
          CFI (cfiCond126) V0 load(1, XDATA, add(CFA_XSP16, literal(-7)))
          CFI (cfiCond126) R7 load(1, XDATA, add(CFA_XSP16, literal(-6)))
          CFI (cfiCond126) ?RET_LOW load(1, XDATA, add(CFA_XSP16, literal(-5)))
          CFI (cfiCond126) ?RET_HIGH load(1, XDATA, add(CFA_XSP16, literal(-4)))
          CFI (cfiCond126) ?BRET_EXT load(1, XDATA, add(CFA_XSP16, literal(-3)))
          CFI (cfiCond126) DPL0 load(1, XDATA, add(CFA_XSP16, literal(-2)))
          CFI (cfiCond126) DPH0 load(1, XDATA, add(CFA_XSP16, literal(-1)))
          CFI (cfiCond126) CFA_SP SP+-2
          CFI (cfiCond126) CFA_XSP16 add(XSP16, 9)
          CFI Block cfiCond127 Using cfiCommon0
          CFI (cfiCond127) Function SampleApp_ProcessEvent
          CFI (cfiCond127) Conditional ??CrossCallReturnLabel_78
          CFI (cfiCond127) R6 load(1, XDATA, add(CFA_XSP16, literal(-16)))
          CFI (cfiCond127) VB load(1, XDATA, add(CFA_XSP16, literal(-15)))
          CFI (cfiCond127) V0 load(1, XDATA, add(CFA_XSP16, literal(-14)))
          CFI (cfiCond127) V1 load(1, XDATA, add(CFA_XSP16, literal(-13)))
          CFI (cfiCond127) V2 load(1, XDATA, add(CFA_XSP16, literal(-12)))
          CFI (cfiCond127) V3 load(1, XDATA, add(CFA_XSP16, literal(-11)))
          CFI (cfiCond127) V4 load(1, XDATA, add(CFA_XSP16, literal(-10)))
          CFI (cfiCond127) V5 load(1, XDATA, add(CFA_XSP16, literal(-9)))
          CFI (cfiCond127) V6 load(1, XDATA, add(CFA_XSP16, literal(-8)))
          CFI (cfiCond127) V7 load(1, XDATA, add(CFA_XSP16, literal(-7)))
          CFI (cfiCond127) R7 load(1, XDATA, add(CFA_XSP16, literal(-6)))
          CFI (cfiCond127) ?RET_LOW load(1, XDATA, add(CFA_XSP16, literal(-5)))
          CFI (cfiCond127) ?RET_HIGH load(1, XDATA, add(CFA_XSP16, literal(-4)))
          CFI (cfiCond127) ?BRET_EXT load(1, XDATA, add(CFA_XSP16, literal(-3)))
          CFI (cfiCond127) DPL0 load(1, XDATA, add(CFA_XSP16, literal(-2)))
          CFI (cfiCond127) DPH0 load(1, XDATA, add(CFA_XSP16, literal(-1)))
          CFI (cfiCond127) CFA_SP SP+-2
          CFI (cfiCond127) CFA_XSP16 add(XSP16, 175)
          CFI Block cfiCond128 Using cfiCommon0
          CFI (cfiCond128) Function WiFiRecv
          CFI (cfiCond128) Conditional ??CrossCallReturnLabel_79
          CFI (cfiCond128) R6 load(1, XDATA, add(CFA_XSP16, literal(-14)))
          CFI (cfiCond128) VB load(1, XDATA, add(CFA_XSP16, literal(-13)))
          CFI (cfiCond128) V0 load(1, XDATA, add(CFA_XSP16, literal(-12)))
          CFI (cfiCond128) V1 load(1, XDATA, add(CFA_XSP16, literal(-11)))
          CFI (cfiCond128) V2 load(1, XDATA, add(CFA_XSP16, literal(-10)))
          CFI (cfiCond128) V3 load(1, XDATA, add(CFA_XSP16, literal(-9)))
          CFI (cfiCond128) V4 load(1, XDATA, add(CFA_XSP16, literal(-8)))
          CFI (cfiCond128) V5 load(1, XDATA, add(CFA_XSP16, literal(-7)))
          CFI (cfiCond128) R7 load(1, XDATA, add(CFA_XSP16, literal(-6)))
          CFI (cfiCond128) ?RET_LOW load(1, XDATA, add(CFA_XSP16, literal(-5)))
          CFI (cfiCond128) ?RET_HIGH load(1, XDATA, add(CFA_XSP16, literal(-4)))
          CFI (cfiCond128) ?BRET_EXT load(1, XDATA, add(CFA_XSP16, literal(-3)))
          CFI (cfiCond128) DPL0 load(1, XDATA, add(CFA_XSP16, literal(-2)))
          CFI (cfiCond128) DPH0 load(1, XDATA, add(CFA_XSP16, literal(-1)))
          CFI (cfiCond128) CFA_SP SP+-2
          CFI (cfiCond128) CFA_XSP16 add(XSP16, 80)
          CFI Block cfiPicker129 Using cfiCommon1
          CFI (cfiPicker129) NoFunction
          CFI (cfiPicker129) Picker
        MOVX      A,@DPTR
        MOV       R0,A
        INC       DPTR
        MOVX      A,@DPTR
        MOV       R1,A
        RET
          CFI EndBlock cfiCond125
          CFI EndBlock cfiCond126
          CFI EndBlock cfiCond127
          CFI EndBlock cfiCond128
          CFI EndBlock cfiPicker129
//  762 

        RSEG BANKED_CODE:HUGECODE:NOROOT(0)
//  763 void _delay_ms(uint16 timeout) {
_delay_ms:
          CFI Block cfiBlock130 Using cfiCommon0
          CFI Function _delay_ms
        CODE
        FUNCALL _delay_ms, _delay_us
        LOCFRAME ISTACK, 0, STACK
        LOCFRAME PSTACK, 0, STACK
        LOCFRAME XSTACK, 9, STACK
        LOCFRAME IOVERLAY, 0, STATIC
        LOCFRAME DOVERLAY, 0, STATIC
        ARGFRAME ISTACK, 0, STACK
        ARGFRAME PSTACK, 0, STACK
        ARGFRAME XSTACK, 9, STACK
        ARGFRAME IOVERLAY, 0, STATIC
        ARGFRAME DOVERLAY, 0, STATIC
        MOV       A,#-0x9
        LCALL     ?BANKED_ENTER_XDATA
          CFI DPH0 load(1, XDATA, add(CFA_XSP16, literal(-1)))
          CFI DPL0 load(1, XDATA, add(CFA_XSP16, literal(-2)))
          CFI ?BRET_EXT load(1, XDATA, add(CFA_XSP16, literal(-3)))
          CFI ?RET_HIGH load(1, XDATA, add(CFA_XSP16, literal(-4)))
          CFI ?RET_LOW load(1, XDATA, add(CFA_XSP16, literal(-5)))
          CFI R7 load(1, XDATA, add(CFA_XSP16, literal(-6)))
          CFI V0 load(1, XDATA, add(CFA_XSP16, literal(-7)))
          CFI VB load(1, XDATA, add(CFA_XSP16, literal(-8)))
          CFI R6 load(1, XDATA, add(CFA_XSP16, literal(-9)))
          CFI CFA_SP SP+0
          CFI CFA_XSP16 add(XSP16, 9)
        ; Saved register size: 9
        ; Auto size: 0
        MOV       A,R2
        MOV       R6,A
        MOV       A,R3
        MOV       R7,A
        SJMP      ??_delay_ms_0
//  764 	while (timeout --) {
//  765 	   _delay_us(1000);
??_delay_ms_1:
        ; Setup parameters for call to function _delay_us
        MOV       R2,#-0x18
        MOV       R3,#0x3
        LCALL     `??_delay_us::?relay`; Banked call to: _delay_us
//  766 	}
??_delay_ms_0:
        MOV       A,R6
        MOV       R0,A
        MOV       A,R7
        MOV       R1,A
        MOV       A,R0
        ADD       A,#-0x1
        DEC       R6
        MOV       A,R1
        ADDC      A,#-0x1
        MOV       R7,A
        MOV       A,R0
        ORL       A,R1
        JNZ       ??_delay_ms_1
//  767 }
        SJMP      ?Subroutine3
          CFI EndBlock cfiBlock130
//  768 

        RSEG BANKED_CODE:HUGECODE:NOROOT(0)
//  769 void _delay_us(uint16 timeout) {
_delay_us:
          CFI Block cfiBlock131 Using cfiCommon0
          CFI Function _delay_us
        CODE
        ; Saved register size: 0
        ; Auto size: 0
//  770 	uint8 cnt;
//  771 	while (timeout --) {
??_delay_us_0:
        MOV       A,R2
        MOV       R0,A
        MOV       A,R3
        MOV       R1,A
        MOV       A,R0
        ADD       A,#-0x1
        DEC       R2
        MOV       A,R1
        ADDC      A,#-0x1
        MOV       R3,A
        MOV       A,R0
        ORL       A,R1
        JZ        ??_delay_us_1
//  772 		cnt = 32;
        MOV       R0,#0x20
//  773 		while (cnt --) {
??_delay_us_2:
        MOV       A,R0
        MOV       R1,A
        MOV       A,#-0x1
        ADD       A,R1
        MOV       R0,A
        INC       A
        JZ        ??_delay_us_0
//  774 			asm("NOP");
        NOP
        SJMP      ??_delay_us_2
//  775 		}
//  776 	}    
//  777 }
??_delay_us_1:
        LJMP      ?BRET
          CFI EndBlock cfiBlock131
//  778 
//  779 // 2 for timeout; 1 for error; 0 for clear; timeout = 0 stands for INF

        RSEG BANKED_CODE:HUGECODE:NOROOT(0)
//  780 uint8 wait_for(uint8 *str, uint8 *err, uint16 timeout) {
wait_for:
          CFI Block cfiBlock132 Using cfiCommon0
          CFI Function wait_for
        CODE
        FUNCALL wait_for, strlen
        LOCFRAME ISTACK, 0, STACK
        LOCFRAME PSTACK, 0, STACK
        LOCFRAME XSTACK, 82, STACK
        LOCFRAME IOVERLAY, 0, STATIC
        LOCFRAME DOVERLAY, 0, STATIC
        ARGFRAME ISTACK, 0, STACK
        ARGFRAME PSTACK, 0, STACK
        ARGFRAME XSTACK, 82, STACK
        ARGFRAME IOVERLAY, 0, STATIC
        ARGFRAME DOVERLAY, 0, STATIC
        FUNCALL wait_for, strlen
        LOCFRAME ISTACK, 0, STACK
        LOCFRAME PSTACK, 0, STACK
        LOCFRAME XSTACK, 82, STACK
        LOCFRAME IOVERLAY, 0, STATIC
        LOCFRAME DOVERLAY, 0, STATIC
        ARGFRAME ISTACK, 0, STACK
        ARGFRAME PSTACK, 0, STACK
        ARGFRAME XSTACK, 82, STACK
        ARGFRAME IOVERLAY, 0, STATIC
        ARGFRAME DOVERLAY, 0, STATIC
        FUNCALL wait_for, _UARTRead
        LOCFRAME ISTACK, 0, STACK
        LOCFRAME PSTACK, 0, STACK
        LOCFRAME XSTACK, 82, STACK
        LOCFRAME IOVERLAY, 0, STATIC
        LOCFRAME DOVERLAY, 0, STATIC
        ARGFRAME ISTACK, 0, STACK
        ARGFRAME PSTACK, 0, STACK
        ARGFRAME XSTACK, 82, STACK
        ARGFRAME IOVERLAY, 0, STATIC
        ARGFRAME DOVERLAY, 0, STATIC
        FUNCALL wait_for, _delay_ms
        LOCFRAME ISTACK, 0, STACK
        LOCFRAME PSTACK, 0, STACK
        LOCFRAME XSTACK, 82, STACK
        LOCFRAME IOVERLAY, 0, STATIC
        LOCFRAME DOVERLAY, 0, STATIC
        ARGFRAME ISTACK, 0, STACK
        ARGFRAME PSTACK, 0, STACK
        ARGFRAME XSTACK, 82, STACK
        ARGFRAME IOVERLAY, 0, STATIC
        ARGFRAME DOVERLAY, 0, STATIC
        FUNCALL wait_for, _UARTSend
        LOCFRAME ISTACK, 0, STACK
        LOCFRAME PSTACK, 0, STACK
        LOCFRAME XSTACK, 82, STACK
        LOCFRAME IOVERLAY, 0, STATIC
        LOCFRAME DOVERLAY, 0, STATIC
        ARGFRAME ISTACK, 0, STACK
        ARGFRAME PSTACK, 0, STACK
        ARGFRAME XSTACK, 82, STACK
        ARGFRAME IOVERLAY, 0, STATIC
        ARGFRAME DOVERLAY, 0, STATIC
        FUNCALL wait_for, _UARTSend
        LOCFRAME ISTACK, 0, STACK
        LOCFRAME PSTACK, 0, STACK
        LOCFRAME XSTACK, 82, STACK
        LOCFRAME IOVERLAY, 0, STATIC
        LOCFRAME DOVERLAY, 0, STATIC
        ARGFRAME ISTACK, 0, STACK
        ARGFRAME PSTACK, 0, STACK
        ARGFRAME XSTACK, 82, STACK
        ARGFRAME IOVERLAY, 0, STATIC
        ARGFRAME DOVERLAY, 0, STATIC
        REQUIRE ?V0
        REQUIRE ?V1
        REQUIRE ?V2
        REQUIRE ?V3
        REQUIRE ?V4
        REQUIRE ?V5
        REQUIRE ?V6
        REQUIRE ?V7
        MOV       A,#-0x10
        LCALL     ?BANKED_ENTER_XDATA
          CFI DPH0 load(1, XDATA, add(CFA_XSP16, literal(-1)))
          CFI DPL0 load(1, XDATA, add(CFA_XSP16, literal(-2)))
          CFI ?BRET_EXT load(1, XDATA, add(CFA_XSP16, literal(-3)))
          CFI ?RET_HIGH load(1, XDATA, add(CFA_XSP16, literal(-4)))
          CFI ?RET_LOW load(1, XDATA, add(CFA_XSP16, literal(-5)))
          CFI R7 load(1, XDATA, add(CFA_XSP16, literal(-6)))
          CFI V7 load(1, XDATA, add(CFA_XSP16, literal(-7)))
          CFI V6 load(1, XDATA, add(CFA_XSP16, literal(-8)))
          CFI V5 load(1, XDATA, add(CFA_XSP16, literal(-9)))
          CFI V4 load(1, XDATA, add(CFA_XSP16, literal(-10)))
          CFI V3 load(1, XDATA, add(CFA_XSP16, literal(-11)))
          CFI V2 load(1, XDATA, add(CFA_XSP16, literal(-12)))
          CFI V1 load(1, XDATA, add(CFA_XSP16, literal(-13)))
          CFI V0 load(1, XDATA, add(CFA_XSP16, literal(-14)))
          CFI VB load(1, XDATA, add(CFA_XSP16, literal(-15)))
          CFI R6 load(1, XDATA, add(CFA_XSP16, literal(-16)))
          CFI CFA_SP SP+0
          CFI CFA_XSP16 add(XSP16, 16)
        ; Saved register size: 16
        ; Auto size: 66
        MOV       A,#-0x42
        LCALL     ?ALLOC_XSTACK8
          CFI CFA_XSP16 add(XSP16, 82)
        MOV       ?V0,R2
        MOV       ?V1,R3
        MOV       A,R4
        MOV       R6,A
        MOV       A,R5
        MOV       R7,A
//  781 	uint16 wait_len, read_len, err_len;
//  782 	int16 i, index;
//  783 	uint8 buffer[UartDefaultRxLen], flag;
//  784 	wait_len = strlen((char *)str);
        ; Setup parameters for call to function strlen
        LCALL     `??strlen::?relay`; Banked call to: strlen
        MOV       ?V6,R2
        MOV       ?V7,R3
//  785 	err_len = strlen((char *)err);
        ; Setup parameters for call to function strlen
        MOV       A,R6
        MOV       R2,A
        MOV       A,R7
        MOV       R3,A
        LCALL     `??strlen::?relay`; Banked call to: strlen
        MOV       ?V2,R2
        MOV       ?V3,R3
        MOV       A,#0x52
        LCALL     ?XSTACK_DISP0_8
        MOVX      A,@DPTR
        MOV       ?V4,A
        INC       DPTR
        MOVX      A,@DPTR
        MOV       ?V5,A
//  786 	while (1) {
//  787 		_UARTRead(HAL_UART_PORT_1, buffer, &read_len);
??wait_for_0:
        ; Setup parameters for call to function _UARTRead
        MOV       R4,?XSP + 0
        MOV       R5,?XSP + 1
        MOV       A,#0x2
        LCALL     ?XSTACK_DISP101_8
        LCALL     ?Subroutine15 & 0xFFFF
//  788 		_delay_ms(1);
//  789 		if (read_len > 2) { // at least 0x0D 0x0A
??CrossCallReturnLabel_11:
        SUBB      A,#0x3
        INC       DPTR
        MOVX      A,@DPTR
        SUBB      A,#0x0
        JNC       $+5
        LJMP      ??wait_for_1 & 0xFFFF
//  790 			index = 0;
        MOV       R2,#0x0
        MOV       R3,#0x0
//  791 			for (i = read_len - 1; i >= 0; i --) {
        MOV       DPL,?XSP + 0
        MOV       DPH,?XSP + 1
        MOVX      A,@DPTR
        ADD       A,#-0x1
        MOV       R0,A
        INC       DPTR
        MOVX      A,@DPTR
        SJMP      ??wait_for_2
??wait_for_3:
        MOV       A,R0
        ADD       A,#-0x1
        DEC       R0
        MOV       A,R1
??wait_for_2:
        ADDC      A,#-0x1
        MOV       R1,A
        CLR       C
        MOV       A,R1
        SUBB      A,#0x0
        MOV       C,0xD0 /* PSW */.2
        XRL       A,PSW
        RLC       A
        JC        ??wait_for_4
//  792 				if (buffer[i] == 0x0A && i != read_len - 1) {
        MOV       A,#0x2
        LCALL     ?XSTACK_DISP0_8
        MOV       A,DPL
        ADD       A,R0
        MOV       DPL,A
        MOV       A,DPH
        ADDC      A,R1
        MOV       DPH,A
        MOVX      A,@DPTR
        XRL       A,#0xa
        JNZ       ??wait_for_3
        MOV       DPL,?XSP + 0
        MOV       DPH,?XSP + 1
        MOVX      A,@DPTR
        ADD       A,#-0x1
        MOV       R4,A
        INC       DPTR
        MOVX      A,@DPTR
        ADDC      A,#-0x1
        MOV       R5,A
        MOV       A,R4
        XRL       A,R0
        JNZ       ??wait_for_5
        MOV       A,R5
        XRL       A,R1
??wait_for_5:
        JZ        ??wait_for_3
//  793 					index = i + 1;
        MOV       A,R0
        ADD       A,#0x1
        MOV       R2,A
        CLR       A
        ADDC      A,R1
        MOV       R3,A
//  794 					break;
//  795 				}
//  796 			}
//  797 			
//  798 			if (err_len == (read_len - index)) {
??wait_for_4:
        LCALL     ?Subroutine11 & 0xFFFF
??CrossCallReturnLabel_9:
        XRL       A,?V2
        JNZ       ??wait_for_6
        MOV       A,R1
        XRL       A,?V3
??wait_for_6:
        JNZ       ??wait_for_7
//  799 				flag = 1;
//  800 				for (i = 0; i < err_len; i ++) {
        MOV       R0,#0x0
        MOV       R1,#0x0
        SJMP      ??wait_for_8
//  801 					if (buffer[index + i] != err[i]) {
??wait_for_9:
        MOV       A,R2
        ADD       A,R0
        MOV       R4,A
        MOV       A,R3
        ADDC      A,R1
        MOV       R5,A
        MOV       A,#0x2
        LCALL     ?XSTACK_DISP0_8
        LCALL     ?Subroutine21 & 0xFFFF
//  802 						flag = 0;
//  803 						break;
//  804 					}
//  805 				}
??CrossCallReturnLabel_35:
        MOV       A,R6
        ADD       A,R0
        MOV       DPL,A
        MOV       A,R7
        ADDC      A,R1
        MOV       DPH,A
        MOVX      A,@DPTR
        XRL       A,R4
        JNZ       ??wait_for_7
        INC       R0
        MOV       A,R0
        JNZ       ??wait_for_8
        INC       R1
??wait_for_8:
        CLR       C
        MOV       A,R0
        SUBB      A,?V2
        MOV       A,R1
        SUBB      A,?V3
        JC        ??wait_for_9
//  806 				if (flag == 1) {
//  807 					debug(err);
        ; Setup parameters for call to function _UARTSend
        MOV       A,R6
        MOV       R2,A
        MOV       A,R7
        MOV       R3,A
        MOV       R1,#0x0
        LCALL     `??_UARTSend::?relay`; Banked call to: _UARTSend
//  808 					return 1;
        MOV       R1,#0x1
        SJMP      ??wait_for_10
//  809 				}
//  810 			}
//  811 
//  812 			if (wait_len == (read_len - index)) {
??wait_for_7:
        LCALL     ?Subroutine11 & 0xFFFF
??CrossCallReturnLabel_10:
        XRL       A,?V6
        JNZ       ??wait_for_11
        MOV       A,R1
        XRL       A,?V7
??wait_for_11:
        JNZ       ??wait_for_1
//  813 				flag = 1;
//  814 				for (i = 0; i < wait_len; i ++) {
        MOV       R0,#0x0
        MOV       R1,#0x0
        SJMP      ??wait_for_12
//  815 					if (buffer[index + i] != str[i]) {
??wait_for_13:
        MOV       A,R2
        ADD       A,R0
        MOV       R4,A
        MOV       A,R3
        ADDC      A,R1
        MOV       R5,A
        MOV       A,#0x2
        LCALL     ?XSTACK_DISP0_8
        LCALL     ?Subroutine21 & 0xFFFF
//  816 						flag = 0;
//  817 						break;
//  818 					}
//  819 				}
??CrossCallReturnLabel_36:
        MOV       A,?V0
        ADD       A,R0
        MOV       DPL,A
        MOV       A,?V1
        ADDC      A,R1
        MOV       DPH,A
        MOVX      A,@DPTR
        XRL       A,R4
        JNZ       ??wait_for_1
        INC       R0
        MOV       A,R0
        JNZ       ??wait_for_12
        INC       R1
??wait_for_12:
        CLR       C
        MOV       A,R0
        SUBB      A,?V6
        MOV       A,R1
        SUBB      A,?V7
        JC        ??wait_for_13
//  820 				if (flag == 1) {
//  821 					debug(str);
        ; Setup parameters for call to function _UARTSend
        MOV       R2,?V0
        MOV       R3,?V1
        MOV       R1,#0x0
        LCALL     `??_UARTSend::?relay`; Banked call to: _UARTSend
//  822 					return 0;
        MOV       R1,#0x0
        SJMP      ??wait_for_10
//  823 				}
//  824 			}
//  825 		}
//  826 		timeout --;
//  827 		if (!timeout) return 2;
??wait_for_1:
        MOV       A,?V4
        ADD       A,#-0x1
        MOV       ?V4,A
        MOV       A,?V5
        ADDC      A,#-0x1
        MOV       ?V5,A
        MOV       A,?V4
        ORL       A,?V5
        JZ        $+5
        LJMP      ??wait_for_0 & 0xFFFF
        MOV       R1,#0x2
??wait_for_10:
        MOV       A,#0x42
//  828 	}
        LJMP      ?Subroutine0 & 0xFFFF
//  829 }
          CFI EndBlock cfiBlock132

        RSEG BANKED_CODE:HUGECODE:NOROOT(0)
?Subroutine21:
          CFI Block cfiCond133 Using cfiCommon0
          CFI Function wait_for
          CFI Conditional ??CrossCallReturnLabel_35
          CFI R6 load(1, XDATA, add(CFA_XSP16, literal(-16)))
          CFI VB load(1, XDATA, add(CFA_XSP16, literal(-15)))
          CFI V0 load(1, XDATA, add(CFA_XSP16, literal(-14)))
          CFI V1 load(1, XDATA, add(CFA_XSP16, literal(-13)))
          CFI V2 load(1, XDATA, add(CFA_XSP16, literal(-12)))
          CFI V3 load(1, XDATA, add(CFA_XSP16, literal(-11)))
          CFI V4 load(1, XDATA, add(CFA_XSP16, literal(-10)))
          CFI V5 load(1, XDATA, add(CFA_XSP16, literal(-9)))
          CFI V6 load(1, XDATA, add(CFA_XSP16, literal(-8)))
          CFI V7 load(1, XDATA, add(CFA_XSP16, literal(-7)))
          CFI R7 load(1, XDATA, add(CFA_XSP16, literal(-6)))
          CFI ?RET_LOW load(1, XDATA, add(CFA_XSP16, literal(-5)))
          CFI ?RET_HIGH load(1, XDATA, add(CFA_XSP16, literal(-4)))
          CFI ?BRET_EXT load(1, XDATA, add(CFA_XSP16, literal(-3)))
          CFI DPL0 load(1, XDATA, add(CFA_XSP16, literal(-2)))
          CFI DPH0 load(1, XDATA, add(CFA_XSP16, literal(-1)))
          CFI CFA_SP SP+-2
          CFI CFA_XSP16 add(XSP16, 82)
          CFI Block cfiCond134 Using cfiCommon0
          CFI (cfiCond134) Function wait_for
          CFI (cfiCond134) Conditional ??CrossCallReturnLabel_36
          CFI (cfiCond134) R6 load(1, XDATA, add(CFA_XSP16, literal(-16)))
          CFI (cfiCond134) VB load(1, XDATA, add(CFA_XSP16, literal(-15)))
          CFI (cfiCond134) V0 load(1, XDATA, add(CFA_XSP16, literal(-14)))
          CFI (cfiCond134) V1 load(1, XDATA, add(CFA_XSP16, literal(-13)))
          CFI (cfiCond134) V2 load(1, XDATA, add(CFA_XSP16, literal(-12)))
          CFI (cfiCond134) V3 load(1, XDATA, add(CFA_XSP16, literal(-11)))
          CFI (cfiCond134) V4 load(1, XDATA, add(CFA_XSP16, literal(-10)))
          CFI (cfiCond134) V5 load(1, XDATA, add(CFA_XSP16, literal(-9)))
          CFI (cfiCond134) V6 load(1, XDATA, add(CFA_XSP16, literal(-8)))
          CFI (cfiCond134) V7 load(1, XDATA, add(CFA_XSP16, literal(-7)))
          CFI (cfiCond134) R7 load(1, XDATA, add(CFA_XSP16, literal(-6)))
          CFI (cfiCond134) ?RET_LOW load(1, XDATA, add(CFA_XSP16, literal(-5)))
          CFI (cfiCond134) ?RET_HIGH load(1, XDATA, add(CFA_XSP16, literal(-4)))
          CFI (cfiCond134) ?BRET_EXT load(1, XDATA, add(CFA_XSP16, literal(-3)))
          CFI (cfiCond134) DPL0 load(1, XDATA, add(CFA_XSP16, literal(-2)))
          CFI (cfiCond134) DPH0 load(1, XDATA, add(CFA_XSP16, literal(-1)))
          CFI (cfiCond134) CFA_SP SP+-2
          CFI (cfiCond134) CFA_XSP16 add(XSP16, 82)
          CFI Block cfiPicker135 Using cfiCommon1
          CFI (cfiPicker135) NoFunction
          CFI (cfiPicker135) Picker
        MOV       A,DPL
        ADD       A,R4
        MOV       DPL,A
        MOV       A,DPH
        ADDC      A,R5
        MOV       DPH,A
        MOVX      A,@DPTR
        MOV       R4,A
        RET
          CFI EndBlock cfiCond133
          CFI EndBlock cfiCond134
          CFI EndBlock cfiPicker135

        RSEG BANKED_CODE:HUGECODE:NOROOT(0)
?Subroutine11:
          CFI Block cfiCond136 Using cfiCommon0
          CFI Function wait_for
          CFI Conditional ??CrossCallReturnLabel_9
          CFI R6 load(1, XDATA, add(CFA_XSP16, literal(-16)))
          CFI VB load(1, XDATA, add(CFA_XSP16, literal(-15)))
          CFI V0 load(1, XDATA, add(CFA_XSP16, literal(-14)))
          CFI V1 load(1, XDATA, add(CFA_XSP16, literal(-13)))
          CFI V2 load(1, XDATA, add(CFA_XSP16, literal(-12)))
          CFI V3 load(1, XDATA, add(CFA_XSP16, literal(-11)))
          CFI V4 load(1, XDATA, add(CFA_XSP16, literal(-10)))
          CFI V5 load(1, XDATA, add(CFA_XSP16, literal(-9)))
          CFI V6 load(1, XDATA, add(CFA_XSP16, literal(-8)))
          CFI V7 load(1, XDATA, add(CFA_XSP16, literal(-7)))
          CFI R7 load(1, XDATA, add(CFA_XSP16, literal(-6)))
          CFI ?RET_LOW load(1, XDATA, add(CFA_XSP16, literal(-5)))
          CFI ?RET_HIGH load(1, XDATA, add(CFA_XSP16, literal(-4)))
          CFI ?BRET_EXT load(1, XDATA, add(CFA_XSP16, literal(-3)))
          CFI DPL0 load(1, XDATA, add(CFA_XSP16, literal(-2)))
          CFI DPH0 load(1, XDATA, add(CFA_XSP16, literal(-1)))
          CFI CFA_SP SP+-2
          CFI CFA_XSP16 add(XSP16, 82)
          CFI Block cfiCond137 Using cfiCommon0
          CFI (cfiCond137) Function wait_for
          CFI (cfiCond137) Conditional ??CrossCallReturnLabel_10
          CFI (cfiCond137) R6 load(1, XDATA, add(CFA_XSP16, literal(-16)))
          CFI (cfiCond137) VB load(1, XDATA, add(CFA_XSP16, literal(-15)))
          CFI (cfiCond137) V0 load(1, XDATA, add(CFA_XSP16, literal(-14)))
          CFI (cfiCond137) V1 load(1, XDATA, add(CFA_XSP16, literal(-13)))
          CFI (cfiCond137) V2 load(1, XDATA, add(CFA_XSP16, literal(-12)))
          CFI (cfiCond137) V3 load(1, XDATA, add(CFA_XSP16, literal(-11)))
          CFI (cfiCond137) V4 load(1, XDATA, add(CFA_XSP16, literal(-10)))
          CFI (cfiCond137) V5 load(1, XDATA, add(CFA_XSP16, literal(-9)))
          CFI (cfiCond137) V6 load(1, XDATA, add(CFA_XSP16, literal(-8)))
          CFI (cfiCond137) V7 load(1, XDATA, add(CFA_XSP16, literal(-7)))
          CFI (cfiCond137) R7 load(1, XDATA, add(CFA_XSP16, literal(-6)))
          CFI (cfiCond137) ?RET_LOW load(1, XDATA, add(CFA_XSP16, literal(-5)))
          CFI (cfiCond137) ?RET_HIGH load(1, XDATA, add(CFA_XSP16, literal(-4)))
          CFI (cfiCond137) ?BRET_EXT load(1, XDATA, add(CFA_XSP16, literal(-3)))
          CFI (cfiCond137) DPL0 load(1, XDATA, add(CFA_XSP16, literal(-2)))
          CFI (cfiCond137) DPH0 load(1, XDATA, add(CFA_XSP16, literal(-1)))
          CFI (cfiCond137) CFA_SP SP+-2
          CFI (cfiCond137) CFA_XSP16 add(XSP16, 82)
          CFI Block cfiPicker138 Using cfiCommon1
          CFI (cfiPicker138) NoFunction
          CFI (cfiPicker138) Picker
        MOV       DPL,?XSP + 0
        MOV       DPH,?XSP + 1
        MOVX      A,@DPTR
        CLR       C
        SUBB      A,R2
        MOV       R0,A
        INC       DPTR
        MOVX      A,@DPTR
        SUBB      A,R3
        MOV       R1,A
        MOV       A,R0
        RET
          CFI EndBlock cfiCond136
          CFI EndBlock cfiCond137
          CFI EndBlock cfiPicker138
//  830 

        RSEG BANKED_CODE:HUGECODE:NOROOT(0)
//  831 void exit_send() {
exit_send:
          CFI Block cfiBlock139 Using cfiCommon0
          CFI Function exit_send
        CODE
        FUNCALL exit_send, _UARTSend
        LOCFRAME ISTACK, 0, STACK
        LOCFRAME PSTACK, 0, STACK
        LOCFRAME XSTACK, 9, STACK
        LOCFRAME IOVERLAY, 0, STATIC
        LOCFRAME DOVERLAY, 0, STATIC
        ARGFRAME ISTACK, 0, STACK
        ARGFRAME PSTACK, 0, STACK
        ARGFRAME XSTACK, 9, STACK
        ARGFRAME IOVERLAY, 0, STATIC
        ARGFRAME DOVERLAY, 0, STATIC
        FUNCALL exit_send, _delay_ms
        LOCFRAME ISTACK, 0, STACK
        LOCFRAME PSTACK, 0, STACK
        LOCFRAME XSTACK, 9, STACK
        LOCFRAME IOVERLAY, 0, STATIC
        LOCFRAME DOVERLAY, 0, STATIC
        ARGFRAME ISTACK, 0, STACK
        ARGFRAME PSTACK, 0, STACK
        ARGFRAME XSTACK, 9, STACK
        ARGFRAME IOVERLAY, 0, STATIC
        ARGFRAME DOVERLAY, 0, STATIC
        FUNCALL exit_send, _UARTSend
        LOCFRAME ISTACK, 0, STACK
        LOCFRAME PSTACK, 0, STACK
        LOCFRAME XSTACK, 9, STACK
        LOCFRAME IOVERLAY, 0, STATIC
        LOCFRAME DOVERLAY, 0, STATIC
        ARGFRAME ISTACK, 0, STACK
        ARGFRAME PSTACK, 0, STACK
        ARGFRAME XSTACK, 9, STACK
        ARGFRAME IOVERLAY, 0, STATIC
        ARGFRAME DOVERLAY, 0, STATIC
        FUNCALL exit_send, _delay_ms
        LOCFRAME ISTACK, 0, STACK
        LOCFRAME PSTACK, 0, STACK
        LOCFRAME XSTACK, 9, STACK
        LOCFRAME IOVERLAY, 0, STATIC
        LOCFRAME DOVERLAY, 0, STATIC
        ARGFRAME ISTACK, 0, STACK
        ARGFRAME PSTACK, 0, STACK
        ARGFRAME XSTACK, 9, STACK
        ARGFRAME IOVERLAY, 0, STATIC
        ARGFRAME DOVERLAY, 0, STATIC
        FUNCALL exit_send, _UARTSend
        LOCFRAME ISTACK, 0, STACK
        LOCFRAME PSTACK, 0, STACK
        LOCFRAME XSTACK, 9, STACK
        LOCFRAME IOVERLAY, 0, STATIC
        LOCFRAME DOVERLAY, 0, STATIC
        ARGFRAME ISTACK, 0, STACK
        ARGFRAME PSTACK, 0, STACK
        ARGFRAME XSTACK, 9, STACK
        ARGFRAME IOVERLAY, 0, STATIC
        ARGFRAME DOVERLAY, 0, STATIC
        FUNCALL exit_send, _delay_ms
        LOCFRAME ISTACK, 0, STACK
        LOCFRAME PSTACK, 0, STACK
        LOCFRAME XSTACK, 9, STACK
        LOCFRAME IOVERLAY, 0, STATIC
        LOCFRAME DOVERLAY, 0, STATIC
        ARGFRAME ISTACK, 0, STACK
        ARGFRAME PSTACK, 0, STACK
        ARGFRAME XSTACK, 9, STACK
        ARGFRAME IOVERLAY, 0, STATIC
        ARGFRAME DOVERLAY, 0, STATIC
        MOV       A,#-0x9
        LCALL     ?BANKED_ENTER_XDATA
          CFI DPH0 load(1, XDATA, add(CFA_XSP16, literal(-1)))
          CFI DPL0 load(1, XDATA, add(CFA_XSP16, literal(-2)))
          CFI ?BRET_EXT load(1, XDATA, add(CFA_XSP16, literal(-3)))
          CFI ?RET_HIGH load(1, XDATA, add(CFA_XSP16, literal(-4)))
          CFI ?RET_LOW load(1, XDATA, add(CFA_XSP16, literal(-5)))
          CFI R7 load(1, XDATA, add(CFA_XSP16, literal(-6)))
          CFI V0 load(1, XDATA, add(CFA_XSP16, literal(-7)))
          CFI VB load(1, XDATA, add(CFA_XSP16, literal(-8)))
          CFI R6 load(1, XDATA, add(CFA_XSP16, literal(-9)))
          CFI CFA_SP SP+0
          CFI CFA_XSP16 add(XSP16, 9)
        ; Saved register size: 9
        ; Auto size: 0
//  832 	print("+++");
        ; Setup parameters for call to function _UARTSend
        LCALL     ?Subroutine14 & 0xFFFF
//  833 	_delay_ms(10);
//  834 	print("+++");
??CrossCallReturnLabel_80:
        ; Setup parameters for call to function _UARTSend
        LCALL     ?Subroutine14 & 0xFFFF
//  835 	_delay_ms(10);
//  836 	print("\r\n");
??CrossCallReturnLabel_81:
        ; Setup parameters for call to function _UARTSend
        MOV       R2,#`?<Constant "\\r\\n">` & 0xff
        MOV       R3,#(`?<Constant "\\r\\n">` >> 8) & 0xff
        LCALL     ??Subroutine33_0 & 0xFFFF
//  837 	_delay_ms(10);
//  838 }
??CrossCallReturnLabel_82:
        LJMP      ?Subroutine3 & 0xFFFF
          CFI EndBlock cfiBlock139

        RSEG BANKED_CODE:HUGECODE:NOROOT(0)
?Subroutine14:
          CFI Block cfiCond140 Using cfiCommon0
          CFI Function exit_send
          CFI Conditional ??CrossCallReturnLabel_80
          CFI R6 load(1, XDATA, add(CFA_XSP16, literal(-9)))
          CFI VB load(1, XDATA, add(CFA_XSP16, literal(-8)))
          CFI V0 load(1, XDATA, add(CFA_XSP16, literal(-7)))
          CFI R7 load(1, XDATA, add(CFA_XSP16, literal(-6)))
          CFI ?RET_LOW load(1, XDATA, add(CFA_XSP16, literal(-5)))
          CFI ?RET_HIGH load(1, XDATA, add(CFA_XSP16, literal(-4)))
          CFI ?BRET_EXT load(1, XDATA, add(CFA_XSP16, literal(-3)))
          CFI DPL0 load(1, XDATA, add(CFA_XSP16, literal(-2)))
          CFI DPH0 load(1, XDATA, add(CFA_XSP16, literal(-1)))
          CFI CFA_SP SP+-2
          CFI CFA_XSP16 add(XSP16, 9)
          CFI Block cfiCond141 Using cfiCommon0
          CFI (cfiCond141) Function exit_send
          CFI (cfiCond141) Conditional ??CrossCallReturnLabel_81
          CFI (cfiCond141) R6 load(1, XDATA, add(CFA_XSP16, literal(-9)))
          CFI (cfiCond141) VB load(1, XDATA, add(CFA_XSP16, literal(-8)))
          CFI (cfiCond141) V0 load(1, XDATA, add(CFA_XSP16, literal(-7)))
          CFI (cfiCond141) R7 load(1, XDATA, add(CFA_XSP16, literal(-6)))
          CFI (cfiCond141) ?RET_LOW load(1, XDATA, add(CFA_XSP16, literal(-5)))
          CFI (cfiCond141) ?RET_HIGH load(1, XDATA, add(CFA_XSP16, literal(-4)))
          CFI (cfiCond141) ?BRET_EXT load(1, XDATA, add(CFA_XSP16, literal(-3)))
          CFI (cfiCond141) DPL0 load(1, XDATA, add(CFA_XSP16, literal(-2)))
          CFI (cfiCond141) DPH0 load(1, XDATA, add(CFA_XSP16, literal(-1)))
          CFI (cfiCond141) CFA_SP SP+-2
          CFI (cfiCond141) CFA_XSP16 add(XSP16, 9)
          CFI Block cfiPicker142 Using cfiCommon1
          CFI (cfiPicker142) NoFunction
          CFI (cfiPicker142) Picker
        MOV       R2,#`?<Constant "+++">` & 0xff
        MOV       R3,#(`?<Constant "+++">` >> 8) & 0xff
          CFI EndBlock cfiCond140
          CFI EndBlock cfiCond141
          CFI EndBlock cfiPicker142
        REQUIRE ??Subroutine33_0
        ; // Fall through to label ??Subroutine33_0

        RSEG BANKED_CODE:HUGECODE:NOROOT(0)
??Subroutine33_0:
          CFI Block cfiCond143 Using cfiCommon0
          CFI Function exit_send
          CFI Conditional ??CrossCallReturnLabel_82
          CFI R6 load(1, XDATA, add(CFA_XSP16, literal(-9)))
          CFI VB load(1, XDATA, add(CFA_XSP16, literal(-8)))
          CFI V0 load(1, XDATA, add(CFA_XSP16, literal(-7)))
          CFI R7 load(1, XDATA, add(CFA_XSP16, literal(-6)))
          CFI ?RET_LOW load(1, XDATA, add(CFA_XSP16, literal(-5)))
          CFI ?RET_HIGH load(1, XDATA, add(CFA_XSP16, literal(-4)))
          CFI ?BRET_EXT load(1, XDATA, add(CFA_XSP16, literal(-3)))
          CFI DPL0 load(1, XDATA, add(CFA_XSP16, literal(-2)))
          CFI DPH0 load(1, XDATA, add(CFA_XSP16, literal(-1)))
          CFI CFA_SP SP+-2
          CFI CFA_XSP16 add(XSP16, 9)
          CFI Block cfiCond144 Using cfiCommon0
          CFI (cfiCond144) Function exit_send
          CFI (cfiCond144) Conditional ??CrossCallReturnLabel_80
          CFI (cfiCond144) R6 load(1, XDATA, add(CFA_XSP16, literal(-9)))
          CFI (cfiCond144) VB load(1, XDATA, add(CFA_XSP16, literal(-8)))
          CFI (cfiCond144) V0 load(1, XDATA, add(CFA_XSP16, literal(-7)))
          CFI (cfiCond144) R7 load(1, XDATA, add(CFA_XSP16, literal(-6)))
          CFI (cfiCond144) ?RET_LOW load(1, XDATA, add(CFA_XSP16, literal(-5)))
          CFI (cfiCond144) ?RET_HIGH load(1, XDATA, add(CFA_XSP16, literal(-4)))
          CFI (cfiCond144) ?BRET_EXT load(1, XDATA, add(CFA_XSP16, literal(-3)))
          CFI (cfiCond144) DPL0 load(1, XDATA, add(CFA_XSP16, literal(-2)))
          CFI (cfiCond144) DPH0 load(1, XDATA, add(CFA_XSP16, literal(-1)))
          CFI (cfiCond144) CFA_SP SP+-2
          CFI (cfiCond144) CFA_XSP16 add(XSP16, 9)
          CFI Block cfiCond145 Using cfiCommon0
          CFI (cfiCond145) Function exit_send
          CFI (cfiCond145) Conditional ??CrossCallReturnLabel_81
          CFI (cfiCond145) R6 load(1, XDATA, add(CFA_XSP16, literal(-9)))
          CFI (cfiCond145) VB load(1, XDATA, add(CFA_XSP16, literal(-8)))
          CFI (cfiCond145) V0 load(1, XDATA, add(CFA_XSP16, literal(-7)))
          CFI (cfiCond145) R7 load(1, XDATA, add(CFA_XSP16, literal(-6)))
          CFI (cfiCond145) ?RET_LOW load(1, XDATA, add(CFA_XSP16, literal(-5)))
          CFI (cfiCond145) ?RET_HIGH load(1, XDATA, add(CFA_XSP16, literal(-4)))
          CFI (cfiCond145) ?BRET_EXT load(1, XDATA, add(CFA_XSP16, literal(-3)))
          CFI (cfiCond145) DPL0 load(1, XDATA, add(CFA_XSP16, literal(-2)))
          CFI (cfiCond145) DPH0 load(1, XDATA, add(CFA_XSP16, literal(-1)))
          CFI (cfiCond145) CFA_SP SP+-2
          CFI (cfiCond145) CFA_XSP16 add(XSP16, 9)
          CFI Block cfiPicker146 Using cfiCommon1
          CFI (cfiPicker146) NoFunction
          CFI (cfiPicker146) Picker
        MOV       R1,#0x1
        LCALL     `??_UARTSend::?relay`; Banked call to: _UARTSend
        ; Setup parameters for call to function _delay_ms
        ; Setup parameters for call to function _delay_ms
        ; Setup parameters for call to function _delay_ms
        MOV       R2,#0xa
        MOV       R3,#0x0
        LCALL     `??_delay_ms::?relay`; Banked call to: _delay_ms
        RET
          CFI EndBlock cfiCond143
          CFI EndBlock cfiCond144
          CFI EndBlock cfiCond145
          CFI EndBlock cfiPicker146
//  839 
//  840 

        RSEG BANKED_CODE:HUGECODE:NOROOT(0)
//  841 uint8 WiFiSend(uint8 *fmt, ...) {
WiFiSend:
          CFI Block cfiBlock147 Using cfiCommon0
          CFI Function WiFiSend
        CODE
        FUNCALL WiFiSend, vsprintf
        LOCFRAME ISTACK, 0, STACK
        LOCFRAME PSTACK, 0, STACK
        LOCFRAME XSTACK, 80, STACK
        LOCFRAME IOVERLAY, 0, STATIC
        LOCFRAME DOVERLAY, 0, STATIC
        ARGFRAME ISTACK, 0, STACK
        ARGFRAME PSTACK, 0, STACK
        ARGFRAME XSTACK, 80, STACK
        ARGFRAME IOVERLAY, 0, STATIC
        ARGFRAME DOVERLAY, 0, STATIC
        FUNCALL WiFiSend, _UARTSend
        LOCFRAME ISTACK, 0, STACK
        LOCFRAME PSTACK, 0, STACK
        LOCFRAME XSTACK, 80, STACK
        LOCFRAME IOVERLAY, 0, STATIC
        LOCFRAME DOVERLAY, 0, STATIC
        ARGFRAME ISTACK, 0, STACK
        ARGFRAME PSTACK, 0, STACK
        ARGFRAME XSTACK, 80, STACK
        ARGFRAME IOVERLAY, 0, STATIC
        ARGFRAME DOVERLAY, 0, STATIC
        FUNCALL WiFiSend, _UARTSend
        LOCFRAME ISTACK, 0, STACK
        LOCFRAME PSTACK, 0, STACK
        LOCFRAME XSTACK, 80, STACK
        LOCFRAME IOVERLAY, 0, STATIC
        LOCFRAME DOVERLAY, 0, STATIC
        ARGFRAME ISTACK, 0, STACK
        ARGFRAME PSTACK, 0, STACK
        ARGFRAME XSTACK, 80, STACK
        ARGFRAME IOVERLAY, 0, STATIC
        ARGFRAME DOVERLAY, 0, STATIC
        FUNCALL WiFiSend, _delay_ms
        LOCFRAME ISTACK, 0, STACK
        LOCFRAME PSTACK, 0, STACK
        LOCFRAME XSTACK, 78, STACK
        LOCFRAME IOVERLAY, 0, STATIC
        LOCFRAME DOVERLAY, 0, STATIC
        ARGFRAME ISTACK, 0, STACK
        ARGFRAME PSTACK, 0, STACK
        ARGFRAME XSTACK, 78, STACK
        ARGFRAME IOVERLAY, 0, STATIC
        ARGFRAME DOVERLAY, 0, STATIC
        FUNCALL WiFiSend, HalUARTWrite
        LOCFRAME ISTACK, 0, STACK
        LOCFRAME PSTACK, 0, STACK
        LOCFRAME XSTACK, 78, STACK
        LOCFRAME IOVERLAY, 0, STATIC
        LOCFRAME DOVERLAY, 0, STATIC
        ARGFRAME ISTACK, 0, STACK
        ARGFRAME PSTACK, 0, STACK
        ARGFRAME XSTACK, 78, STACK
        ARGFRAME IOVERLAY, 0, STATIC
        ARGFRAME DOVERLAY, 0, STATIC
        FUNCALL WiFiSend, wait_for
        LOCFRAME ISTACK, 0, STACK
        LOCFRAME PSTACK, 0, STACK
        LOCFRAME XSTACK, 80, STACK
        LOCFRAME IOVERLAY, 0, STATIC
        LOCFRAME DOVERLAY, 0, STATIC
        ARGFRAME ISTACK, 0, STACK
        ARGFRAME PSTACK, 0, STACK
        ARGFRAME XSTACK, 80, STACK
        ARGFRAME IOVERLAY, 0, STATIC
        ARGFRAME DOVERLAY, 0, STATIC
        REQUIRE ?V0
        REQUIRE ?V1
        REQUIRE ?V2
        REQUIRE ?V3
        MOV       A,#-0xc
        LCALL     ?BANKED_ENTER_XDATA
          CFI DPH0 load(1, XDATA, add(CFA_XSP16, literal(-1)))
          CFI DPL0 load(1, XDATA, add(CFA_XSP16, literal(-2)))
          CFI ?BRET_EXT load(1, XDATA, add(CFA_XSP16, literal(-3)))
          CFI ?RET_HIGH load(1, XDATA, add(CFA_XSP16, literal(-4)))
          CFI ?RET_LOW load(1, XDATA, add(CFA_XSP16, literal(-5)))
          CFI R7 load(1, XDATA, add(CFA_XSP16, literal(-6)))
          CFI V3 load(1, XDATA, add(CFA_XSP16, literal(-7)))
          CFI V2 load(1, XDATA, add(CFA_XSP16, literal(-8)))
          CFI V1 load(1, XDATA, add(CFA_XSP16, literal(-9)))
          CFI V0 load(1, XDATA, add(CFA_XSP16, literal(-10)))
          CFI VB load(1, XDATA, add(CFA_XSP16, literal(-11)))
          CFI R6 load(1, XDATA, add(CFA_XSP16, literal(-12)))
          CFI CFA_SP SP+0
          CFI CFA_XSP16 add(XSP16, 12)
        ; Saved register size: 12
        ; Auto size: 66
        MOV       A,#-0x42
        LCALL     ?ALLOC_XSTACK8
          CFI CFA_XSP16 add(XSP16, 78)
//  842 	va_list arg_ptr;
//  843 	uint8 buffer[UartDefaultTxLen], cnt;
//  844 	uint16 length = 0;
//  845 	for(cnt = 0 ; cnt < UartDefaultTxLen ; cnt++)
//  846 		buffer[cnt] = 0x00;
        MOV       A,#0x2
        LCALL     ?XSTACK_DISP0_8
        CLR       A
        MOV       R0,#0x40
??WiFiSend_0:
        MOVX      @DPTR,A
        INC       DPTR
        DJNZ      R0,??WiFiSend_0
//  847 	va_start(arg_ptr, fmt);
        MOV       A,#0x4e
        LCALL     ?XSTACK_DISP100_8
        LCALL     ?Subroutine4 & 0xFFFF
//  848 	length = vsprintf((char *)buffer, (const char *)fmt, arg_ptr);
??CrossCallReturnLabel_2:
        LCALL     ?PUSH_XSTACK_I_TWO
          CFI CFA_XSP16 add(XSP16, 80)
        MOV       A,R2
        MOV       R4,A
        MOV       A,R3
        MOV       R5,A
        MOV       A,#0x4
        LCALL     ?XSTACK_DISP101_8
        LCALL     `??vsprintf::?relay`; Banked call to: vsprintf
        MOV       A,#0x2
        LCALL     ?DEALLOC_XSTACK8
          CFI CFA_XSP16 add(XSP16, 78)
        MOV       ?V0,R2
        MOV       ?V1,R3
//  849 	va_end(arg_ptr);
//  850 	debug_and_print("AT+CIPSEND=0,%d\r\n", length);
        ; Setup parameters for call to function _UARTSend
        MOV       R0,#?V0
        LCALL     ?PUSH_XSTACK_I_TWO
          CFI CFA_XSP16 add(XSP16, 80)
        MOV       R2,#`?<Constant "AT+CIPSEND=0,%d\\r\\n">` & 0xff
        MOV       R3,#(`?<Constant "AT+CIPSEND=0,%d\\r\\n">` >> 8) & 0xff
        MOV       R1,#0x0
        LCALL     `??_UARTSend::?relay`; Banked call to: _UARTSend
        MOV       A,#0x2
        LCALL     ?DEALLOC_XSTACK8
          CFI CFA_XSP16 add(XSP16, 78)
        ; Setup parameters for call to function _UARTSend
        MOV       R0,#?V0
        LCALL     ?PUSH_XSTACK_I_TWO
          CFI CFA_XSP16 add(XSP16, 80)
        MOV       R2,#`?<Constant "AT+CIPSEND=0,%d\\r\\n">` & 0xff
        MOV       R3,#(`?<Constant "AT+CIPSEND=0,%d\\r\\n">` >> 8) & 0xff
        MOV       R1,#0x1
        LCALL     `??_UARTSend::?relay`; Banked call to: _UARTSend
        MOV       A,#0x2
        LCALL     ?DEALLOC_XSTACK8
          CFI CFA_XSP16 add(XSP16, 78)
//  851 	_delay_ms(10);
        ; Setup parameters for call to function _delay_ms
        MOV       R2,#0xa
        MOV       R3,#0x0
        LCALL     `??_delay_ms::?relay`; Banked call to: _delay_ms
//  852 	// if (wait_for(">", "ERROR\r\n", 0)) return 1;
//  853 	HalUARTWrite(1, (uint8 *)buffer, length);
        ; Setup parameters for call to function HalUARTWrite
        MOV       R4,?V0
        MOV       R5,?V1
        MOV       A,#0x2
        LCALL     ?XSTACK_DISP101_8
        MOV       R1,#0x1
        LCALL     `??HalUARTWrite::?relay`; Banked call to: HalUARTWrite
//  854 	return wait_for("SEND OK\r\n", "SEND FAIL\r\n", 0);
        ; Setup parameters for call to function wait_for
        CLR       A
        MOV       ?V0,A
        MOV       ?V1,A
        MOV       R0,#?V0
        LCALL     ?PUSH_XSTACK_I_TWO
          CFI CFA_XSP16 add(XSP16, 80)
        MOV       R4,#`?<Constant "SEND FAIL\\r\\n">` & 0xff
        MOV       R5,#(`?<Constant "SEND FAIL\\r\\n">` >> 8) & 0xff
        MOV       R2,#`?<Constant "SEND OK\\r\\n">` & 0xff
        MOV       R3,#(`?<Constant "SEND OK\\r\\n">` >> 8) & 0xff
        LCALL     ??Subroutine35_0 & 0xFFFF
??CrossCallReturnLabel_98:
        LJMP      ?Subroutine2 & 0xFFFF
//  855 }
          CFI EndBlock cfiBlock147

        RSEG BANKED_CODE:HUGECODE:NOROOT(0)
?Subroutine13:
          CFI Block cfiCond148 Using cfiCommon0
          CFI Function SampleApp_ProcessEvent
          CFI Conditional ??CrossCallReturnLabel_83
          CFI R6 load(1, XDATA, add(CFA_XSP16, literal(-16)))
          CFI VB load(1, XDATA, add(CFA_XSP16, literal(-15)))
          CFI V0 load(1, XDATA, add(CFA_XSP16, literal(-14)))
          CFI V1 load(1, XDATA, add(CFA_XSP16, literal(-13)))
          CFI V2 load(1, XDATA, add(CFA_XSP16, literal(-12)))
          CFI V3 load(1, XDATA, add(CFA_XSP16, literal(-11)))
          CFI V4 load(1, XDATA, add(CFA_XSP16, literal(-10)))
          CFI V5 load(1, XDATA, add(CFA_XSP16, literal(-9)))
          CFI V6 load(1, XDATA, add(CFA_XSP16, literal(-8)))
          CFI V7 load(1, XDATA, add(CFA_XSP16, literal(-7)))
          CFI R7 load(1, XDATA, add(CFA_XSP16, literal(-6)))
          CFI ?RET_LOW load(1, XDATA, add(CFA_XSP16, literal(-5)))
          CFI ?RET_HIGH load(1, XDATA, add(CFA_XSP16, literal(-4)))
          CFI ?BRET_EXT load(1, XDATA, add(CFA_XSP16, literal(-3)))
          CFI DPL0 load(1, XDATA, add(CFA_XSP16, literal(-2)))
          CFI DPH0 load(1, XDATA, add(CFA_XSP16, literal(-1)))
          CFI CFA_SP SP+-2
          CFI CFA_XSP16 add(XSP16, 177)
          CFI Block cfiCond149 Using cfiCommon0
          CFI (cfiCond149) Function SampleApp_ProcessEvent
          CFI (cfiCond149) Conditional ??CrossCallReturnLabel_84
          CFI (cfiCond149) R6 load(1, XDATA, add(CFA_XSP16, literal(-16)))
          CFI (cfiCond149) VB load(1, XDATA, add(CFA_XSP16, literal(-15)))
          CFI (cfiCond149) V0 load(1, XDATA, add(CFA_XSP16, literal(-14)))
          CFI (cfiCond149) V1 load(1, XDATA, add(CFA_XSP16, literal(-13)))
          CFI (cfiCond149) V2 load(1, XDATA, add(CFA_XSP16, literal(-12)))
          CFI (cfiCond149) V3 load(1, XDATA, add(CFA_XSP16, literal(-11)))
          CFI (cfiCond149) V4 load(1, XDATA, add(CFA_XSP16, literal(-10)))
          CFI (cfiCond149) V5 load(1, XDATA, add(CFA_XSP16, literal(-9)))
          CFI (cfiCond149) V6 load(1, XDATA, add(CFA_XSP16, literal(-8)))
          CFI (cfiCond149) V7 load(1, XDATA, add(CFA_XSP16, literal(-7)))
          CFI (cfiCond149) R7 load(1, XDATA, add(CFA_XSP16, literal(-6)))
          CFI (cfiCond149) ?RET_LOW load(1, XDATA, add(CFA_XSP16, literal(-5)))
          CFI (cfiCond149) ?RET_HIGH load(1, XDATA, add(CFA_XSP16, literal(-4)))
          CFI (cfiCond149) ?BRET_EXT load(1, XDATA, add(CFA_XSP16, literal(-3)))
          CFI (cfiCond149) DPL0 load(1, XDATA, add(CFA_XSP16, literal(-2)))
          CFI (cfiCond149) DPH0 load(1, XDATA, add(CFA_XSP16, literal(-1)))
          CFI (cfiCond149) CFA_SP SP+-2
          CFI (cfiCond149) CFA_XSP16 add(XSP16, 177)
          CFI Block cfiCond150 Using cfiCommon0
          CFI (cfiCond150) Function SampleApp_ProcessEvent
          CFI (cfiCond150) Conditional ??CrossCallReturnLabel_85
          CFI (cfiCond150) R6 load(1, XDATA, add(CFA_XSP16, literal(-16)))
          CFI (cfiCond150) VB load(1, XDATA, add(CFA_XSP16, literal(-15)))
          CFI (cfiCond150) V0 load(1, XDATA, add(CFA_XSP16, literal(-14)))
          CFI (cfiCond150) V1 load(1, XDATA, add(CFA_XSP16, literal(-13)))
          CFI (cfiCond150) V2 load(1, XDATA, add(CFA_XSP16, literal(-12)))
          CFI (cfiCond150) V3 load(1, XDATA, add(CFA_XSP16, literal(-11)))
          CFI (cfiCond150) V4 load(1, XDATA, add(CFA_XSP16, literal(-10)))
          CFI (cfiCond150) V5 load(1, XDATA, add(CFA_XSP16, literal(-9)))
          CFI (cfiCond150) V6 load(1, XDATA, add(CFA_XSP16, literal(-8)))
          CFI (cfiCond150) V7 load(1, XDATA, add(CFA_XSP16, literal(-7)))
          CFI (cfiCond150) R7 load(1, XDATA, add(CFA_XSP16, literal(-6)))
          CFI (cfiCond150) ?RET_LOW load(1, XDATA, add(CFA_XSP16, literal(-5)))
          CFI (cfiCond150) ?RET_HIGH load(1, XDATA, add(CFA_XSP16, literal(-4)))
          CFI (cfiCond150) ?BRET_EXT load(1, XDATA, add(CFA_XSP16, literal(-3)))
          CFI (cfiCond150) DPL0 load(1, XDATA, add(CFA_XSP16, literal(-2)))
          CFI (cfiCond150) DPH0 load(1, XDATA, add(CFA_XSP16, literal(-1)))
          CFI (cfiCond150) CFA_SP SP+-2
          CFI (cfiCond150) CFA_XSP16 add(XSP16, 177)
          CFI Block cfiCond151 Using cfiCommon0
          CFI (cfiCond151) Function SampleApp_ProcessEvent
          CFI (cfiCond151) Conditional ??CrossCallReturnLabel_86
          CFI (cfiCond151) R6 load(1, XDATA, add(CFA_XSP16, literal(-16)))
          CFI (cfiCond151) VB load(1, XDATA, add(CFA_XSP16, literal(-15)))
          CFI (cfiCond151) V0 load(1, XDATA, add(CFA_XSP16, literal(-14)))
          CFI (cfiCond151) V1 load(1, XDATA, add(CFA_XSP16, literal(-13)))
          CFI (cfiCond151) V2 load(1, XDATA, add(CFA_XSP16, literal(-12)))
          CFI (cfiCond151) V3 load(1, XDATA, add(CFA_XSP16, literal(-11)))
          CFI (cfiCond151) V4 load(1, XDATA, add(CFA_XSP16, literal(-10)))
          CFI (cfiCond151) V5 load(1, XDATA, add(CFA_XSP16, literal(-9)))
          CFI (cfiCond151) V6 load(1, XDATA, add(CFA_XSP16, literal(-8)))
          CFI (cfiCond151) V7 load(1, XDATA, add(CFA_XSP16, literal(-7)))
          CFI (cfiCond151) R7 load(1, XDATA, add(CFA_XSP16, literal(-6)))
          CFI (cfiCond151) ?RET_LOW load(1, XDATA, add(CFA_XSP16, literal(-5)))
          CFI (cfiCond151) ?RET_HIGH load(1, XDATA, add(CFA_XSP16, literal(-4)))
          CFI (cfiCond151) ?BRET_EXT load(1, XDATA, add(CFA_XSP16, literal(-3)))
          CFI (cfiCond151) DPL0 load(1, XDATA, add(CFA_XSP16, literal(-2)))
          CFI (cfiCond151) DPH0 load(1, XDATA, add(CFA_XSP16, literal(-1)))
          CFI (cfiCond151) CFA_SP SP+-2
          CFI (cfiCond151) CFA_XSP16 add(XSP16, 177)
          CFI Block cfiCond152 Using cfiCommon0
          CFI (cfiCond152) Function SampleApp_ProcessEvent
          CFI (cfiCond152) Conditional ??CrossCallReturnLabel_87
          CFI (cfiCond152) R6 load(1, XDATA, add(CFA_XSP16, literal(-16)))
          CFI (cfiCond152) VB load(1, XDATA, add(CFA_XSP16, literal(-15)))
          CFI (cfiCond152) V0 load(1, XDATA, add(CFA_XSP16, literal(-14)))
          CFI (cfiCond152) V1 load(1, XDATA, add(CFA_XSP16, literal(-13)))
          CFI (cfiCond152) V2 load(1, XDATA, add(CFA_XSP16, literal(-12)))
          CFI (cfiCond152) V3 load(1, XDATA, add(CFA_XSP16, literal(-11)))
          CFI (cfiCond152) V4 load(1, XDATA, add(CFA_XSP16, literal(-10)))
          CFI (cfiCond152) V5 load(1, XDATA, add(CFA_XSP16, literal(-9)))
          CFI (cfiCond152) V6 load(1, XDATA, add(CFA_XSP16, literal(-8)))
          CFI (cfiCond152) V7 load(1, XDATA, add(CFA_XSP16, literal(-7)))
          CFI (cfiCond152) R7 load(1, XDATA, add(CFA_XSP16, literal(-6)))
          CFI (cfiCond152) ?RET_LOW load(1, XDATA, add(CFA_XSP16, literal(-5)))
          CFI (cfiCond152) ?RET_HIGH load(1, XDATA, add(CFA_XSP16, literal(-4)))
          CFI (cfiCond152) ?BRET_EXT load(1, XDATA, add(CFA_XSP16, literal(-3)))
          CFI (cfiCond152) DPL0 load(1, XDATA, add(CFA_XSP16, literal(-2)))
          CFI (cfiCond152) DPH0 load(1, XDATA, add(CFA_XSP16, literal(-1)))
          CFI (cfiCond152) CFA_SP SP+-2
          CFI (cfiCond152) CFA_XSP16 add(XSP16, 177)
          CFI Block cfiCond153 Using cfiCommon0
          CFI (cfiCond153) Function SampleApp_ProcessEvent
          CFI (cfiCond153) Conditional ??CrossCallReturnLabel_88
          CFI (cfiCond153) R6 load(1, XDATA, add(CFA_XSP16, literal(-16)))
          CFI (cfiCond153) VB load(1, XDATA, add(CFA_XSP16, literal(-15)))
          CFI (cfiCond153) V0 load(1, XDATA, add(CFA_XSP16, literal(-14)))
          CFI (cfiCond153) V1 load(1, XDATA, add(CFA_XSP16, literal(-13)))
          CFI (cfiCond153) V2 load(1, XDATA, add(CFA_XSP16, literal(-12)))
          CFI (cfiCond153) V3 load(1, XDATA, add(CFA_XSP16, literal(-11)))
          CFI (cfiCond153) V4 load(1, XDATA, add(CFA_XSP16, literal(-10)))
          CFI (cfiCond153) V5 load(1, XDATA, add(CFA_XSP16, literal(-9)))
          CFI (cfiCond153) V6 load(1, XDATA, add(CFA_XSP16, literal(-8)))
          CFI (cfiCond153) V7 load(1, XDATA, add(CFA_XSP16, literal(-7)))
          CFI (cfiCond153) R7 load(1, XDATA, add(CFA_XSP16, literal(-6)))
          CFI (cfiCond153) ?RET_LOW load(1, XDATA, add(CFA_XSP16, literal(-5)))
          CFI (cfiCond153) ?RET_HIGH load(1, XDATA, add(CFA_XSP16, literal(-4)))
          CFI (cfiCond153) ?BRET_EXT load(1, XDATA, add(CFA_XSP16, literal(-3)))
          CFI (cfiCond153) DPL0 load(1, XDATA, add(CFA_XSP16, literal(-2)))
          CFI (cfiCond153) DPH0 load(1, XDATA, add(CFA_XSP16, literal(-1)))
          CFI (cfiCond153) CFA_SP SP+-2
          CFI (cfiCond153) CFA_XSP16 add(XSP16, 177)
          CFI Block cfiCond154 Using cfiCommon0
          CFI (cfiCond154) Function SampleApp_ProcessEvent
          CFI (cfiCond154) Conditional ??CrossCallReturnLabel_89
          CFI (cfiCond154) R6 load(1, XDATA, add(CFA_XSP16, literal(-16)))
          CFI (cfiCond154) VB load(1, XDATA, add(CFA_XSP16, literal(-15)))
          CFI (cfiCond154) V0 load(1, XDATA, add(CFA_XSP16, literal(-14)))
          CFI (cfiCond154) V1 load(1, XDATA, add(CFA_XSP16, literal(-13)))
          CFI (cfiCond154) V2 load(1, XDATA, add(CFA_XSP16, literal(-12)))
          CFI (cfiCond154) V3 load(1, XDATA, add(CFA_XSP16, literal(-11)))
          CFI (cfiCond154) V4 load(1, XDATA, add(CFA_XSP16, literal(-10)))
          CFI (cfiCond154) V5 load(1, XDATA, add(CFA_XSP16, literal(-9)))
          CFI (cfiCond154) V6 load(1, XDATA, add(CFA_XSP16, literal(-8)))
          CFI (cfiCond154) V7 load(1, XDATA, add(CFA_XSP16, literal(-7)))
          CFI (cfiCond154) R7 load(1, XDATA, add(CFA_XSP16, literal(-6)))
          CFI (cfiCond154) ?RET_LOW load(1, XDATA, add(CFA_XSP16, literal(-5)))
          CFI (cfiCond154) ?RET_HIGH load(1, XDATA, add(CFA_XSP16, literal(-4)))
          CFI (cfiCond154) ?BRET_EXT load(1, XDATA, add(CFA_XSP16, literal(-3)))
          CFI (cfiCond154) DPL0 load(1, XDATA, add(CFA_XSP16, literal(-2)))
          CFI (cfiCond154) DPH0 load(1, XDATA, add(CFA_XSP16, literal(-1)))
          CFI (cfiCond154) CFA_SP SP+-2
          CFI (cfiCond154) CFA_XSP16 add(XSP16, 177)
          CFI Block cfiCond155 Using cfiCommon0
          CFI (cfiCond155) Function SampleApp_ProcessEvent
          CFI (cfiCond155) Conditional ??CrossCallReturnLabel_90
          CFI (cfiCond155) R6 load(1, XDATA, add(CFA_XSP16, literal(-16)))
          CFI (cfiCond155) VB load(1, XDATA, add(CFA_XSP16, literal(-15)))
          CFI (cfiCond155) V0 load(1, XDATA, add(CFA_XSP16, literal(-14)))
          CFI (cfiCond155) V1 load(1, XDATA, add(CFA_XSP16, literal(-13)))
          CFI (cfiCond155) V2 load(1, XDATA, add(CFA_XSP16, literal(-12)))
          CFI (cfiCond155) V3 load(1, XDATA, add(CFA_XSP16, literal(-11)))
          CFI (cfiCond155) V4 load(1, XDATA, add(CFA_XSP16, literal(-10)))
          CFI (cfiCond155) V5 load(1, XDATA, add(CFA_XSP16, literal(-9)))
          CFI (cfiCond155) V6 load(1, XDATA, add(CFA_XSP16, literal(-8)))
          CFI (cfiCond155) V7 load(1, XDATA, add(CFA_XSP16, literal(-7)))
          CFI (cfiCond155) R7 load(1, XDATA, add(CFA_XSP16, literal(-6)))
          CFI (cfiCond155) ?RET_LOW load(1, XDATA, add(CFA_XSP16, literal(-5)))
          CFI (cfiCond155) ?RET_HIGH load(1, XDATA, add(CFA_XSP16, literal(-4)))
          CFI (cfiCond155) ?BRET_EXT load(1, XDATA, add(CFA_XSP16, literal(-3)))
          CFI (cfiCond155) DPL0 load(1, XDATA, add(CFA_XSP16, literal(-2)))
          CFI (cfiCond155) DPH0 load(1, XDATA, add(CFA_XSP16, literal(-1)))
          CFI (cfiCond155) CFA_SP SP+-2
          CFI (cfiCond155) CFA_XSP16 add(XSP16, 177)
          CFI Block cfiPicker156 Using cfiCommon1
          CFI (cfiPicker156) NoFunction
          CFI (cfiPicker156) Picker
        MOV       R4,#`?<Constant "ERROR\\r\\n">` & 0xff
        MOV       R5,#(`?<Constant "ERROR\\r\\n">` >> 8) & 0xff
          CFI EndBlock cfiCond148
          CFI EndBlock cfiCond149
          CFI EndBlock cfiCond150
          CFI EndBlock cfiCond151
          CFI EndBlock cfiCond152
          CFI EndBlock cfiCond153
          CFI EndBlock cfiCond154
          CFI EndBlock cfiCond155
          CFI EndBlock cfiPicker156
        REQUIRE ??Subroutine34_0
        ; // Fall through to label ??Subroutine34_0

        RSEG BANKED_CODE:HUGECODE:NOROOT(0)
??Subroutine34_0:
          CFI Block cfiCond157 Using cfiCommon0
          CFI Function SampleApp_ProcessEvent
          CFI Conditional ??CrossCallReturnLabel_91
          CFI R6 load(1, XDATA, add(CFA_XSP16, literal(-16)))
          CFI VB load(1, XDATA, add(CFA_XSP16, literal(-15)))
          CFI V0 load(1, XDATA, add(CFA_XSP16, literal(-14)))
          CFI V1 load(1, XDATA, add(CFA_XSP16, literal(-13)))
          CFI V2 load(1, XDATA, add(CFA_XSP16, literal(-12)))
          CFI V3 load(1, XDATA, add(CFA_XSP16, literal(-11)))
          CFI V4 load(1, XDATA, add(CFA_XSP16, literal(-10)))
          CFI V5 load(1, XDATA, add(CFA_XSP16, literal(-9)))
          CFI V6 load(1, XDATA, add(CFA_XSP16, literal(-8)))
          CFI V7 load(1, XDATA, add(CFA_XSP16, literal(-7)))
          CFI R7 load(1, XDATA, add(CFA_XSP16, literal(-6)))
          CFI ?RET_LOW load(1, XDATA, add(CFA_XSP16, literal(-5)))
          CFI ?RET_HIGH load(1, XDATA, add(CFA_XSP16, literal(-4)))
          CFI ?BRET_EXT load(1, XDATA, add(CFA_XSP16, literal(-3)))
          CFI DPL0 load(1, XDATA, add(CFA_XSP16, literal(-2)))
          CFI DPH0 load(1, XDATA, add(CFA_XSP16, literal(-1)))
          CFI CFA_SP SP+-2
          CFI CFA_XSP16 add(XSP16, 177)
          CFI Block cfiCond158 Using cfiCommon0
          CFI (cfiCond158) Function SampleApp_ProcessEvent
          CFI (cfiCond158) Conditional ??CrossCallReturnLabel_92
          CFI (cfiCond158) R6 load(1, XDATA, add(CFA_XSP16, literal(-16)))
          CFI (cfiCond158) VB load(1, XDATA, add(CFA_XSP16, literal(-15)))
          CFI (cfiCond158) V0 load(1, XDATA, add(CFA_XSP16, literal(-14)))
          CFI (cfiCond158) V1 load(1, XDATA, add(CFA_XSP16, literal(-13)))
          CFI (cfiCond158) V2 load(1, XDATA, add(CFA_XSP16, literal(-12)))
          CFI (cfiCond158) V3 load(1, XDATA, add(CFA_XSP16, literal(-11)))
          CFI (cfiCond158) V4 load(1, XDATA, add(CFA_XSP16, literal(-10)))
          CFI (cfiCond158) V5 load(1, XDATA, add(CFA_XSP16, literal(-9)))
          CFI (cfiCond158) V6 load(1, XDATA, add(CFA_XSP16, literal(-8)))
          CFI (cfiCond158) V7 load(1, XDATA, add(CFA_XSP16, literal(-7)))
          CFI (cfiCond158) R7 load(1, XDATA, add(CFA_XSP16, literal(-6)))
          CFI (cfiCond158) ?RET_LOW load(1, XDATA, add(CFA_XSP16, literal(-5)))
          CFI (cfiCond158) ?RET_HIGH load(1, XDATA, add(CFA_XSP16, literal(-4)))
          CFI (cfiCond158) ?BRET_EXT load(1, XDATA, add(CFA_XSP16, literal(-3)))
          CFI (cfiCond158) DPL0 load(1, XDATA, add(CFA_XSP16, literal(-2)))
          CFI (cfiCond158) DPH0 load(1, XDATA, add(CFA_XSP16, literal(-1)))
          CFI (cfiCond158) CFA_SP SP+-2
          CFI (cfiCond158) CFA_XSP16 add(XSP16, 177)
          CFI Block cfiCond159 Using cfiCommon0
          CFI (cfiCond159) Function SampleApp_ProcessEvent
          CFI (cfiCond159) Conditional ??CrossCallReturnLabel_83
          CFI (cfiCond159) R6 load(1, XDATA, add(CFA_XSP16, literal(-16)))
          CFI (cfiCond159) VB load(1, XDATA, add(CFA_XSP16, literal(-15)))
          CFI (cfiCond159) V0 load(1, XDATA, add(CFA_XSP16, literal(-14)))
          CFI (cfiCond159) V1 load(1, XDATA, add(CFA_XSP16, literal(-13)))
          CFI (cfiCond159) V2 load(1, XDATA, add(CFA_XSP16, literal(-12)))
          CFI (cfiCond159) V3 load(1, XDATA, add(CFA_XSP16, literal(-11)))
          CFI (cfiCond159) V4 load(1, XDATA, add(CFA_XSP16, literal(-10)))
          CFI (cfiCond159) V5 load(1, XDATA, add(CFA_XSP16, literal(-9)))
          CFI (cfiCond159) V6 load(1, XDATA, add(CFA_XSP16, literal(-8)))
          CFI (cfiCond159) V7 load(1, XDATA, add(CFA_XSP16, literal(-7)))
          CFI (cfiCond159) R7 load(1, XDATA, add(CFA_XSP16, literal(-6)))
          CFI (cfiCond159) ?RET_LOW load(1, XDATA, add(CFA_XSP16, literal(-5)))
          CFI (cfiCond159) ?RET_HIGH load(1, XDATA, add(CFA_XSP16, literal(-4)))
          CFI (cfiCond159) ?BRET_EXT load(1, XDATA, add(CFA_XSP16, literal(-3)))
          CFI (cfiCond159) DPL0 load(1, XDATA, add(CFA_XSP16, literal(-2)))
          CFI (cfiCond159) DPH0 load(1, XDATA, add(CFA_XSP16, literal(-1)))
          CFI (cfiCond159) CFA_SP SP+-2
          CFI (cfiCond159) CFA_XSP16 add(XSP16, 177)
          CFI Block cfiCond160 Using cfiCommon0
          CFI (cfiCond160) Function SampleApp_ProcessEvent
          CFI (cfiCond160) Conditional ??CrossCallReturnLabel_84
          CFI (cfiCond160) R6 load(1, XDATA, add(CFA_XSP16, literal(-16)))
          CFI (cfiCond160) VB load(1, XDATA, add(CFA_XSP16, literal(-15)))
          CFI (cfiCond160) V0 load(1, XDATA, add(CFA_XSP16, literal(-14)))
          CFI (cfiCond160) V1 load(1, XDATA, add(CFA_XSP16, literal(-13)))
          CFI (cfiCond160) V2 load(1, XDATA, add(CFA_XSP16, literal(-12)))
          CFI (cfiCond160) V3 load(1, XDATA, add(CFA_XSP16, literal(-11)))
          CFI (cfiCond160) V4 load(1, XDATA, add(CFA_XSP16, literal(-10)))
          CFI (cfiCond160) V5 load(1, XDATA, add(CFA_XSP16, literal(-9)))
          CFI (cfiCond160) V6 load(1, XDATA, add(CFA_XSP16, literal(-8)))
          CFI (cfiCond160) V7 load(1, XDATA, add(CFA_XSP16, literal(-7)))
          CFI (cfiCond160) R7 load(1, XDATA, add(CFA_XSP16, literal(-6)))
          CFI (cfiCond160) ?RET_LOW load(1, XDATA, add(CFA_XSP16, literal(-5)))
          CFI (cfiCond160) ?RET_HIGH load(1, XDATA, add(CFA_XSP16, literal(-4)))
          CFI (cfiCond160) ?BRET_EXT load(1, XDATA, add(CFA_XSP16, literal(-3)))
          CFI (cfiCond160) DPL0 load(1, XDATA, add(CFA_XSP16, literal(-2)))
          CFI (cfiCond160) DPH0 load(1, XDATA, add(CFA_XSP16, literal(-1)))
          CFI (cfiCond160) CFA_SP SP+-2
          CFI (cfiCond160) CFA_XSP16 add(XSP16, 177)
          CFI Block cfiCond161 Using cfiCommon0
          CFI (cfiCond161) Function SampleApp_ProcessEvent
          CFI (cfiCond161) Conditional ??CrossCallReturnLabel_85
          CFI (cfiCond161) R6 load(1, XDATA, add(CFA_XSP16, literal(-16)))
          CFI (cfiCond161) VB load(1, XDATA, add(CFA_XSP16, literal(-15)))
          CFI (cfiCond161) V0 load(1, XDATA, add(CFA_XSP16, literal(-14)))
          CFI (cfiCond161) V1 load(1, XDATA, add(CFA_XSP16, literal(-13)))
          CFI (cfiCond161) V2 load(1, XDATA, add(CFA_XSP16, literal(-12)))
          CFI (cfiCond161) V3 load(1, XDATA, add(CFA_XSP16, literal(-11)))
          CFI (cfiCond161) V4 load(1, XDATA, add(CFA_XSP16, literal(-10)))
          CFI (cfiCond161) V5 load(1, XDATA, add(CFA_XSP16, literal(-9)))
          CFI (cfiCond161) V6 load(1, XDATA, add(CFA_XSP16, literal(-8)))
          CFI (cfiCond161) V7 load(1, XDATA, add(CFA_XSP16, literal(-7)))
          CFI (cfiCond161) R7 load(1, XDATA, add(CFA_XSP16, literal(-6)))
          CFI (cfiCond161) ?RET_LOW load(1, XDATA, add(CFA_XSP16, literal(-5)))
          CFI (cfiCond161) ?RET_HIGH load(1, XDATA, add(CFA_XSP16, literal(-4)))
          CFI (cfiCond161) ?BRET_EXT load(1, XDATA, add(CFA_XSP16, literal(-3)))
          CFI (cfiCond161) DPL0 load(1, XDATA, add(CFA_XSP16, literal(-2)))
          CFI (cfiCond161) DPH0 load(1, XDATA, add(CFA_XSP16, literal(-1)))
          CFI (cfiCond161) CFA_SP SP+-2
          CFI (cfiCond161) CFA_XSP16 add(XSP16, 177)
          CFI Block cfiCond162 Using cfiCommon0
          CFI (cfiCond162) Function SampleApp_ProcessEvent
          CFI (cfiCond162) Conditional ??CrossCallReturnLabel_86
          CFI (cfiCond162) R6 load(1, XDATA, add(CFA_XSP16, literal(-16)))
          CFI (cfiCond162) VB load(1, XDATA, add(CFA_XSP16, literal(-15)))
          CFI (cfiCond162) V0 load(1, XDATA, add(CFA_XSP16, literal(-14)))
          CFI (cfiCond162) V1 load(1, XDATA, add(CFA_XSP16, literal(-13)))
          CFI (cfiCond162) V2 load(1, XDATA, add(CFA_XSP16, literal(-12)))
          CFI (cfiCond162) V3 load(1, XDATA, add(CFA_XSP16, literal(-11)))
          CFI (cfiCond162) V4 load(1, XDATA, add(CFA_XSP16, literal(-10)))
          CFI (cfiCond162) V5 load(1, XDATA, add(CFA_XSP16, literal(-9)))
          CFI (cfiCond162) V6 load(1, XDATA, add(CFA_XSP16, literal(-8)))
          CFI (cfiCond162) V7 load(1, XDATA, add(CFA_XSP16, literal(-7)))
          CFI (cfiCond162) R7 load(1, XDATA, add(CFA_XSP16, literal(-6)))
          CFI (cfiCond162) ?RET_LOW load(1, XDATA, add(CFA_XSP16, literal(-5)))
          CFI (cfiCond162) ?RET_HIGH load(1, XDATA, add(CFA_XSP16, literal(-4)))
          CFI (cfiCond162) ?BRET_EXT load(1, XDATA, add(CFA_XSP16, literal(-3)))
          CFI (cfiCond162) DPL0 load(1, XDATA, add(CFA_XSP16, literal(-2)))
          CFI (cfiCond162) DPH0 load(1, XDATA, add(CFA_XSP16, literal(-1)))
          CFI (cfiCond162) CFA_SP SP+-2
          CFI (cfiCond162) CFA_XSP16 add(XSP16, 177)
          CFI Block cfiCond163 Using cfiCommon0
          CFI (cfiCond163) Function SampleApp_ProcessEvent
          CFI (cfiCond163) Conditional ??CrossCallReturnLabel_87
          CFI (cfiCond163) R6 load(1, XDATA, add(CFA_XSP16, literal(-16)))
          CFI (cfiCond163) VB load(1, XDATA, add(CFA_XSP16, literal(-15)))
          CFI (cfiCond163) V0 load(1, XDATA, add(CFA_XSP16, literal(-14)))
          CFI (cfiCond163) V1 load(1, XDATA, add(CFA_XSP16, literal(-13)))
          CFI (cfiCond163) V2 load(1, XDATA, add(CFA_XSP16, literal(-12)))
          CFI (cfiCond163) V3 load(1, XDATA, add(CFA_XSP16, literal(-11)))
          CFI (cfiCond163) V4 load(1, XDATA, add(CFA_XSP16, literal(-10)))
          CFI (cfiCond163) V5 load(1, XDATA, add(CFA_XSP16, literal(-9)))
          CFI (cfiCond163) V6 load(1, XDATA, add(CFA_XSP16, literal(-8)))
          CFI (cfiCond163) V7 load(1, XDATA, add(CFA_XSP16, literal(-7)))
          CFI (cfiCond163) R7 load(1, XDATA, add(CFA_XSP16, literal(-6)))
          CFI (cfiCond163) ?RET_LOW load(1, XDATA, add(CFA_XSP16, literal(-5)))
          CFI (cfiCond163) ?RET_HIGH load(1, XDATA, add(CFA_XSP16, literal(-4)))
          CFI (cfiCond163) ?BRET_EXT load(1, XDATA, add(CFA_XSP16, literal(-3)))
          CFI (cfiCond163) DPL0 load(1, XDATA, add(CFA_XSP16, literal(-2)))
          CFI (cfiCond163) DPH0 load(1, XDATA, add(CFA_XSP16, literal(-1)))
          CFI (cfiCond163) CFA_SP SP+-2
          CFI (cfiCond163) CFA_XSP16 add(XSP16, 177)
          CFI Block cfiCond164 Using cfiCommon0
          CFI (cfiCond164) Function SampleApp_ProcessEvent
          CFI (cfiCond164) Conditional ??CrossCallReturnLabel_88
          CFI (cfiCond164) R6 load(1, XDATA, add(CFA_XSP16, literal(-16)))
          CFI (cfiCond164) VB load(1, XDATA, add(CFA_XSP16, literal(-15)))
          CFI (cfiCond164) V0 load(1, XDATA, add(CFA_XSP16, literal(-14)))
          CFI (cfiCond164) V1 load(1, XDATA, add(CFA_XSP16, literal(-13)))
          CFI (cfiCond164) V2 load(1, XDATA, add(CFA_XSP16, literal(-12)))
          CFI (cfiCond164) V3 load(1, XDATA, add(CFA_XSP16, literal(-11)))
          CFI (cfiCond164) V4 load(1, XDATA, add(CFA_XSP16, literal(-10)))
          CFI (cfiCond164) V5 load(1, XDATA, add(CFA_XSP16, literal(-9)))
          CFI (cfiCond164) V6 load(1, XDATA, add(CFA_XSP16, literal(-8)))
          CFI (cfiCond164) V7 load(1, XDATA, add(CFA_XSP16, literal(-7)))
          CFI (cfiCond164) R7 load(1, XDATA, add(CFA_XSP16, literal(-6)))
          CFI (cfiCond164) ?RET_LOW load(1, XDATA, add(CFA_XSP16, literal(-5)))
          CFI (cfiCond164) ?RET_HIGH load(1, XDATA, add(CFA_XSP16, literal(-4)))
          CFI (cfiCond164) ?BRET_EXT load(1, XDATA, add(CFA_XSP16, literal(-3)))
          CFI (cfiCond164) DPL0 load(1, XDATA, add(CFA_XSP16, literal(-2)))
          CFI (cfiCond164) DPH0 load(1, XDATA, add(CFA_XSP16, literal(-1)))
          CFI (cfiCond164) CFA_SP SP+-2
          CFI (cfiCond164) CFA_XSP16 add(XSP16, 177)
          CFI Block cfiCond165 Using cfiCommon0
          CFI (cfiCond165) Function SampleApp_ProcessEvent
          CFI (cfiCond165) Conditional ??CrossCallReturnLabel_89
          CFI (cfiCond165) R6 load(1, XDATA, add(CFA_XSP16, literal(-16)))
          CFI (cfiCond165) VB load(1, XDATA, add(CFA_XSP16, literal(-15)))
          CFI (cfiCond165) V0 load(1, XDATA, add(CFA_XSP16, literal(-14)))
          CFI (cfiCond165) V1 load(1, XDATA, add(CFA_XSP16, literal(-13)))
          CFI (cfiCond165) V2 load(1, XDATA, add(CFA_XSP16, literal(-12)))
          CFI (cfiCond165) V3 load(1, XDATA, add(CFA_XSP16, literal(-11)))
          CFI (cfiCond165) V4 load(1, XDATA, add(CFA_XSP16, literal(-10)))
          CFI (cfiCond165) V5 load(1, XDATA, add(CFA_XSP16, literal(-9)))
          CFI (cfiCond165) V6 load(1, XDATA, add(CFA_XSP16, literal(-8)))
          CFI (cfiCond165) V7 load(1, XDATA, add(CFA_XSP16, literal(-7)))
          CFI (cfiCond165) R7 load(1, XDATA, add(CFA_XSP16, literal(-6)))
          CFI (cfiCond165) ?RET_LOW load(1, XDATA, add(CFA_XSP16, literal(-5)))
          CFI (cfiCond165) ?RET_HIGH load(1, XDATA, add(CFA_XSP16, literal(-4)))
          CFI (cfiCond165) ?BRET_EXT load(1, XDATA, add(CFA_XSP16, literal(-3)))
          CFI (cfiCond165) DPL0 load(1, XDATA, add(CFA_XSP16, literal(-2)))
          CFI (cfiCond165) DPH0 load(1, XDATA, add(CFA_XSP16, literal(-1)))
          CFI (cfiCond165) CFA_SP SP+-2
          CFI (cfiCond165) CFA_XSP16 add(XSP16, 177)
          CFI Block cfiCond166 Using cfiCommon0
          CFI (cfiCond166) Function SampleApp_ProcessEvent
          CFI (cfiCond166) Conditional ??CrossCallReturnLabel_90
          CFI (cfiCond166) R6 load(1, XDATA, add(CFA_XSP16, literal(-16)))
          CFI (cfiCond166) VB load(1, XDATA, add(CFA_XSP16, literal(-15)))
          CFI (cfiCond166) V0 load(1, XDATA, add(CFA_XSP16, literal(-14)))
          CFI (cfiCond166) V1 load(1, XDATA, add(CFA_XSP16, literal(-13)))
          CFI (cfiCond166) V2 load(1, XDATA, add(CFA_XSP16, literal(-12)))
          CFI (cfiCond166) V3 load(1, XDATA, add(CFA_XSP16, literal(-11)))
          CFI (cfiCond166) V4 load(1, XDATA, add(CFA_XSP16, literal(-10)))
          CFI (cfiCond166) V5 load(1, XDATA, add(CFA_XSP16, literal(-9)))
          CFI (cfiCond166) V6 load(1, XDATA, add(CFA_XSP16, literal(-8)))
          CFI (cfiCond166) V7 load(1, XDATA, add(CFA_XSP16, literal(-7)))
          CFI (cfiCond166) R7 load(1, XDATA, add(CFA_XSP16, literal(-6)))
          CFI (cfiCond166) ?RET_LOW load(1, XDATA, add(CFA_XSP16, literal(-5)))
          CFI (cfiCond166) ?RET_HIGH load(1, XDATA, add(CFA_XSP16, literal(-4)))
          CFI (cfiCond166) ?BRET_EXT load(1, XDATA, add(CFA_XSP16, literal(-3)))
          CFI (cfiCond166) DPL0 load(1, XDATA, add(CFA_XSP16, literal(-2)))
          CFI (cfiCond166) DPH0 load(1, XDATA, add(CFA_XSP16, literal(-1)))
          CFI (cfiCond166) CFA_SP SP+-2
          CFI (cfiCond166) CFA_XSP16 add(XSP16, 177)
          CFI Block cfiPicker167 Using cfiCommon1
          CFI (cfiPicker167) NoFunction
          CFI (cfiPicker167) Picker
        MOV       R2,#`?<Constant "OK\\r\\n">` & 0xff
        MOV       R3,#(`?<Constant "OK\\r\\n">` >> 8) & 0xff
          CFI EndBlock cfiCond157
          CFI EndBlock cfiCond158
          CFI EndBlock cfiCond159
          CFI EndBlock cfiCond160
          CFI EndBlock cfiCond161
          CFI EndBlock cfiCond162
          CFI EndBlock cfiCond163
          CFI EndBlock cfiCond164
          CFI EndBlock cfiCond165
          CFI EndBlock cfiCond166
          CFI EndBlock cfiPicker167
        REQUIRE ??Subroutine35_0
        ; // Fall through to label ??Subroutine35_0

        RSEG BANKED_CODE:HUGECODE:NOROOT(0)
??Subroutine35_0:
          CFI Block cfiCond168 Using cfiCommon0
          CFI Function SampleApp_ProcessEvent
          CFI Conditional ??CrossCallReturnLabel_93
          CFI R6 load(1, XDATA, add(CFA_XSP16, literal(-16)))
          CFI VB load(1, XDATA, add(CFA_XSP16, literal(-15)))
          CFI V0 load(1, XDATA, add(CFA_XSP16, literal(-14)))
          CFI V1 load(1, XDATA, add(CFA_XSP16, literal(-13)))
          CFI V2 load(1, XDATA, add(CFA_XSP16, literal(-12)))
          CFI V3 load(1, XDATA, add(CFA_XSP16, literal(-11)))
          CFI V4 load(1, XDATA, add(CFA_XSP16, literal(-10)))
          CFI V5 load(1, XDATA, add(CFA_XSP16, literal(-9)))
          CFI V6 load(1, XDATA, add(CFA_XSP16, literal(-8)))
          CFI V7 load(1, XDATA, add(CFA_XSP16, literal(-7)))
          CFI R7 load(1, XDATA, add(CFA_XSP16, literal(-6)))
          CFI ?RET_LOW load(1, XDATA, add(CFA_XSP16, literal(-5)))
          CFI ?RET_HIGH load(1, XDATA, add(CFA_XSP16, literal(-4)))
          CFI ?BRET_EXT load(1, XDATA, add(CFA_XSP16, literal(-3)))
          CFI DPL0 load(1, XDATA, add(CFA_XSP16, literal(-2)))
          CFI DPH0 load(1, XDATA, add(CFA_XSP16, literal(-1)))
          CFI CFA_SP SP+-2
          CFI CFA_XSP16 add(XSP16, 177)
          CFI Block cfiCond169 Using cfiCommon0
          CFI (cfiCond169) Function SampleApp_ProcessEvent
          CFI (cfiCond169) Conditional ??CrossCallReturnLabel_94
          CFI (cfiCond169) R6 load(1, XDATA, add(CFA_XSP16, literal(-16)))
          CFI (cfiCond169) VB load(1, XDATA, add(CFA_XSP16, literal(-15)))
          CFI (cfiCond169) V0 load(1, XDATA, add(CFA_XSP16, literal(-14)))
          CFI (cfiCond169) V1 load(1, XDATA, add(CFA_XSP16, literal(-13)))
          CFI (cfiCond169) V2 load(1, XDATA, add(CFA_XSP16, literal(-12)))
          CFI (cfiCond169) V3 load(1, XDATA, add(CFA_XSP16, literal(-11)))
          CFI (cfiCond169) V4 load(1, XDATA, add(CFA_XSP16, literal(-10)))
          CFI (cfiCond169) V5 load(1, XDATA, add(CFA_XSP16, literal(-9)))
          CFI (cfiCond169) V6 load(1, XDATA, add(CFA_XSP16, literal(-8)))
          CFI (cfiCond169) V7 load(1, XDATA, add(CFA_XSP16, literal(-7)))
          CFI (cfiCond169) R7 load(1, XDATA, add(CFA_XSP16, literal(-6)))
          CFI (cfiCond169) ?RET_LOW load(1, XDATA, add(CFA_XSP16, literal(-5)))
          CFI (cfiCond169) ?RET_HIGH load(1, XDATA, add(CFA_XSP16, literal(-4)))
          CFI (cfiCond169) ?BRET_EXT load(1, XDATA, add(CFA_XSP16, literal(-3)))
          CFI (cfiCond169) DPL0 load(1, XDATA, add(CFA_XSP16, literal(-2)))
          CFI (cfiCond169) DPH0 load(1, XDATA, add(CFA_XSP16, literal(-1)))
          CFI (cfiCond169) CFA_SP SP+-2
          CFI (cfiCond169) CFA_XSP16 add(XSP16, 177)
          CFI Block cfiCond170 Using cfiCommon0
          CFI (cfiCond170) Function SampleApp_ProcessEvent
          CFI (cfiCond170) Conditional ??CrossCallReturnLabel_95
          CFI (cfiCond170) R6 load(1, XDATA, add(CFA_XSP16, literal(-16)))
          CFI (cfiCond170) VB load(1, XDATA, add(CFA_XSP16, literal(-15)))
          CFI (cfiCond170) V0 load(1, XDATA, add(CFA_XSP16, literal(-14)))
          CFI (cfiCond170) V1 load(1, XDATA, add(CFA_XSP16, literal(-13)))
          CFI (cfiCond170) V2 load(1, XDATA, add(CFA_XSP16, literal(-12)))
          CFI (cfiCond170) V3 load(1, XDATA, add(CFA_XSP16, literal(-11)))
          CFI (cfiCond170) V4 load(1, XDATA, add(CFA_XSP16, literal(-10)))
          CFI (cfiCond170) V5 load(1, XDATA, add(CFA_XSP16, literal(-9)))
          CFI (cfiCond170) V6 load(1, XDATA, add(CFA_XSP16, literal(-8)))
          CFI (cfiCond170) V7 load(1, XDATA, add(CFA_XSP16, literal(-7)))
          CFI (cfiCond170) R7 load(1, XDATA, add(CFA_XSP16, literal(-6)))
          CFI (cfiCond170) ?RET_LOW load(1, XDATA, add(CFA_XSP16, literal(-5)))
          CFI (cfiCond170) ?RET_HIGH load(1, XDATA, add(CFA_XSP16, literal(-4)))
          CFI (cfiCond170) ?BRET_EXT load(1, XDATA, add(CFA_XSP16, literal(-3)))
          CFI (cfiCond170) DPL0 load(1, XDATA, add(CFA_XSP16, literal(-2)))
          CFI (cfiCond170) DPH0 load(1, XDATA, add(CFA_XSP16, literal(-1)))
          CFI (cfiCond170) CFA_SP SP+-2
          CFI (cfiCond170) CFA_XSP16 add(XSP16, 177)
          CFI Block cfiCond171 Using cfiCommon0
          CFI (cfiCond171) Function SampleApp_ProcessEvent
          CFI (cfiCond171) Conditional ??CrossCallReturnLabel_96
          CFI (cfiCond171) R6 load(1, XDATA, add(CFA_XSP16, literal(-16)))
          CFI (cfiCond171) VB load(1, XDATA, add(CFA_XSP16, literal(-15)))
          CFI (cfiCond171) V0 load(1, XDATA, add(CFA_XSP16, literal(-14)))
          CFI (cfiCond171) V1 load(1, XDATA, add(CFA_XSP16, literal(-13)))
          CFI (cfiCond171) V2 load(1, XDATA, add(CFA_XSP16, literal(-12)))
          CFI (cfiCond171) V3 load(1, XDATA, add(CFA_XSP16, literal(-11)))
          CFI (cfiCond171) V4 load(1, XDATA, add(CFA_XSP16, literal(-10)))
          CFI (cfiCond171) V5 load(1, XDATA, add(CFA_XSP16, literal(-9)))
          CFI (cfiCond171) V6 load(1, XDATA, add(CFA_XSP16, literal(-8)))
          CFI (cfiCond171) V7 load(1, XDATA, add(CFA_XSP16, literal(-7)))
          CFI (cfiCond171) R7 load(1, XDATA, add(CFA_XSP16, literal(-6)))
          CFI (cfiCond171) ?RET_LOW load(1, XDATA, add(CFA_XSP16, literal(-5)))
          CFI (cfiCond171) ?RET_HIGH load(1, XDATA, add(CFA_XSP16, literal(-4)))
          CFI (cfiCond171) ?BRET_EXT load(1, XDATA, add(CFA_XSP16, literal(-3)))
          CFI (cfiCond171) DPL0 load(1, XDATA, add(CFA_XSP16, literal(-2)))
          CFI (cfiCond171) DPH0 load(1, XDATA, add(CFA_XSP16, literal(-1)))
          CFI (cfiCond171) CFA_SP SP+-2
          CFI (cfiCond171) CFA_XSP16 add(XSP16, 177)
          CFI Block cfiCond172 Using cfiCommon0
          CFI (cfiCond172) Function SampleApp_ProcessEvent
          CFI (cfiCond172) Conditional ??CrossCallReturnLabel_97
          CFI (cfiCond172) R6 load(1, XDATA, add(CFA_XSP16, literal(-16)))
          CFI (cfiCond172) VB load(1, XDATA, add(CFA_XSP16, literal(-15)))
          CFI (cfiCond172) V0 load(1, XDATA, add(CFA_XSP16, literal(-14)))
          CFI (cfiCond172) V1 load(1, XDATA, add(CFA_XSP16, literal(-13)))
          CFI (cfiCond172) V2 load(1, XDATA, add(CFA_XSP16, literal(-12)))
          CFI (cfiCond172) V3 load(1, XDATA, add(CFA_XSP16, literal(-11)))
          CFI (cfiCond172) V4 load(1, XDATA, add(CFA_XSP16, literal(-10)))
          CFI (cfiCond172) V5 load(1, XDATA, add(CFA_XSP16, literal(-9)))
          CFI (cfiCond172) V6 load(1, XDATA, add(CFA_XSP16, literal(-8)))
          CFI (cfiCond172) V7 load(1, XDATA, add(CFA_XSP16, literal(-7)))
          CFI (cfiCond172) R7 load(1, XDATA, add(CFA_XSP16, literal(-6)))
          CFI (cfiCond172) ?RET_LOW load(1, XDATA, add(CFA_XSP16, literal(-5)))
          CFI (cfiCond172) ?RET_HIGH load(1, XDATA, add(CFA_XSP16, literal(-4)))
          CFI (cfiCond172) ?BRET_EXT load(1, XDATA, add(CFA_XSP16, literal(-3)))
          CFI (cfiCond172) DPL0 load(1, XDATA, add(CFA_XSP16, literal(-2)))
          CFI (cfiCond172) DPH0 load(1, XDATA, add(CFA_XSP16, literal(-1)))
          CFI (cfiCond172) CFA_SP SP+-2
          CFI (cfiCond172) CFA_XSP16 add(XSP16, 177)
          CFI Block cfiCond173 Using cfiCommon0
          CFI (cfiCond173) Function WiFiSend
          CFI (cfiCond173) Conditional ??CrossCallReturnLabel_98
          CFI (cfiCond173) R6 load(1, XDATA, add(CFA_XSP16, literal(-12)))
          CFI (cfiCond173) VB load(1, XDATA, add(CFA_XSP16, literal(-11)))
          CFI (cfiCond173) V0 load(1, XDATA, add(CFA_XSP16, literal(-10)))
          CFI (cfiCond173) V1 load(1, XDATA, add(CFA_XSP16, literal(-9)))
          CFI (cfiCond173) V2 load(1, XDATA, add(CFA_XSP16, literal(-8)))
          CFI (cfiCond173) V3 load(1, XDATA, add(CFA_XSP16, literal(-7)))
          CFI (cfiCond173) R7 load(1, XDATA, add(CFA_XSP16, literal(-6)))
          CFI (cfiCond173) ?RET_LOW load(1, XDATA, add(CFA_XSP16, literal(-5)))
          CFI (cfiCond173) ?RET_HIGH load(1, XDATA, add(CFA_XSP16, literal(-4)))
          CFI (cfiCond173) ?BRET_EXT load(1, XDATA, add(CFA_XSP16, literal(-3)))
          CFI (cfiCond173) DPL0 load(1, XDATA, add(CFA_XSP16, literal(-2)))
          CFI (cfiCond173) DPH0 load(1, XDATA, add(CFA_XSP16, literal(-1)))
          CFI (cfiCond173) CFA_SP SP+-2
          CFI (cfiCond173) CFA_XSP16 add(XSP16, 80)
          CFI Block cfiCond174 Using cfiCommon0
          CFI (cfiCond174) Function SampleApp_ProcessEvent
          CFI (cfiCond174) Conditional ??CrossCallReturnLabel_91
          CFI (cfiCond174) R6 load(1, XDATA, add(CFA_XSP16, literal(-16)))
          CFI (cfiCond174) VB load(1, XDATA, add(CFA_XSP16, literal(-15)))
          CFI (cfiCond174) V0 load(1, XDATA, add(CFA_XSP16, literal(-14)))
          CFI (cfiCond174) V1 load(1, XDATA, add(CFA_XSP16, literal(-13)))
          CFI (cfiCond174) V2 load(1, XDATA, add(CFA_XSP16, literal(-12)))
          CFI (cfiCond174) V3 load(1, XDATA, add(CFA_XSP16, literal(-11)))
          CFI (cfiCond174) V4 load(1, XDATA, add(CFA_XSP16, literal(-10)))
          CFI (cfiCond174) V5 load(1, XDATA, add(CFA_XSP16, literal(-9)))
          CFI (cfiCond174) V6 load(1, XDATA, add(CFA_XSP16, literal(-8)))
          CFI (cfiCond174) V7 load(1, XDATA, add(CFA_XSP16, literal(-7)))
          CFI (cfiCond174) R7 load(1, XDATA, add(CFA_XSP16, literal(-6)))
          CFI (cfiCond174) ?RET_LOW load(1, XDATA, add(CFA_XSP16, literal(-5)))
          CFI (cfiCond174) ?RET_HIGH load(1, XDATA, add(CFA_XSP16, literal(-4)))
          CFI (cfiCond174) ?BRET_EXT load(1, XDATA, add(CFA_XSP16, literal(-3)))
          CFI (cfiCond174) DPL0 load(1, XDATA, add(CFA_XSP16, literal(-2)))
          CFI (cfiCond174) DPH0 load(1, XDATA, add(CFA_XSP16, literal(-1)))
          CFI (cfiCond174) CFA_SP SP+-2
          CFI (cfiCond174) CFA_XSP16 add(XSP16, 177)
          CFI Block cfiCond175 Using cfiCommon0
          CFI (cfiCond175) Function SampleApp_ProcessEvent
          CFI (cfiCond175) Conditional ??CrossCallReturnLabel_92
          CFI (cfiCond175) R6 load(1, XDATA, add(CFA_XSP16, literal(-16)))
          CFI (cfiCond175) VB load(1, XDATA, add(CFA_XSP16, literal(-15)))
          CFI (cfiCond175) V0 load(1, XDATA, add(CFA_XSP16, literal(-14)))
          CFI (cfiCond175) V1 load(1, XDATA, add(CFA_XSP16, literal(-13)))
          CFI (cfiCond175) V2 load(1, XDATA, add(CFA_XSP16, literal(-12)))
          CFI (cfiCond175) V3 load(1, XDATA, add(CFA_XSP16, literal(-11)))
          CFI (cfiCond175) V4 load(1, XDATA, add(CFA_XSP16, literal(-10)))
          CFI (cfiCond175) V5 load(1, XDATA, add(CFA_XSP16, literal(-9)))
          CFI (cfiCond175) V6 load(1, XDATA, add(CFA_XSP16, literal(-8)))
          CFI (cfiCond175) V7 load(1, XDATA, add(CFA_XSP16, literal(-7)))
          CFI (cfiCond175) R7 load(1, XDATA, add(CFA_XSP16, literal(-6)))
          CFI (cfiCond175) ?RET_LOW load(1, XDATA, add(CFA_XSP16, literal(-5)))
          CFI (cfiCond175) ?RET_HIGH load(1, XDATA, add(CFA_XSP16, literal(-4)))
          CFI (cfiCond175) ?BRET_EXT load(1, XDATA, add(CFA_XSP16, literal(-3)))
          CFI (cfiCond175) DPL0 load(1, XDATA, add(CFA_XSP16, literal(-2)))
          CFI (cfiCond175) DPH0 load(1, XDATA, add(CFA_XSP16, literal(-1)))
          CFI (cfiCond175) CFA_SP SP+-2
          CFI (cfiCond175) CFA_XSP16 add(XSP16, 177)
          CFI Block cfiCond176 Using cfiCommon0
          CFI (cfiCond176) Function SampleApp_ProcessEvent
          CFI (cfiCond176) Conditional ??CrossCallReturnLabel_83
          CFI (cfiCond176) R6 load(1, XDATA, add(CFA_XSP16, literal(-16)))
          CFI (cfiCond176) VB load(1, XDATA, add(CFA_XSP16, literal(-15)))
          CFI (cfiCond176) V0 load(1, XDATA, add(CFA_XSP16, literal(-14)))
          CFI (cfiCond176) V1 load(1, XDATA, add(CFA_XSP16, literal(-13)))
          CFI (cfiCond176) V2 load(1, XDATA, add(CFA_XSP16, literal(-12)))
          CFI (cfiCond176) V3 load(1, XDATA, add(CFA_XSP16, literal(-11)))
          CFI (cfiCond176) V4 load(1, XDATA, add(CFA_XSP16, literal(-10)))
          CFI (cfiCond176) V5 load(1, XDATA, add(CFA_XSP16, literal(-9)))
          CFI (cfiCond176) V6 load(1, XDATA, add(CFA_XSP16, literal(-8)))
          CFI (cfiCond176) V7 load(1, XDATA, add(CFA_XSP16, literal(-7)))
          CFI (cfiCond176) R7 load(1, XDATA, add(CFA_XSP16, literal(-6)))
          CFI (cfiCond176) ?RET_LOW load(1, XDATA, add(CFA_XSP16, literal(-5)))
          CFI (cfiCond176) ?RET_HIGH load(1, XDATA, add(CFA_XSP16, literal(-4)))
          CFI (cfiCond176) ?BRET_EXT load(1, XDATA, add(CFA_XSP16, literal(-3)))
          CFI (cfiCond176) DPL0 load(1, XDATA, add(CFA_XSP16, literal(-2)))
          CFI (cfiCond176) DPH0 load(1, XDATA, add(CFA_XSP16, literal(-1)))
          CFI (cfiCond176) CFA_SP SP+-2
          CFI (cfiCond176) CFA_XSP16 add(XSP16, 177)
          CFI Block cfiCond177 Using cfiCommon0
          CFI (cfiCond177) Function SampleApp_ProcessEvent
          CFI (cfiCond177) Conditional ??CrossCallReturnLabel_84
          CFI (cfiCond177) R6 load(1, XDATA, add(CFA_XSP16, literal(-16)))
          CFI (cfiCond177) VB load(1, XDATA, add(CFA_XSP16, literal(-15)))
          CFI (cfiCond177) V0 load(1, XDATA, add(CFA_XSP16, literal(-14)))
          CFI (cfiCond177) V1 load(1, XDATA, add(CFA_XSP16, literal(-13)))
          CFI (cfiCond177) V2 load(1, XDATA, add(CFA_XSP16, literal(-12)))
          CFI (cfiCond177) V3 load(1, XDATA, add(CFA_XSP16, literal(-11)))
          CFI (cfiCond177) V4 load(1, XDATA, add(CFA_XSP16, literal(-10)))
          CFI (cfiCond177) V5 load(1, XDATA, add(CFA_XSP16, literal(-9)))
          CFI (cfiCond177) V6 load(1, XDATA, add(CFA_XSP16, literal(-8)))
          CFI (cfiCond177) V7 load(1, XDATA, add(CFA_XSP16, literal(-7)))
          CFI (cfiCond177) R7 load(1, XDATA, add(CFA_XSP16, literal(-6)))
          CFI (cfiCond177) ?RET_LOW load(1, XDATA, add(CFA_XSP16, literal(-5)))
          CFI (cfiCond177) ?RET_HIGH load(1, XDATA, add(CFA_XSP16, literal(-4)))
          CFI (cfiCond177) ?BRET_EXT load(1, XDATA, add(CFA_XSP16, literal(-3)))
          CFI (cfiCond177) DPL0 load(1, XDATA, add(CFA_XSP16, literal(-2)))
          CFI (cfiCond177) DPH0 load(1, XDATA, add(CFA_XSP16, literal(-1)))
          CFI (cfiCond177) CFA_SP SP+-2
          CFI (cfiCond177) CFA_XSP16 add(XSP16, 177)
          CFI Block cfiCond178 Using cfiCommon0
          CFI (cfiCond178) Function SampleApp_ProcessEvent
          CFI (cfiCond178) Conditional ??CrossCallReturnLabel_85
          CFI (cfiCond178) R6 load(1, XDATA, add(CFA_XSP16, literal(-16)))
          CFI (cfiCond178) VB load(1, XDATA, add(CFA_XSP16, literal(-15)))
          CFI (cfiCond178) V0 load(1, XDATA, add(CFA_XSP16, literal(-14)))
          CFI (cfiCond178) V1 load(1, XDATA, add(CFA_XSP16, literal(-13)))
          CFI (cfiCond178) V2 load(1, XDATA, add(CFA_XSP16, literal(-12)))
          CFI (cfiCond178) V3 load(1, XDATA, add(CFA_XSP16, literal(-11)))
          CFI (cfiCond178) V4 load(1, XDATA, add(CFA_XSP16, literal(-10)))
          CFI (cfiCond178) V5 load(1, XDATA, add(CFA_XSP16, literal(-9)))
          CFI (cfiCond178) V6 load(1, XDATA, add(CFA_XSP16, literal(-8)))
          CFI (cfiCond178) V7 load(1, XDATA, add(CFA_XSP16, literal(-7)))
          CFI (cfiCond178) R7 load(1, XDATA, add(CFA_XSP16, literal(-6)))
          CFI (cfiCond178) ?RET_LOW load(1, XDATA, add(CFA_XSP16, literal(-5)))
          CFI (cfiCond178) ?RET_HIGH load(1, XDATA, add(CFA_XSP16, literal(-4)))
          CFI (cfiCond178) ?BRET_EXT load(1, XDATA, add(CFA_XSP16, literal(-3)))
          CFI (cfiCond178) DPL0 load(1, XDATA, add(CFA_XSP16, literal(-2)))
          CFI (cfiCond178) DPH0 load(1, XDATA, add(CFA_XSP16, literal(-1)))
          CFI (cfiCond178) CFA_SP SP+-2
          CFI (cfiCond178) CFA_XSP16 add(XSP16, 177)
          CFI Block cfiCond179 Using cfiCommon0
          CFI (cfiCond179) Function SampleApp_ProcessEvent
          CFI (cfiCond179) Conditional ??CrossCallReturnLabel_86
          CFI (cfiCond179) R6 load(1, XDATA, add(CFA_XSP16, literal(-16)))
          CFI (cfiCond179) VB load(1, XDATA, add(CFA_XSP16, literal(-15)))
          CFI (cfiCond179) V0 load(1, XDATA, add(CFA_XSP16, literal(-14)))
          CFI (cfiCond179) V1 load(1, XDATA, add(CFA_XSP16, literal(-13)))
          CFI (cfiCond179) V2 load(1, XDATA, add(CFA_XSP16, literal(-12)))
          CFI (cfiCond179) V3 load(1, XDATA, add(CFA_XSP16, literal(-11)))
          CFI (cfiCond179) V4 load(1, XDATA, add(CFA_XSP16, literal(-10)))
          CFI (cfiCond179) V5 load(1, XDATA, add(CFA_XSP16, literal(-9)))
          CFI (cfiCond179) V6 load(1, XDATA, add(CFA_XSP16, literal(-8)))
          CFI (cfiCond179) V7 load(1, XDATA, add(CFA_XSP16, literal(-7)))
          CFI (cfiCond179) R7 load(1, XDATA, add(CFA_XSP16, literal(-6)))
          CFI (cfiCond179) ?RET_LOW load(1, XDATA, add(CFA_XSP16, literal(-5)))
          CFI (cfiCond179) ?RET_HIGH load(1, XDATA, add(CFA_XSP16, literal(-4)))
          CFI (cfiCond179) ?BRET_EXT load(1, XDATA, add(CFA_XSP16, literal(-3)))
          CFI (cfiCond179) DPL0 load(1, XDATA, add(CFA_XSP16, literal(-2)))
          CFI (cfiCond179) DPH0 load(1, XDATA, add(CFA_XSP16, literal(-1)))
          CFI (cfiCond179) CFA_SP SP+-2
          CFI (cfiCond179) CFA_XSP16 add(XSP16, 177)
          CFI Block cfiCond180 Using cfiCommon0
          CFI (cfiCond180) Function SampleApp_ProcessEvent
          CFI (cfiCond180) Conditional ??CrossCallReturnLabel_87
          CFI (cfiCond180) R6 load(1, XDATA, add(CFA_XSP16, literal(-16)))
          CFI (cfiCond180) VB load(1, XDATA, add(CFA_XSP16, literal(-15)))
          CFI (cfiCond180) V0 load(1, XDATA, add(CFA_XSP16, literal(-14)))
          CFI (cfiCond180) V1 load(1, XDATA, add(CFA_XSP16, literal(-13)))
          CFI (cfiCond180) V2 load(1, XDATA, add(CFA_XSP16, literal(-12)))
          CFI (cfiCond180) V3 load(1, XDATA, add(CFA_XSP16, literal(-11)))
          CFI (cfiCond180) V4 load(1, XDATA, add(CFA_XSP16, literal(-10)))
          CFI (cfiCond180) V5 load(1, XDATA, add(CFA_XSP16, literal(-9)))
          CFI (cfiCond180) V6 load(1, XDATA, add(CFA_XSP16, literal(-8)))
          CFI (cfiCond180) V7 load(1, XDATA, add(CFA_XSP16, literal(-7)))
          CFI (cfiCond180) R7 load(1, XDATA, add(CFA_XSP16, literal(-6)))
          CFI (cfiCond180) ?RET_LOW load(1, XDATA, add(CFA_XSP16, literal(-5)))
          CFI (cfiCond180) ?RET_HIGH load(1, XDATA, add(CFA_XSP16, literal(-4)))
          CFI (cfiCond180) ?BRET_EXT load(1, XDATA, add(CFA_XSP16, literal(-3)))
          CFI (cfiCond180) DPL0 load(1, XDATA, add(CFA_XSP16, literal(-2)))
          CFI (cfiCond180) DPH0 load(1, XDATA, add(CFA_XSP16, literal(-1)))
          CFI (cfiCond180) CFA_SP SP+-2
          CFI (cfiCond180) CFA_XSP16 add(XSP16, 177)
          CFI Block cfiCond181 Using cfiCommon0
          CFI (cfiCond181) Function SampleApp_ProcessEvent
          CFI (cfiCond181) Conditional ??CrossCallReturnLabel_88
          CFI (cfiCond181) R6 load(1, XDATA, add(CFA_XSP16, literal(-16)))
          CFI (cfiCond181) VB load(1, XDATA, add(CFA_XSP16, literal(-15)))
          CFI (cfiCond181) V0 load(1, XDATA, add(CFA_XSP16, literal(-14)))
          CFI (cfiCond181) V1 load(1, XDATA, add(CFA_XSP16, literal(-13)))
          CFI (cfiCond181) V2 load(1, XDATA, add(CFA_XSP16, literal(-12)))
          CFI (cfiCond181) V3 load(1, XDATA, add(CFA_XSP16, literal(-11)))
          CFI (cfiCond181) V4 load(1, XDATA, add(CFA_XSP16, literal(-10)))
          CFI (cfiCond181) V5 load(1, XDATA, add(CFA_XSP16, literal(-9)))
          CFI (cfiCond181) V6 load(1, XDATA, add(CFA_XSP16, literal(-8)))
          CFI (cfiCond181) V7 load(1, XDATA, add(CFA_XSP16, literal(-7)))
          CFI (cfiCond181) R7 load(1, XDATA, add(CFA_XSP16, literal(-6)))
          CFI (cfiCond181) ?RET_LOW load(1, XDATA, add(CFA_XSP16, literal(-5)))
          CFI (cfiCond181) ?RET_HIGH load(1, XDATA, add(CFA_XSP16, literal(-4)))
          CFI (cfiCond181) ?BRET_EXT load(1, XDATA, add(CFA_XSP16, literal(-3)))
          CFI (cfiCond181) DPL0 load(1, XDATA, add(CFA_XSP16, literal(-2)))
          CFI (cfiCond181) DPH0 load(1, XDATA, add(CFA_XSP16, literal(-1)))
          CFI (cfiCond181) CFA_SP SP+-2
          CFI (cfiCond181) CFA_XSP16 add(XSP16, 177)
          CFI Block cfiCond182 Using cfiCommon0
          CFI (cfiCond182) Function SampleApp_ProcessEvent
          CFI (cfiCond182) Conditional ??CrossCallReturnLabel_89
          CFI (cfiCond182) R6 load(1, XDATA, add(CFA_XSP16, literal(-16)))
          CFI (cfiCond182) VB load(1, XDATA, add(CFA_XSP16, literal(-15)))
          CFI (cfiCond182) V0 load(1, XDATA, add(CFA_XSP16, literal(-14)))
          CFI (cfiCond182) V1 load(1, XDATA, add(CFA_XSP16, literal(-13)))
          CFI (cfiCond182) V2 load(1, XDATA, add(CFA_XSP16, literal(-12)))
          CFI (cfiCond182) V3 load(1, XDATA, add(CFA_XSP16, literal(-11)))
          CFI (cfiCond182) V4 load(1, XDATA, add(CFA_XSP16, literal(-10)))
          CFI (cfiCond182) V5 load(1, XDATA, add(CFA_XSP16, literal(-9)))
          CFI (cfiCond182) V6 load(1, XDATA, add(CFA_XSP16, literal(-8)))
          CFI (cfiCond182) V7 load(1, XDATA, add(CFA_XSP16, literal(-7)))
          CFI (cfiCond182) R7 load(1, XDATA, add(CFA_XSP16, literal(-6)))
          CFI (cfiCond182) ?RET_LOW load(1, XDATA, add(CFA_XSP16, literal(-5)))
          CFI (cfiCond182) ?RET_HIGH load(1, XDATA, add(CFA_XSP16, literal(-4)))
          CFI (cfiCond182) ?BRET_EXT load(1, XDATA, add(CFA_XSP16, literal(-3)))
          CFI (cfiCond182) DPL0 load(1, XDATA, add(CFA_XSP16, literal(-2)))
          CFI (cfiCond182) DPH0 load(1, XDATA, add(CFA_XSP16, literal(-1)))
          CFI (cfiCond182) CFA_SP SP+-2
          CFI (cfiCond182) CFA_XSP16 add(XSP16, 177)
          CFI Block cfiCond183 Using cfiCommon0
          CFI (cfiCond183) Function SampleApp_ProcessEvent
          CFI (cfiCond183) Conditional ??CrossCallReturnLabel_90
          CFI (cfiCond183) R6 load(1, XDATA, add(CFA_XSP16, literal(-16)))
          CFI (cfiCond183) VB load(1, XDATA, add(CFA_XSP16, literal(-15)))
          CFI (cfiCond183) V0 load(1, XDATA, add(CFA_XSP16, literal(-14)))
          CFI (cfiCond183) V1 load(1, XDATA, add(CFA_XSP16, literal(-13)))
          CFI (cfiCond183) V2 load(1, XDATA, add(CFA_XSP16, literal(-12)))
          CFI (cfiCond183) V3 load(1, XDATA, add(CFA_XSP16, literal(-11)))
          CFI (cfiCond183) V4 load(1, XDATA, add(CFA_XSP16, literal(-10)))
          CFI (cfiCond183) V5 load(1, XDATA, add(CFA_XSP16, literal(-9)))
          CFI (cfiCond183) V6 load(1, XDATA, add(CFA_XSP16, literal(-8)))
          CFI (cfiCond183) V7 load(1, XDATA, add(CFA_XSP16, literal(-7)))
          CFI (cfiCond183) R7 load(1, XDATA, add(CFA_XSP16, literal(-6)))
          CFI (cfiCond183) ?RET_LOW load(1, XDATA, add(CFA_XSP16, literal(-5)))
          CFI (cfiCond183) ?RET_HIGH load(1, XDATA, add(CFA_XSP16, literal(-4)))
          CFI (cfiCond183) ?BRET_EXT load(1, XDATA, add(CFA_XSP16, literal(-3)))
          CFI (cfiCond183) DPL0 load(1, XDATA, add(CFA_XSP16, literal(-2)))
          CFI (cfiCond183) DPH0 load(1, XDATA, add(CFA_XSP16, literal(-1)))
          CFI (cfiCond183) CFA_SP SP+-2
          CFI (cfiCond183) CFA_XSP16 add(XSP16, 177)
          CFI Block cfiPicker184 Using cfiCommon1
          CFI (cfiPicker184) NoFunction
          CFI (cfiPicker184) Picker
        LCALL     `??wait_for::?relay`; Banked call to: wait_for
        MOV       A,#0x2
        RET
          CFI EndBlock cfiCond168
          CFI EndBlock cfiCond169
          CFI EndBlock cfiCond170
          CFI EndBlock cfiCond171
          CFI EndBlock cfiCond172
          CFI EndBlock cfiCond173
          CFI EndBlock cfiCond174
          CFI EndBlock cfiCond175
          CFI EndBlock cfiCond176
          CFI EndBlock cfiCond177
          CFI EndBlock cfiCond178
          CFI EndBlock cfiCond179
          CFI EndBlock cfiCond180
          CFI EndBlock cfiCond181
          CFI EndBlock cfiCond182
          CFI EndBlock cfiCond183
          CFI EndBlock cfiPicker184
//  856 

        RSEG BANKED_CODE:HUGECODE:NOROOT(0)
//  857 uint16 WiFiRecv(uint8 *buff) {
WiFiRecv:
          CFI Block cfiBlock185 Using cfiCommon0
          CFI Function WiFiRecv
        CODE
        FUNCALL WiFiRecv, _UARTRead
        LOCFRAME ISTACK, 0, STACK
        LOCFRAME PSTACK, 0, STACK
        LOCFRAME XSTACK, 80, STACK
        LOCFRAME IOVERLAY, 0, STATIC
        LOCFRAME DOVERLAY, 0, STATIC
        ARGFRAME ISTACK, 0, STACK
        ARGFRAME PSTACK, 0, STACK
        ARGFRAME XSTACK, 80, STACK
        ARGFRAME IOVERLAY, 0, STATIC
        ARGFRAME DOVERLAY, 0, STATIC
        FUNCALL WiFiRecv, _delay_ms
        LOCFRAME ISTACK, 0, STACK
        LOCFRAME PSTACK, 0, STACK
        LOCFRAME XSTACK, 80, STACK
        LOCFRAME IOVERLAY, 0, STATIC
        LOCFRAME DOVERLAY, 0, STATIC
        ARGFRAME ISTACK, 0, STACK
        ARGFRAME PSTACK, 0, STACK
        ARGFRAME XSTACK, 80, STACK
        ARGFRAME IOVERLAY, 0, STATIC
        ARGFRAME DOVERLAY, 0, STATIC
        FUNCALL WiFiRecv, osal_memcpy
        LOCFRAME ISTACK, 0, STACK
        LOCFRAME PSTACK, 0, STACK
        LOCFRAME XSTACK, 83, STACK
        LOCFRAME IOVERLAY, 0, STATIC
        LOCFRAME DOVERLAY, 0, STATIC
        ARGFRAME ISTACK, 0, STACK
        ARGFRAME PSTACK, 0, STACK
        ARGFRAME XSTACK, 83, STACK
        ARGFRAME IOVERLAY, 0, STATIC
        ARGFRAME DOVERLAY, 0, STATIC
        REQUIRE ?V0
        REQUIRE ?V1
        REQUIRE ?V2
        REQUIRE ?V4
        REQUIRE ?V5
        MOV       A,#-0xe
        LCALL     ?BANKED_ENTER_XDATA
          CFI DPH0 load(1, XDATA, add(CFA_XSP16, literal(-1)))
          CFI DPL0 load(1, XDATA, add(CFA_XSP16, literal(-2)))
          CFI ?BRET_EXT load(1, XDATA, add(CFA_XSP16, literal(-3)))
          CFI ?RET_HIGH load(1, XDATA, add(CFA_XSP16, literal(-4)))
          CFI ?RET_LOW load(1, XDATA, add(CFA_XSP16, literal(-5)))
          CFI R7 load(1, XDATA, add(CFA_XSP16, literal(-6)))
          CFI V5 load(1, XDATA, add(CFA_XSP16, literal(-7)))
          CFI V4 load(1, XDATA, add(CFA_XSP16, literal(-8)))
          CFI V3 load(1, XDATA, add(CFA_XSP16, literal(-9)))
          CFI V2 load(1, XDATA, add(CFA_XSP16, literal(-10)))
          CFI V1 load(1, XDATA, add(CFA_XSP16, literal(-11)))
          CFI V0 load(1, XDATA, add(CFA_XSP16, literal(-12)))
          CFI VB load(1, XDATA, add(CFA_XSP16, literal(-13)))
          CFI R6 load(1, XDATA, add(CFA_XSP16, literal(-14)))
          CFI CFA_SP SP+0
          CFI CFA_XSP16 add(XSP16, 14)
        ; Saved register size: 14
        ; Auto size: 66
        MOV       A,#-0x42
        LCALL     ?ALLOC_XSTACK8
          CFI CFA_XSP16 add(XSP16, 80)
        MOV       ?V4,R2
        MOV       ?V5,R3
//  858 	uint16 read_len, l_index;
//  859 	uint8 buffer[UartDefaultRxLen];
//  860 	while (1) {
//  861 		_UARTRead(HAL_UART_PORT_1, buffer, &read_len);
??WiFiRecv_0:
        ; Setup parameters for call to function _UARTRead
        MOV       R4,?XSP + 0
        MOV       R5,?XSP + 1
        MOV       A,#0x2
        LCALL     ?XSTACK_DISP101_8
        LCALL     ?Subroutine15 & 0xFFFF
//  862 		_delay_ms(1);
//  863 		// at least 11 chars "+IPD,0,X:\r\n"
//  864 		if (read_len > 10 
//  865 			&& buffer[read_len - 2] == '\r' 
//  866 			&& buffer[read_len - 1] == '\n'
//  867 		) {
??CrossCallReturnLabel_12:
        SUBB      A,#0xb
        INC       DPTR
        MOVX      A,@DPTR
        SUBB      A,#0x0
        JC        ??WiFiRecv_0
        MOV       DPL,?XSP + 0
        MOV       DPH,?XSP + 1
        MOV       A,#0x2
        LCALL     ?XSTACK_DISP100_8
        MOV       ?V1,R1
        MOVX      A,@DPTR
        ADD       A,R0
        MOV       R0,A
        INC       DPTR
        MOVX      A,@DPTR
        ADDC      A,?V1
        MOV       R1,A
        MOV       A,R0
        ADD       A,#-0x2
        MOV       DPL,A
        MOV       A,R1
        ADDC      A,#-0x1
        MOV       DPH,A
        MOVX      A,@DPTR
        XRL       A,#0xd
        JNZ       ??WiFiRecv_0
        MOV       A,R0
        ADD       A,#-0x1
        MOV       DPL,A
        MOV       A,R1
        ADDC      A,#-0x1
        MOV       DPH,A
        MOVX      A,@DPTR
        XRL       A,#0xa
        JNZ       ??WiFiRecv_0
//  868 			l_index = 0;
        MOV       R6,#0x0
        MOV       R7,#0x0
        SJMP      ??WiFiRecv_1
//  869 			while (l_index < read_len && buffer[l_index] != ':') {
??WiFiRecv_2:
        MOV       A,#0x2
        LCALL     ?XSTACK_DISP0_8
        MOV       A,DPL
        ADD       A,R6
        MOV       DPL,A
        MOV       A,DPH
        ADDC      A,R7
        MOV       DPH,A
        MOVX      A,@DPTR
        XRL       A,#0x3a
        JZ        ??WiFiRecv_3
//  870 				l_index ++;
        INC       R6
        MOV       A,R6
        JNZ       ??WiFiRecv_1
        INC       R7
//  871 			}
??WiFiRecv_1:
        LCALL     ?Subroutine9 & 0xFFFF
??CrossCallReturnLabel_79:
        CLR       C
        MOV       A,R6
        SUBB      A,R0
        MOV       A,R7
        SUBB      A,R1
        JC        ??WiFiRecv_2
//  872 			if (l_index == read_len) continue;
        MOV       DPL,?XSP + 0
        MOV       DPH,?XSP + 1
        MOVX      A,@DPTR
        XRL       A,R6
        JNZ       ??WiFiRecv_4
        INC       DPTR
        MOVX      A,@DPTR
        XRL       A,R7
??WiFiRecv_4:
        JZ        ??WiFiRecv_0
//  873 			l_index ++;
??WiFiRecv_3:
        INC       R6
        MOV       A,R6
        JNZ       ??WiFiRecv_5
        INC       R7
//  874 			osal_memcpy(buff, buffer + l_index, read_len - l_index);
??WiFiRecv_5:
        ; Setup parameters for call to function osal_memcpy
        MOV       A,#0x2
        LCALL     ?XSTACK_DISP0_8
        MOV       A,DPL
        ADD       A,R6
        MOV       ?V0,A
        MOV       A,DPH
        ADDC      A,R7
        MOV       ?V1,A
        MOV       ?V2,#0x0
        MOV       R0,#?V0
        LCALL     ?PUSH_XSTACK_I_THREE
          CFI CFA_XSP16 add(XSP16, 83)
        MOV       A,#0x3
        LCALL     ?XSTACK_DISP0_8
        MOVX      A,@DPTR
        CLR       C
        SUBB      A,R6
        MOV       R4,A
        INC       DPTR
        MOVX      A,@DPTR
        SUBB      A,R7
        MOV       R5,A
        MOV       R2,?V4
        MOV       R3,?V5
        LCALL     `??osal_memcpy::?relay`; Banked call to: osal_memcpy
        MOV       A,#0x3
        LCALL     ?DEALLOC_XSTACK8
          CFI CFA_XSP16 add(XSP16, 80)
//  875 			return (read_len - l_index);
        MOV       DPL,?XSP + 0
        MOV       DPH,?XSP + 1
        MOVX      A,@DPTR
        CLR       C
        SUBB      A,R6
        MOV       R2,A
        INC       DPTR
        MOVX      A,@DPTR
        SUBB      A,R7
        MOV       R3,A
        MOV       A,#0x42
        LCALL     ?DEALLOC_XSTACK8
          CFI CFA_XSP16 add(XSP16, 14)
        MOV       R7,#0x6
        LJMP      ?BANKED_LEAVE_XDATA
//  876 		}
//  877 	}
//  878 }
          CFI EndBlock cfiBlock185

        RSEG BANKED_CODE:HUGECODE:NOROOT(0)
?Subroutine15:
          CFI Block cfiCond186 Using cfiCommon0
          CFI Function wait_for
          CFI Conditional ??CrossCallReturnLabel_11
          CFI R6 load(1, XDATA, add(CFA_XSP16, literal(-16)))
          CFI VB load(1, XDATA, add(CFA_XSP16, literal(-15)))
          CFI V0 load(1, XDATA, add(CFA_XSP16, literal(-14)))
          CFI V1 load(1, XDATA, add(CFA_XSP16, literal(-13)))
          CFI V2 load(1, XDATA, add(CFA_XSP16, literal(-12)))
          CFI V3 load(1, XDATA, add(CFA_XSP16, literal(-11)))
          CFI V4 load(1, XDATA, add(CFA_XSP16, literal(-10)))
          CFI V5 load(1, XDATA, add(CFA_XSP16, literal(-9)))
          CFI V6 load(1, XDATA, add(CFA_XSP16, literal(-8)))
          CFI V7 load(1, XDATA, add(CFA_XSP16, literal(-7)))
          CFI R7 load(1, XDATA, add(CFA_XSP16, literal(-6)))
          CFI ?RET_LOW load(1, XDATA, add(CFA_XSP16, literal(-5)))
          CFI ?RET_HIGH load(1, XDATA, add(CFA_XSP16, literal(-4)))
          CFI ?BRET_EXT load(1, XDATA, add(CFA_XSP16, literal(-3)))
          CFI DPL0 load(1, XDATA, add(CFA_XSP16, literal(-2)))
          CFI DPH0 load(1, XDATA, add(CFA_XSP16, literal(-1)))
          CFI CFA_SP SP+-2
          CFI CFA_XSP16 add(XSP16, 82)
          CFI Block cfiCond187 Using cfiCommon0
          CFI (cfiCond187) Function WiFiRecv
          CFI (cfiCond187) Conditional ??CrossCallReturnLabel_12
          CFI (cfiCond187) R6 load(1, XDATA, add(CFA_XSP16, literal(-14)))
          CFI (cfiCond187) VB load(1, XDATA, add(CFA_XSP16, literal(-13)))
          CFI (cfiCond187) V0 load(1, XDATA, add(CFA_XSP16, literal(-12)))
          CFI (cfiCond187) V1 load(1, XDATA, add(CFA_XSP16, literal(-11)))
          CFI (cfiCond187) V2 load(1, XDATA, add(CFA_XSP16, literal(-10)))
          CFI (cfiCond187) V3 load(1, XDATA, add(CFA_XSP16, literal(-9)))
          CFI (cfiCond187) V4 load(1, XDATA, add(CFA_XSP16, literal(-8)))
          CFI (cfiCond187) V5 load(1, XDATA, add(CFA_XSP16, literal(-7)))
          CFI (cfiCond187) R7 load(1, XDATA, add(CFA_XSP16, literal(-6)))
          CFI (cfiCond187) ?RET_LOW load(1, XDATA, add(CFA_XSP16, literal(-5)))
          CFI (cfiCond187) ?RET_HIGH load(1, XDATA, add(CFA_XSP16, literal(-4)))
          CFI (cfiCond187) ?BRET_EXT load(1, XDATA, add(CFA_XSP16, literal(-3)))
          CFI (cfiCond187) DPL0 load(1, XDATA, add(CFA_XSP16, literal(-2)))
          CFI (cfiCond187) DPH0 load(1, XDATA, add(CFA_XSP16, literal(-1)))
          CFI (cfiCond187) CFA_SP SP+-2
          CFI (cfiCond187) CFA_XSP16 add(XSP16, 80)
          CFI Block cfiPicker188 Using cfiCommon1
          CFI (cfiPicker188) NoFunction
          CFI (cfiPicker188) Picker
        MOV       R1,#0x1
        LCALL     `??_UARTRead::?relay`; Banked call to: _UARTRead
        ; Setup parameters for call to function _delay_ms
        ; Setup parameters for call to function _delay_ms
        MOV       R2,#0x1
        MOV       R3,#0x0
        LCALL     `??_delay_ms::?relay`; Banked call to: _delay_ms
        MOV       DPL,?XSP + 0
        MOV       DPH,?XSP + 1
        CLR       C
        MOVX      A,@DPTR
        RET
          CFI EndBlock cfiCond186
          CFI EndBlock cfiCond187
          CFI EndBlock cfiPicker188

        RSEG BANK_RELAYS:CODE:REORDER:NOROOT(0)
`??SampleApp_Init::?relay`:
        CODE
        LCALL   ?BDISPATCH
        DATA24
        DC24    SampleApp_Init

        RSEG BANK_RELAYS:CODE:REORDER:NOROOT(0)
`??SampleApp_ProcessEvent::?relay`:
        CODE
        LCALL   ?BDISPATCH
        DATA24
        DC24    SampleApp_ProcessEvent

        RSEG BANK_RELAYS:CODE:REORDER:NOROOT(0)
`??SampleApp_HandleKeys::?relay`:
        CODE
        LCALL   ?BDISPATCH
        DATA24
        DC24    SampleApp_HandleKeys

        RSEG BANK_RELAYS:CODE:REORDER:NOROOT(0)
`??SampleApp_MessageMSGCB::?relay`:
        CODE
        LCALL   ?BDISPATCH
        DATA24
        DC24    SampleApp_MessageMSGCB

        RSEG BANK_RELAYS:CODE:REORDER:NOROOT(0)
`??SampleApp_SendPeriodicMessage::?relay`:
        CODE
        LCALL   ?BDISPATCH
        DATA24
        DC24    SampleApp_SendPeriodicMessage

        RSEG BANK_RELAYS:CODE:REORDER:NOROOT(0)
`??SampleApp_SendFlashMessage::?relay`:
        CODE
        LCALL   ?BDISPATCH
        DATA24
        DC24    SampleApp_SendFlashMessage

        RSEG BANK_RELAYS:CODE:REORDER:NOROOT(0)
`??SampleApp_SendGroupMessage::?relay`:
        CODE
        LCALL   ?BDISPATCH
        DATA24
        DC24    SampleApp_SendGroupMessage

        RSEG BANK_RELAYS:CODE:REORDER:NOROOT(0)
`??_zigbeeSend::?relay`:
        CODE
        LCALL   ?BDISPATCH
        DATA24
        DC24    _zigbeeSend

        RSEG BANK_RELAYS:CODE:REORDER:NOROOT(0)
`??_UARTSend::?relay`:
        CODE
        LCALL   ?BDISPATCH
        DATA24
        DC24    _UARTSend

        RSEG BANK_RELAYS:CODE:REORDER:NOROOT(0)
`??_UARTRead::?relay`:
        CODE
        LCALL   ?BDISPATCH
        DATA24
        DC24    _UARTRead

        RSEG BANK_RELAYS:CODE:REORDER:NOROOT(0)
`??_delay_ms::?relay`:
        CODE
        LCALL   ?BDISPATCH
        DATA24
        DC24    _delay_ms

        RSEG BANK_RELAYS:CODE:REORDER:NOROOT(0)
`??_delay_us::?relay`:
        CODE
        LCALL   ?BDISPATCH
        DATA24
        DC24    _delay_us

        RSEG BANK_RELAYS:CODE:REORDER:NOROOT(0)
`??wait_for::?relay`:
        CODE
        LCALL   ?BDISPATCH
        DATA24
        DC24    wait_for

        RSEG BANK_RELAYS:CODE:REORDER:NOROOT(0)
`??exit_send::?relay`:
        CODE
        LCALL   ?BDISPATCH
        DATA24
        DC24    exit_send

        RSEG BANK_RELAYS:CODE:REORDER:NOROOT(0)
`??WiFiSend::?relay`:
        CODE
        LCALL   ?BDISPATCH
        DATA24
        DC24    WiFiSend

        RSEG BANK_RELAYS:CODE:REORDER:NOROOT(0)
`??WiFiRecv::?relay`:
        CODE
        LCALL   ?BDISPATCH
        DATA24
        DC24    WiFiRecv

        RSEG XDATA_ROM_C:CONST:REORDER:NOROOT(0)
        DATA8
`?<Constant "Group 1">`:
        DB "Group 1"

        RSEG XDATA_ROM_C:CONST:REORDER:NOROOT(0)
        DATA8
`?<Constant "UART_1 INITIALIZED!\\r\\n">`:
        DB "UART_1 INITIALIZED!\015\012"

        RSEG XDATA_ROM_C:CONST:REORDER:NOROOT(0)
        DATA8
`?<Constant "Enter AP Mode\\r\\n">`:
        DB "Enter AP Mode\015\012"

        RSEG XDATA_ROM_C:CONST:REORDER:NOROOT(0)
        DATA8
`?<Constant "Enter STA Mode\\r\\n">`:
        DB "Enter STA Mode\015\012"

        RSEG XDATA_ROM_C:CONST:REORDER:NOROOT(0)
        DATA8
`?<Constant "AT+RST\\r\\n">`:
        DB "AT+RST\015\012"

        RSEG XDATA_ROM_C:CONST:REORDER:NOROOT(0)
        DATA8
`?<Constant "ready\\r\\n">`:
        DB "ready\015\012"

        RSEG XDATA_ROM_C:CONST:REORDER:NOROOT(0)
        DATA8
`?<Constant "ERROR\\r\\n">`:
        DB "ERROR\015\012"

        RSEG XDATA_ROM_C:CONST:REORDER:NOROOT(0)
        DATA8
`?<Constant "AT+CWMODE=2\\r\\n">`:
        DB "AT+CWMODE=2\015\012"

        RSEG XDATA_ROM_C:CONST:REORDER:NOROOT(0)
        DATA8
`?<Constant "OK\\r\\n">`:
        DB "OK\015\012"

        RSEG XDATA_ROM_C:CONST:REORDER:NOROOT(0)
        DATA8
`?<Constant "AT+CWSAP=\\"ESP8266\\",\\"1...">`:
        DB "AT+CWSAP=\"ESP8266\",\"123456\",11,0\015\012"

        RSEG XDATA_ROM_C:CONST:REORDER:NOROOT(0)
        DATA8
`?<Constant "AT+CIPMODE=0\\r\\n">`:
        DB "AT+CIPMODE=0\015\012"

        RSEG XDATA_ROM_C:CONST:REORDER:NOROOT(0)
        DATA8
`?<Constant "AT+CIPMUX=1\\r\\n">`:
        DB "AT+CIPMUX=1\015\012"

        RSEG XDATA_ROM_C:CONST:REORDER:NOROOT(0)
        DATA8
`?<Constant "AT+CIPSERVER=1,8266\\r\\n">`:
        DB "AT+CIPSERVER=1,8266\015\012"

        RSEG XDATA_ROM_C:CONST:REORDER:NOROOT(0)
        DATA8
`?<Constant "0,CONNECT\\r\\n">`:
        DB "0,CONNECT\015\012"

        RSEG XDATA_ROM_C:CONST:REORDER:NOROOT(0)
        DATA8
`?<Constant "0,CONNECT FAIL\\r\\n">`:
        DB "0,CONNECT FAIL\015\012"

        RSEG XDATA_ROM_C:CONST:REORDER:NOROOT(0)
        DATA8
`?<Constant "CTS\\r\\n">`:
        DB "CTS\015\012"

        RSEG XDATA_ROM_C:CONST:REORDER:NOROOT(0)
        DATA8
`?<Constant "IP">`:
        DB "IP"

        RSEG XDATA_ROM_C:CONST:REORDER:NOROOT(0)
        DATA8
`?<Constant "GOT IP\\r\\n">`:
        DB "GOT IP\015\012"

        RSEG XDATA_ROM_C:CONST:REORDER:NOROOT(0)
        DATA8
`?<Constant "PORT">`:
        DB "PORT"

        RSEG XDATA_ROM_C:CONST:REORDER:NOROOT(0)
        DATA8
`?<Constant "GOT PORT\\r\\n">`:
        DB "GOT PORT\015\012"

        RSEG XDATA_ROM_C:CONST:REORDER:NOROOT(0)
        DATA8
`?<Constant "SSID">`:
        DB "SSID"

        RSEG XDATA_ROM_C:CONST:REORDER:NOROOT(0)
        DATA8
`?<Constant "GOT SSID\\r\\n">`:
        DB "GOT SSID\015\012"

        RSEG XDATA_ROM_C:CONST:REORDER:NOROOT(0)
        DATA8
`?<Constant "PSWD">`:
        DB "PSWD"

        RSEG XDATA_ROM_C:CONST:REORDER:NOROOT(0)
        DATA8
`?<Constant "GOT PSWD\\r\\n">`:
        DB "GOT PSWD\015\012"

        RSEG XDATA_ROM_C:CONST:REORDER:NOROOT(0)
        DATA8
`?<Constant "OVER\\r\\n">`:
        DB "OVER\015\012"

        RSEG XDATA_ROM_C:CONST:REORDER:NOROOT(0)
        DATA8
`?<Constant "Read Flash Failed\\r\\n">`:
        DB "Read Flash Failed\015\012"

        RSEG XDATA_ROM_C:CONST:REORDER:NOROOT(0)
        DATA8
`?<Constant "AT+CWMODE=1\\r\\n">`:
        DB "AT+CWMODE=1\015\012"

        RSEG XDATA_ROM_C:CONST:REORDER:NOROOT(0)
        DATA8
`?<Constant "AT+CWJAP=\\"%s\\",\\"%s\\"\\r\\n">`:
        DB "AT+CWJAP=\"%s\",\"%s\"\015\012"

        RSEG XDATA_ROM_C:CONST:REORDER:NOROOT(0)
        DATA8
`?<Constant "FAIL\\r\\n">`:
        DB "FAIL\015\012"

        RSEG XDATA_ROM_C:CONST:REORDER:NOROOT(0)
        DATA8
`?<Constant "AT+CIPMUX=0\\r\\n">`:
        DB "AT+CIPMUX=0\015\012"

        RSEG XDATA_ROM_C:CONST:REORDER:NOROOT(0)
        DATA8
`?<Constant "AT+CIPMODE=1\\r\\n">`:
        DB "AT+CIPMODE=1\015\012"

        RSEG XDATA_ROM_C:CONST:REORDER:NOROOT(0)
        DATA8
`?<Constant "AT+CIPSTART=\\"TCP\\",\\"%s...">`:
        DB "AT+CIPSTART=\"TCP\",\"%s\",%s\015\012"

        RSEG XDATA_ROM_C:CONST:REORDER:NOROOT(0)
        DATA8
`?<Constant "CLOSED\\r\\n">`:
        DB "CLOSED\015\012"

        RSEG XDATA_ROM_C:CONST:REORDER:NOROOT(0)
        DATA8
`?<Constant "AT+CIPSEND\\r\\n">`:
        DB "AT+CIPSEND\015\012"

        RSEG XDATA_ROM_C:CONST:REORDER:NOROOT(0)
        DATA16
`?<Constant ">">`:
        DB ">"

        RSEG XDATA_ROM_C:CONST:REORDER:NOROOT(0)
        DATA8
`?<Constant "heartbeat\\r\\n">`:
        DB "heartbeat\015\012"

        RSEG XDATA_ROM_C:CONST:REORDER:NOROOT(0)
        DATA8
`?<Constant "received\\r\\n">`:
        DB "received\015\012"

        RSEG XDATA_ROM_C:CONST:REORDER:NOROOT(0)
        DATA8
`?<Constant "environment\\r\\n">`:
        DB "environment\015\012"

        RSEG XDATA_ROM_C:CONST:REORDER:NOROOT(0)
        DATA8
`?<Constant "temperature">`:
        DB "temperature"

        RSEG XDATA_ROM_C:CONST:REORDER:NOROOT(0)
        DATA8
`?<Constant "temperature\\r\\n\\000">`:
        DB 74H, 65H, 6DH, 70H, 65H, 72H, 61H, 74H
        DB 75H, 72H, 65H, 0DH, 0AH, 0, 0

        RSEG XDATA_ROM_C:CONST:REORDER:NOROOT(0)
        DATA8
`?<Constant "humidity">`:
        DB "humidity"

        RSEG XDATA_ROM_C:CONST:REORDER:NOROOT(0)
        DATA8
`?<Constant "humidity\\r\\n">`:
        DB "humidity\015\012"

        RSEG XDATA_ROM_C:CONST:REORDER:NOROOT(0)
        DATA8
`?<Constant "light-on\\r\\n">`:
        DB "light-on\015\012"

        RSEG XDATA_ROM_C:CONST:REORDER:NOROOT(0)
        DATA8
`?<Constant "humidify\\r\\n">`:
        DB "humidify\015\012"

        RSEG XDATA_ROM_C:CONST:REORDER:NOROOT(0)
        DATA8
`?<Constant "stop-humidify\\r\\n">`:
        DB "stop-humidify\015\012"

        RSEG XDATA_ROM_C:CONST:REORDER:NOROOT(0)
        DATA8
`?<Constant "drain-water\\r\\n">`:
        DB "drain-water\015\012"

        RSEG XDATA_ROM_C:CONST:REORDER:NOROOT(0)
        DATA8
`?<Constant "draw-water\\r\\n">`:
        DB "draw-water\015\012"

        RSEG XDATA_ROM_C:CONST:REORDER:NOROOT(0)
        DATA8
`?<Constant "change-water\\r\\n">`:
        DB "change-water\015\012"

        RSEG XDATA_ROM_C:CONST:REORDER:NOROOT(0)
        DATA8
`?<Constant "WIFI RESET\\r\\n">`:
        DB "WIFI RESET\015\012"

        RSEG XDATA_ROM_C:CONST:REORDER:NOROOT(0)
        DATA8
`?<Constant "I get data\\n">`:
        DB "I get data\012"

        RSEG XDATA_ROM_C:CONST:REORDER:NOROOT(0)
        DATA16
`?<Constant "\\n">`:
        DB "\012"

        RSEG XDATA_ROM_C:CONST:REORDER:NOROOT(0)
        DATA8
`?<Constant "Temp is:">`:
        DB "Temp is:"

        RSEG XDATA_ROM_C:CONST:REORDER:NOROOT(0)
        DATA8
`?<Constant "\\r\\n">`:
        DB "\015\012"

        RSEG XDATA_ROM_C:CONST:REORDER:NOROOT(0)
        DATA8
`?<Constant "Humidity is:">`:
        DB "Humidity is:"

        RSEG XDATA_ROM_C:CONST:REORDER:NOROOT(0)
        DATA8
`?<Constant "I get data:\\n">`:
        DB "I get data:\012"

        RSEG XDATA_ROM_C:CONST:REORDER:NOROOT(0)
        DATA8
`?<Constant {48, 49, 50, 51, 52, 53, 54, 55, 56`:
        DB 48
        DB 49
        DB 50
        DB 51
        DB 52
        DB 53
        DB 54
        DB 55
        DB 56
        DB 57

        RSEG XDATA_ROM_C:CONST:REORDER:NOROOT(0)
        DATA8
`?<Constant "I am Coordinator\\r\\n\\000">`:
        DB 49H, 20H, 61H, 6DH, 20H, 43H, 6FH, 6FH
        DB 72H, 64H, 69H, 6EH, 61H, 74H, 6FH, 72H
        DB 0DH, 0AH, 0, 0

        RSEG XDATA_ROM_C:CONST:REORDER:NOROOT(0)
        DATA32
`?<Constant "+++">`:
        DB "+++"

        RSEG XDATA_ROM_C:CONST:REORDER:NOROOT(0)
        DATA8
`?<Constant "AT+CIPSEND=0,%d\\r\\n">`:
        DB "AT+CIPSEND=0,%d\015\012"

        RSEG XDATA_ROM_C:CONST:REORDER:NOROOT(0)
        DATA8
`?<Constant "SEND OK\\r\\n">`:
        DB "SEND OK\015\012"

        RSEG XDATA_ROM_C:CONST:REORDER:NOROOT(0)
        DATA8
`?<Constant "SEND FAIL\\r\\n">`:
        DB "SEND FAIL\015\012"

        END
// 
// 4 162 bytes in segment BANKED_CODE
//    96 bytes in segment BANK_RELAYS
//     1 byte  in segment SFR_AN
//   757 bytes in segment XDATA_ROM_C
//    53 bytes in segment XDATA_Z
// 
//    96 bytes of CODE     memory
//   757 bytes of CONST    memory
//     0 bytes of DATA     memory (+ 1 byte shared)
// 4 162 bytes of HUGECODE memory
//    53 bytes of XDATA    memory
//
//Errors: none
//Warnings: none
