###############################################################################
#
# IAR C/C++ Compiler V10.20.1.5333 for 8051               27/Jul/2019  23:59:12
# Copyright 2004-2018 IAR Systems AB.
# PC-locked license - IAR Embedded Workbench for 8051
#
#    Core               =  plain
#    Code model         =  banked
#    Data model         =  large
#    Calling convention =  xdata reentrant
#    Constant location  =  data_rom
#    Dptr setup         =  1,16
#                          
#    Source file        =  
#        D:\2、温湿度传感组播_协调器\Projects\zstack\Samples\SampleApp\Source\SampleApp.c
#    Command line       =  
#        -f C:\Users\MAC\AppData\Local\Temp\EWDCA0.tmp
#        (D:\2、温湿度传感组播_协调器\Projects\zstack\Samples\SampleApp\Source\SampleApp.c
#        -D ZTOOL_P1 -D xMT_TASK -D xMT_SYS_FUNC -D xMT_ZDO_FUNC -D
#        HAL_LCD=FALSE -D HAL_UART_DMA=1 -D HAL_UART_ISR=2 -lC
#        D:\2、温湿度传感组播_协调器\Projects\zstack\Samples\SampleApp\CC2530DB\CoordinatorEB\List
#        -lA
#        D:\2、温湿度传感组播_协调器\Projects\zstack\Samples\SampleApp\CC2530DB\CoordinatorEB\List
#        --diag_suppress Pe001,Pa010 -o
#        D:\2、温湿度传感组播_协调器\Projects\zstack\Samples\SampleApp\CC2530DB\CoordinatorEB\Obj
#        -e --debug --core=plain --dptr=16,1 --data_model=large
#        --code_model=banked --calling_convention=xdata_reentrant
#        --place_constants=data_rom --nr_virtual_regs 8 -f
#        D:\2、温湿度传感组播_协调器\Projects\zstack\Samples\SampleApp\CC2530DB\..\..\..\Tools\CC2530DB\f8wCoord.cfg
#        (-DCPU32MHZ -DROOT=__near_func -DMAC_CFG_APP_PENDING_QUEUE=TRUE
#        -DMAC_CFG_TX_DATA_MAX=5 -DMAC_CFG_TX_MAX=8 -DMAC_CFG_RX_MAX=5
#        -DZDO_COORDINATOR -DRTR_NWK) -f
#        D:\2、温湿度传感组播_协调器\Projects\zstack\Samples\SampleApp\CC2530DB\..\..\..\Tools\CC2530DB\f8wConfig.cfg
#        (-DZIGBEEPRO -DSECURE=0 -DZG_SECURE_DYNAMIC=0 -DREFLECTOR
#        -DDEFAULT_CHANLIST=0x00000800 -DZDAPP_CONFIG_PAN_ID=0xFF00
#        -DNWK_START_DELAY=100 -DEXTENDED_JOINING_RANDOM_MASK=0x007F
#        -DBEACON_REQUEST_DELAY=100 -DBEACON_REQ_DELAY_MASK=0x00FF
#        -DLINK_STATUS_JITTER_MASK=0x007F -DROUTE_EXPIRY_TIME=30
#        -DAPSC_ACK_WAIT_DURATION_POLLED=3000 -DNWK_INDIRECT_MSG_TIMEOUT=7
#        -DMAX_RREQ_ENTRIES=8 -DAPSC_MAX_FRAME_RETRIES=3
#        -DNWK_MAX_DATA_RETRIES=2 -DMAX_POLL_FAILURE_RETRIES=2 -DMAX_BCAST=9
#        -DAPS_MAX_GROUPS=16 -DMAX_RTG_ENTRIES=40 -DNWK_MAX_BINDING_ENTRIES=4
#        -DMAX_BINDING_CLUSTER_IDS=4 "-DDEFAULT_KEY={0x01, 0x03, 0x05, 0x07,
#        0x09, 0x0B, 0x0D, 0x0F, 0x00, 0x02, 0x04, 0x06, 0x08, 0x0A, 0x0C,
#        0x0D}" -DMAC_MAX_FRAME_SIZE=116 -DZDNWKMGR_MIN_TRANSMISSIONS=20
#        "-DCONST=const __code" -DGENERIC=__generic -DRFD_RCVC_ALWAYS_ON=TRUE
#        -DPOLL_RATE=1000 -DQUEUED_POLL_RATE=100 -DRESPONSE_POLL_RATE=100
#        -DREJOIN_POLL_RATE=440) -I
#        D:\2、温湿度传感组播_协调器\Projects\zstack\Samples\SampleApp\CC2530DB\
#        -I
#        D:\2、温湿度传感组播_协调器\Projects\zstack\Samples\SampleApp\CC2530DB\..\Source\
#        -I
#        D:\2、温湿度传感组播_协调器\Projects\zstack\Samples\SampleApp\CC2530DB\..\..\..\ZMain\TI2530DB\
#        -I
#        D:\2、温湿度传感组播_协调器\Projects\zstack\Samples\SampleApp\CC2530DB\..\..\..\..\..\Components\hal\include\
#        -I
#        D:\2、温湿度传感组播_协调器\Projects\zstack\Samples\SampleApp\CC2530DB\..\..\..\..\..\Components\hal\target\CC2530EB\
#        -I
#        D:\2、温湿度传感组播_协调器\Projects\zstack\Samples\SampleApp\CC2530DB\..\..\..\..\..\Components\mac\include\
#        -I
#        D:\2、温湿度传感组播_协调器\Projects\zstack\Samples\SampleApp\CC2530DB\..\..\..\..\..\Components\mac\high_level\
#        -I
#        D:\2、温湿度传感组播_协调器\Projects\zstack\Samples\SampleApp\CC2530DB\..\..\..\..\..\Components\mac\low_level\srf04\
#        -I
#        D:\2、温湿度传感组播_协调器\Projects\zstack\Samples\SampleApp\CC2530DB\..\..\..\..\..\Components\mac\low_level\srf04\single_chip\
#        -I
#        D:\2、温湿度传感组播_协调器\Projects\zstack\Samples\SampleApp\CC2530DB\..\..\..\..\..\Components\mt\
#        -I
#        D:\2、温湿度传感组播_协调器\Projects\zstack\Samples\SampleApp\CC2530DB\..\..\..\..\..\Components\osal\include\
#        -I
#        D:\2、温湿度传感组播_协调器\Projects\zstack\Samples\SampleApp\CC2530DB\..\..\..\..\..\Components\services\saddr\
#        -I
#        D:\2、温湿度传感组播_协调器\Projects\zstack\Samples\SampleApp\CC2530DB\..\..\..\..\..\Components\services\sdata\
#        -I
#        D:\2、温湿度传感组播_协调器\Projects\zstack\Samples\SampleApp\CC2530DB\..\..\..\..\..\Components\stack\af\
#        -I
#        D:\2、温湿度传感组播_协调器\Projects\zstack\Samples\SampleApp\CC2530DB\..\..\..\..\..\Components\stack\nwk\
#        -I
#        D:\2、温湿度传感组播_协调器\Projects\zstack\Samples\SampleApp\CC2530DB\..\..\..\..\..\Components\stack\sapi\
#        -I
#        D:\2、温湿度传感组播_协调器\Projects\zstack\Samples\SampleApp\CC2530DB\..\..\..\..\..\Components\stack\sec\
#        -I
#        D:\2、温湿度传感组播_协调器\Projects\zstack\Samples\SampleApp\CC2530DB\..\..\..\..\..\Components\stack\sys\
#        -I
#        D:\2、温湿度传感组播_协调器\Projects\zstack\Samples\SampleApp\CC2530DB\..\..\..\..\..\Components\stack\zdo\
#        -I
#        D:\2、温湿度传感组播_协调器\Projects\zstack\Samples\SampleApp\CC2530DB\..\..\..\..\..\Components\zmac\
#        -I
#        D:\2、温湿度传感组播_协调器\Projects\zstack\Samples\SampleApp\CC2530DB\..\..\..\..\..\Components\zmac\f8w\
#        -Ohz --no_code_motion)
#    Locale             =  Chinese (Simplified)_CHN.936
#    List file          =  
#        D:\2、温湿度传感组播_协调器\Projects\zstack\Samples\SampleApp\CC2530DB\CoordinatorEB\List\SampleApp.lst
#    Object file        =  
#        D:\2、温湿度传感组播_协调器\Projects\zstack\Samples\SampleApp\CC2530DB\CoordinatorEB\Obj\SampleApp.r51
#
###############################################################################

D:\2、温湿度传感组播_协调器\Projects\zstack\Samples\SampleApp\Source\SampleApp.c
      1          #include "OSAL.h"
      2          #include "OSAL_Nv.h"
      3          #include "ZGlobals.h"
      4          #include "AF.h"
      5          #include "aps_groups.h"
      6          #include "ZDApp.h"
      7          
      8          #include "SampleApp.h"
      9          #include "SampleAppHw.h"
     10          
     11          #include "OnBoard.h"

   \                                 In  segment SFR_AN, at 0x80
   \   union <unnamed> volatile __sfr _A_P0
   \                     _A_P0:
   \   000000                DS 1
     12          
     13          /* HAL */
     14          #include "hal_lcd.h"
     15          #include "hal_led.h"
     16          #include "hal_key.h"
     17          #include "hal_uart.h"
     18          #include "MT_UART.h"
     19          
     20          #include <string.h>
     21          #include <stdio.h>
     22          #include <stdarg.h>
     23          
     24          #define UartDefaultRxLen 64
     25          #define UartDefaultTxLen 64
     26          #define Key_S1 P0_0
     27          #define Key_S2 P0_1
     28          #define Key_Active 0
     29          #define LED_RED P1_0
     30          #define LED_YELLOW P1_1
     31          #define LED_ORANGE P1_4
     32          
     33          // 驴路露搂拢潞0x0401 隆陋 0x0FFF
     34          #define ZD_NV_IP_ID 0x0440
     35          #define ZD_NV_PORT_ID 0x0430
     36          #define ZD_NV_SSID_ID 0x0420
     37          #define ZD_NV_PSWD_ID 0x0410
     38          
     39          // 鲁陇露露篓氓拢卢猫陋4碌没媒卤露
     40          // 碌录鲁陇露 <= LENGTH - 1
     41          #define SSID_MAX_LENGTH 20
     42          #define PSWD_MAX_LENGTH 20
     43          #define PORT_MAX_LENGTH 8
     44          #define IP_MAX_LENGTH   16
     45          
     46          #define isPressed(x) (x == Key_Active)
     47          #define print(x,...) _UARTSend(1,x,##__VA_ARGS__)
     48          #define debug(x,...) _UARTSend(0,x,##__VA_ARGS__)
     49          #define debug_and_print(x,...) do{\
     50          	_UARTSend(0,x,##__VA_ARGS__);\
     51          	_UARTSend(1,x,##__VA_ARGS__);\
     52          }while(0)
     53          
     54          void _UARTSend(uint8 port, uint8 *fmt, ...);
     55          void _UARTRead(uint8 port, uint8 *buf, uint16 *len);
     56          void _delay_us(uint16 n);
     57          void _delay_ms(uint16 n);
     58          uint8 wait_for(uint8 *str, uint8 *err, uint16 timeout);
     59          void exit_send(void);
     60          uint8 _zigbeeSend(uint8 *fmt, ...);
     61          uint16 WiFiRecvApp(uint8 *buff);
     62          uint8 WiFiSendApp(uint8 *fmt, ...);
     63          void WiFiSendServer(uint8 *fmt, ...);
     64          uint16 WiFiRecvServer(uint8 *buff);
     65          
     66          // This list should be filled with Application specific Cluster IDs.

   \                                 In  segment XDATA_ROM_C, align 1
     67          const cId_t SampleApp_ClusterList[SAMPLEAPP_MAX_CLUSTERS] =
   \                     SampleApp_ClusterList:
   \   000000   0100         DW 1
   \   000002   0200         DW 2
     68          {
     69            SAMPLEAPP_PERIODIC_CLUSTERID,
     70            SAMPLEAPP_FLASH_CLUSTERID,
     71          };
     72          

   \                                 In  segment XDATA_ROM_C, align 1
     73          const SimpleDescriptionFormat_t SampleApp_SimpleDesc =
   \                     SampleApp_SimpleDesc:
   \   000000   14           DB 20
   \   000001   080F         DW 3848
   \   000003   0100         DW 1
   \   000005   00           DB 0
   \   000006   02           DB 2
   \   000007   ....         DW SampleApp_ClusterList
   \   000009   02           DB 2
   \   00000A   ....         DW SampleApp_ClusterList
     74          {
     75            SAMPLEAPP_ENDPOINT,              //  int Endpoint;
     76            SAMPLEAPP_PROFID,                //  uint16 AppProfId[2];
     77            SAMPLEAPP_DEVICEID,              //  uint16 AppDeviceId[2];
     78            SAMPLEAPP_DEVICE_VERSION,        //  int   AppDevVer:4;
     79            SAMPLEAPP_FLAGS,                 //  int   AppFlags:4;
     80            SAMPLEAPP_MAX_CLUSTERS,          //  uint8  AppNumInClusters;
     81            (cId_t *)SampleApp_ClusterList,  //  uint8 *pAppInClusterList;
     82            SAMPLEAPP_MAX_CLUSTERS,          //  uint8  AppNumInClusters;
     83            (cId_t *)SampleApp_ClusterList   //  uint8 *pAppInClusterList;
     84          };
     85          
     86          // This is the Endpoint/Interface description.  It is defined here, but
     87          // filled-in in SampleApp_Init().  Another way to go would be to fill
     88          // in the structure here and make it a "const" (in code space).  The
     89          // way it's defined in this sample app it is define in RAM.

   \                                 In  segment XDATA_Z, align 1, keep-with-next
     90          endPointDesc_t SampleApp_epDesc;
   \                     SampleApp_epDesc:
   \   000000                DS 6
   \   000006                REQUIRE __INIT_XDATA_Z
     91          

   \                                 In  segment XDATA_Z, align 1, keep-with-next
     92          uint8 SampleApp_TaskID;   // Task ID for internal task/event processing
   \                     SampleApp_TaskID:
   \   000000                DS 1
   \   000001                REQUIRE __INIT_XDATA_Z
     93                                    // This variable will be received when
     94                                    // SampleApp_Init() is called.

   \                                 In  segment XDATA_Z, align 1, keep-with-next
     95          devStates_t SampleApp_NwkState;
   \                     SampleApp_NwkState:
   \   000000                DS 1
   \   000001                REQUIRE __INIT_XDATA_Z
     96          

   \                                 In  segment XDATA_Z, align 1, keep-with-next
     97          uint8 SampleApp_TransID;  // This is the unique message ID (counter)
   \                     SampleApp_TransID:
   \   000000                DS 1
   \   000001                REQUIRE __INIT_XDATA_Z
     98          

   \                                 In  segment XDATA_Z, align 1, keep-with-next
     99          afAddrType_t SampleApp_Periodic_DstAddr;
   \                     SampleApp_Periodic_DstAddr:
   \   000000                DS 12
   \   00000C                REQUIRE __INIT_XDATA_Z

   \                                 In  segment XDATA_Z, align 1, keep-with-next
    100          afAddrType_t SampleApp_Flash_DstAddr; //茅虏楼
   \                     SampleApp_Flash_DstAddr:
   \   000000                DS 12
   \   00000C                REQUIRE __INIT_XDATA_Z
    101          

   \                                 In  segment XDATA_Z, align 1, keep-with-next
    102          aps_Group_t SampleApp_Group; //茅
   \                     SampleApp_Group:
   \   000000                DS 18
   \   000012                REQUIRE __INIT_XDATA_Z
    103          

   \                                 In  segment XDATA_Z, align 1, keep-with-next
    104          uint8 SampleAppPeriodicCounter = 0;
   \                     SampleAppPeriodicCounter:
   \   000000                DS 1
   \   000001                REQUIRE __INIT_XDATA_Z

   \                                 In  segment XDATA_Z, align 1, keep-with-next
    105          uint8 SampleAppFlashCounter = 0;
   \                     SampleAppFlashCounter:
   \   000000                DS 1
   \   000001                REQUIRE __INIT_XDATA_Z
    106          

   \                                 In  segment XDATA_Z, align 1, keep-with-next
    107          uint8 _zigbeeRecvFlag = 0;
   \                     _zigbeeRecvFlag:
   \   000000                DS 1
   \   000001                REQUIRE __INIT_XDATA_Z

   \                                 In  segment XDATA_Z, align 1, keep-with-next
    108          uint8 _zigbeeSendCnt = 0;
   \                     _zigbeeSendCnt:
   \   000000                DS 1
   \   000001                REQUIRE __INIT_XDATA_Z

   \                                 In  segment XDATA_Z, align 1, keep-with-next
    109          uint8 _zigbeeSendBuffer[UartDefaultRxLen];
   \                     _zigbeeSendBuffer:
   \   000000                DS 64
   \   000040                REQUIRE __INIT_XDATA_Z

   \                                 In  segment XDATA_Z, align 1, keep-with-next
    110          uint8 _zigbeeSendTimes = 0;
   \                     _zigbeeSendTimes:
   \   000000                DS 1
   \   000001                REQUIRE __INIT_XDATA_Z

   \                                 In  segment XDATA_Z, align 1, keep-with-next
    111          uint8 _jumpBackID = 0;
   \                     _jumpBackID:
   \   000000                DS 1
   \   000001                REQUIRE __INIT_XDATA_Z

   \                                 In  segment XDATA_Z, align 1, keep-with-next
    112          uint8 temp_humid[12];
   \                     temp_humid:
   \   000000                DS 12
   \   00000C                REQUIRE __INIT_XDATA_Z
    113          
    114          void SampleApp_HandleKeys( uint8 shift, uint8 keys );
    115          void SampleApp_MessageMSGCB( afIncomingMSGPacket_t *pckt );
    116          void SampleApp_SendPeriodicMessage( void );
    117          void SampleApp_SendFlashMessage( uint16 flashTime );
    118          void SampleApp_SendGroupMessage(void); //酶路盲茅虏楼篓露路垄潞炉媒露篓氓.
    119          
    120          /*********************************************************************
    121           * NETWORK LAYER CALLBACKS
    122           */
    123          
    124          /*********************************************************************
    125           * PUBLIC FUNCTIONS
    126           */
    127          
    128          /*********************************************************************
    129           * @fn      SampleApp_Init
    130           *
    131           * @brief   Initialization function for the Generic App Task.
    132           *          This is called during initialization and should contain
    133           *          any application specific initialization (ie. hardware
    134           *          initialization/setup, table initialization, power up
    135           *          notificaiton ... ).
    136           *
    137           * @param   task_id - the ID assigned by OSAL.  This ID should be
    138           *                    used to send messages and set timers.
    139           *
    140           * @return  none
    141           */

   \                                 In  segment BANKED_CODE, align 1, keep-with-next
    142          void SampleApp_Init( uint8 task_id )
   \                     SampleApp_Init:
    143          {
   \   000000                REQUIRE ?V0
   \   000000                REQUIRE ?V1
   \   000000                REQUIRE ?V2
   \   000000   74F5         MOV       A,#-0xb
   \   000002   12....       LCALL     ?BANKED_ENTER_XDATA
   \   000005                ; Saved register size: 11
   \   000005                ; Auto size: 0
   \   000005   E9           MOV       A,R1
   \   000006   FE           MOV       R6,A
    144            SampleApp_TaskID = task_id;
   \   000007   90....       MOV       DPTR,#SampleApp_TaskID
   \   00000A   F0           MOVX      @DPTR,A
    145            SampleApp_NwkState = DEV_INIT;
   \   00000B   90....       MOV       DPTR,#SampleApp_NwkState
   \   00000E   7401         MOV       A,#0x1
   \   000010   F0           MOVX      @DPTR,A
    146            SampleApp_TransID = 0;
   \   000011   90....       MOV       DPTR,#SampleApp_TransID
   \   000014   E4           CLR       A
   \   000015   F0           MOVX      @DPTR,A
    147            
    148            MT_UartInit();//麓庐驴鲁玫录禄炉
   \   000016                ; Setup parameters for call to function MT_UartInit
   \   000016   12....       LCALL     `??MT_UartInit::?relay`; Banked call to: MT_UartInit
    149            MT_UartRegisterTaskID(task_id);//碌录帽潞
   \   000019                ; Setup parameters for call to function MT_UartRegisterTaskID
   \   000019   EE           MOV       A,R6
   \   00001A   F9           MOV       R1,A
   \   00001B   12....       LCALL     `??MT_UartRegisterTaskID::?relay`; Banked call to: MT_UartRegisterTaskID
    150            HalUARTWrite(0,"Hello World\n",12); //拢篓麓庐驴0拢卢'路没'拢卢路没赂枚媒隆拢拢漏
   \   00001E                ; Setup parameters for call to function HalUARTWrite
   \   00001E   7C0C         MOV       R4,#0xc
   \   000020   7D00         MOV       R5,#0x0
   \   000022   7A..         MOV       R2,#`?<Constant "Hello World\\n">` & 0xff
   \   000024   7B..         MOV       R3,#(`?<Constant "Hello World\\n">` >> 8) & 0xff
   \   000026   7900         MOV       R1,#0x0
   \   000028   12....       LCALL     `??HalUARTWrite::?relay`; Banked call to: HalUARTWrite
    151            
    152            // Device hardware initialization can be added here or in main() (Zmain.c).
    153            // If the hardware is application specific - add it here.
    154            // If the hardware is other parts of the device add it in main().
    155          
    156           #if defined ( BUILD_ALL_DEVICES )
    157            // The "Demo" target is setup to have BUILD_ALL_DEVICES and HOLD_AUTO_START
    158            // We are looking at a jumper (defined in SampleAppHw.c) to be jumpered
    159            // together - if they are - we will start up a coordinator. Otherwise,
    160            // the device will start as a router.
    161            if ( readCoordinatorJumper() )
    162              zgDeviceLogicalType = ZG_DEVICETYPE_COORDINATOR;
    163            else
    164              zgDeviceLogicalType = ZG_DEVICETYPE_ROUTER;
    165          #endif // BUILD_ALL_DEVICES
    166          
    167          #if defined ( HOLD_AUTO_START )
    168            // HOLD_AUTO_START is a compile option that will surpress ZDApp
    169            //  from starting the device and wait for the application to
    170            //  start the device.
    171            ZDOInitDevice(0);
    172          #endif
    173          
    174            // Setup for the periodic message's destination address
    175            // Broadcast to everyone
    176            SampleApp_Periodic_DstAddr.addrMode = (afAddrMode_t)AddrBroadcast;
   \   00002B   90....       MOV       DPTR,#SampleApp_Periodic_DstAddr + 8
   \   00002E   740F         MOV       A,#0xf
   \   000030   F0           MOVX      @DPTR,A
    177            SampleApp_Periodic_DstAddr.endPoint = SAMPLEAPP_ENDPOINT;
   \   000031   A3           INC       DPTR
   \   000032   7414         MOV       A,#0x14
   \   000034   F0           MOVX      @DPTR,A
    178            SampleApp_Periodic_DstAddr.addr.shortAddr = 0xFFFF;
   \   000035   90....       MOV       DPTR,#SampleApp_Periodic_DstAddr
   \   000038   74FF         MOV       A,#-0x1
   \   00003A   F0           MOVX      @DPTR,A
   \   00003B   A3           INC       DPTR
   \   00003C   F0           MOVX      @DPTR,A
    179          
    180            // Setup for the flash command's destination address - Group 1
    181            SampleApp_Flash_DstAddr.addrMode = (afAddrMode_t)afAddrGroup;
   \   00003D   90....       MOV       DPTR,#SampleApp_Flash_DstAddr + 8
   \   000040   7401         MOV       A,#0x1
   \   000042   F0           MOVX      @DPTR,A
    182            SampleApp_Flash_DstAddr.endPoint = SAMPLEAPP_ENDPOINT;
   \   000043   A3           INC       DPTR
   \   000044   7414         MOV       A,#0x14
   \   000046   F0           MOVX      @DPTR,A
    183            SampleApp_Flash_DstAddr.addr.shortAddr = SAMPLEAPP_FLASH_GROUP;
   \   000047   90....       MOV       DPTR,#SampleApp_Flash_DstAddr
   \   00004A   12....       LCALL     ?Subroutine10 & 0xFFFF
    184            
    185          
    186            // Fill out the endpoint description.
    187            SampleApp_epDesc.endPoint = SAMPLEAPP_ENDPOINT;
   \                     ??CrossCallReturnLabel_101:
   \   00004D   90....       MOV       DPTR,#SampleApp_epDesc
   \   000050   7414         MOV       A,#0x14
   \   000052   F0           MOVX      @DPTR,A
    188            SampleApp_epDesc.task_id = &SampleApp_TaskID;
   \   000053   A3           INC       DPTR
   \   000054   74..         MOV       A,#SampleApp_TaskID & 0xff
   \   000056   F0           MOVX      @DPTR,A
   \   000057   A3           INC       DPTR
   \   000058   74..         MOV       A,#(SampleApp_TaskID >> 8) & 0xff
   \   00005A   F0           MOVX      @DPTR,A
    189            SampleApp_epDesc.simpleDesc
    190                      = (SimpleDescriptionFormat_t *)&SampleApp_SimpleDesc;
   \   00005B   A3           INC       DPTR
   \   00005C   74..         MOV       A,#SampleApp_SimpleDesc & 0xff
   \   00005E   F0           MOVX      @DPTR,A
   \   00005F   A3           INC       DPTR
   \   000060   74..         MOV       A,#(SampleApp_SimpleDesc >> 8) & 0xff
   \   000062   12....       LCALL     ??Subroutine42_0 & 0xFFFF
    191            SampleApp_epDesc.latencyReq = noLatencyReqs;
    192          
    193            // Register the endpoint description with the AF
    194            afRegister( &SampleApp_epDesc );
   \                     ??CrossCallReturnLabel_97:
   \   000065                ; Setup parameters for call to function afRegister
   \   000065   7A..         MOV       R2,#SampleApp_epDesc & 0xff
   \   000067   7B..         MOV       R3,#(SampleApp_epDesc >> 8) & 0xff
   \   000069   12....       LCALL     `??afRegister::?relay`; Banked call to: afRegister
    195          
    196            // Register for all key events - This app will handle all key events
    197            RegisterForKeys( SampleApp_TaskID );
   \   00006C                ; Setup parameters for call to function RegisterForKeys
   \   00006C   90....       MOV       DPTR,#SampleApp_TaskID
   \   00006F   E0           MOVX      A,@DPTR
   \   000070   F9           MOV       R1,A
   \   000071   12....       LCALL     `??RegisterForKeys::?relay`; Banked call to: RegisterForKeys
    198          
    199            // By default, all devices start out in Group 1
    200            SampleApp_Group.ID = SAMPLEAPP_FLASH_GROUP;//0x0001;
   \   000074   90....       MOV       DPTR,#SampleApp_Group
   \   000077   12....       LCALL     ?Subroutine10 & 0xFFFF
    201            osal_memcpy( SampleApp_Group.name, "Group 1", 7  );
   \                     ??CrossCallReturnLabel_102:
   \   00007A                ; Setup parameters for call to function osal_memcpy
   \   00007A   75....       MOV       ?V0,#`?<Constant "Group 1">` & 0xff
   \   00007D   75....       MOV       ?V1,#(`?<Constant "Group 1">` >> 8) & 0xff
   \   000080   F5..         MOV       ?V2,A
   \   000082   78..         MOV       R0,#?V0
   \   000084   12....       LCALL     ?PUSH_XSTACK_I_THREE
   \   000087   7C07         MOV       R4,#0x7
   \   000089   7D00         MOV       R5,#0x0
   \   00008B   7A..         MOV       R2,#(SampleApp_Group + 2) & 0xff
   \   00008D   7B..         MOV       R3,#((SampleApp_Group + 2) >> 8) & 0xff
   \   00008F   12....       LCALL     ?Subroutine23 & 0xFFFF
   \                     ??CrossCallReturnLabel_38:
   \   000092   12....       LCALL     ?DEALLOC_XSTACK8
    202            aps_AddGroup( SAMPLEAPP_ENDPOINT, &SampleApp_Group );
   \   000095                ; Setup parameters for call to function aps_AddGroup
   \   000095   7A..         MOV       R2,#SampleApp_Group & 0xff
   \   000097   7B..         MOV       R3,#(SampleApp_Group >> 8) & 0xff
   \   000099   7914         MOV       R1,#0x14
   \   00009B   12....       LCALL     `??aps_AddGroup::?relay`; Banked call to: aps_AddGroup
    203            
    204          
    205          #if defined ( LCD_SUPPORTED )
    206            HalLcdWriteString( "SampleApp", HAL_LCD_LINE_1 );
    207          #endif
    208          }
   \   00009E                REQUIRE ?Subroutine0
   \   00009E                ; // Fall through to label ?Subroutine0

   \                                 In  segment BANKED_CODE, align 1, keep-with-next
   \                     ?Subroutine0:
   \   000000   7F03         MOV       R7,#0x3
   \   000002   02....       LJMP      ?BANKED_LEAVE_XDATA

   \                                 In  segment BANKED_CODE, align 1, keep-with-next
   \                     ?Subroutine10:
   \   000000   7403         MOV       A,#0x3
   \   000002                REQUIRE ??Subroutine42_0
   \   000002                ; // Fall through to label ??Subroutine42_0

   \                                 In  segment BANKED_CODE, align 1, keep-with-next
   \                     ??Subroutine42_0:
   \   000000   F0           MOVX      @DPTR,A
   \   000001   A3           INC       DPTR
   \   000002   E4           CLR       A
   \   000003   F0           MOVX      @DPTR,A
   \   000004   22           RET

   \                                 In  segment BANKED_CODE, align 1, keep-with-next
   \                     ?Subroutine23:
   \   000000   12....       LCALL     `??osal_memcpy::?relay`; Banked call to: osal_memcpy
   \   000003   7403         MOV       A,#0x3
   \   000005   22           RET
    209          
    210          /*********************************************************************
    211           * @fn      SampleApp_ProcessEvent
    212           *
    213           * @brief   Generic Application Task event processor.  This function
    214           *          is called to process all events for the task.  Events
    215           *          include timers, messages and any other user defined events.
    216           *
    217           * @param   task_id  - The OSAL assigned task ID.
    218           * @param   events - events to process.  This is a bit map and can
    219           *                   contain more than one event.
    220           *
    221           * @return  none
    222           */

   \                                 In  segment BANKED_CODE, align 1, keep-with-next
    223          uint16 SampleApp_ProcessEvent( uint8 task_id, uint16 events )
   \                     SampleApp_ProcessEvent:
    224          {
   \   000000                REQUIRE ?V0
   \   000000                REQUIRE ?V1
   \   000000                REQUIRE ?V2
   \   000000                REQUIRE ?V3
   \   000000                REQUIRE ?V4
   \   000000                REQUIRE ?V5
   \   000000                REQUIRE ?V6
   \   000000                REQUIRE ?V7
   \   000000   74F0         MOV       A,#-0x10
   \   000002   12....       LCALL     ?BANKED_ENTER_XDATA
   \   000005                ; Saved register size: 16
   \   000005                ; Auto size: 159
   \   000005   7461         MOV       A,#0x61
   \   000007   12....       LCALL     ?ALLOC_XSTACK8
   \   00000A   8A..         MOV       ?V0,R2
   \   00000C   8B..         MOV       ?V1,R3
    225            afIncomingMSGPacket_t *MSGpkt;
    226            halUARTCfg_t uartConfig;
    227          	uint8 _buffer[UartDefaultRxLen];
    228          	uint8 InitNVStatus, readNVStatus, writeNVStatus;
    229          	uint8 SSID[SSID_MAX_LENGTH], PSWD[PSWD_MAX_LENGTH];
    230          	uint8 PORT[PORT_MAX_LENGTH], MYIP[IP_MAX_LENGTH];
    231          	uint16 length, nv_id, nv_len, prefix_len, cnt;
    232            (void)task_id;  // Intentionally unreferenced parameter
    233          
    234            if ( events & SYS_EVENT_MSG )
   \   00000E   EB           MOV       A,R3
   \   00000F   5480         ANL       A,#0x80
   \   000011   606E         JZ        ??SampleApp_ProcessEvent_0
    235            {
    236              MSGpkt = (afIncomingMSGPacket_t *)osal_msg_receive( SampleApp_TaskID );
   \   000013                ; Setup parameters for call to function osal_msg_receive
   \   000013   8020         SJMP      ??SampleApp_ProcessEvent_1
    237              while ( MSGpkt )
    238              {
    239                switch ( MSGpkt->hdr.event )
    240                {
    241                  // Received when a key is pressed
    242                  case KEY_CHANGE:
    243                    SampleApp_HandleKeys(((keyChange_t *)MSGpkt)->state, ((keyChange_t *)MSGpkt)->keys );
    244                    break;
    245          
    246                  // Received when a messages is received (OTA) for this endpoint
    247                  case AF_INCOMING_MSG_CMD:
    248                    SampleApp_MessageMSGCB( MSGpkt );
    249                    break;
    250          
    251                  // Received whenever the device changes state in the network
    252                  case ZDO_STATE_CHANGE:
    253                    SampleApp_NwkState = (devStates_t)(MSGpkt->hdr.status);
   \                     ??SampleApp_ProcessEvent_2:
   \   000015   A3           INC       DPTR
   \   000016   E0           MOVX      A,@DPTR
   \   000017   90....       MOV       DPTR,#SampleApp_NwkState
   \   00001A   F0           MOVX      @DPTR,A
    254                    if ( (SampleApp_NwkState == DEV_ZB_COORD)||
    255                         (SampleApp_NwkState == DEV_ROUTER)
    256                        || (SampleApp_NwkState == DEV_END_DEVICE) ) {
   \   00001B   6409         XRL       A,#0x9
   \   00001D   600A         JZ        ??SampleApp_ProcessEvent_3
   \   00001F   E0           MOVX      A,@DPTR
   \   000020   6407         XRL       A,#0x7
   \   000022   6005         JZ        ??SampleApp_ProcessEvent_3
   \   000024   E0           MOVX      A,@DPTR
   \   000025   6406         XRL       A,#0x6
   \   000027   7005         JNZ       ??CrossCallReturnLabel_93
    257                      osal_set_event(SampleApp_TaskID, SAMPLEAPP_INITIALIZE_UART_EVT);
   \                     ??SampleApp_ProcessEvent_3:
   \   000029                ; Setup parameters for call to function osal_set_event
   \   000029   7A02         MOV       R2,#0x2
   \   00002B   12....       LCALL     ??Subroutine41_0 & 0xFFFF
    258                    }
    259                    else
    260                    {
    261                      // Device is no longer in the network
    262                    }
    263                    break;
    264          
    265                  default:
    266                    break;
    267                }
    268          
    269                // Release the memory
    270                osal_msg_deallocate( (uint8 *)MSGpkt );
   \                     ??CrossCallReturnLabel_93:
   \   00002E                ; Setup parameters for call to function osal_msg_deallocate
   \   00002E   EE           MOV       A,R6
   \   00002F   FA           MOV       R2,A
   \   000030   EF           MOV       A,R7
   \   000031   FB           MOV       R3,A
   \   000032   12....       LCALL     `??osal_msg_deallocate::?relay`; Banked call to: osal_msg_deallocate
    271          
    272                // Next - if one is available
    273                MSGpkt = (afIncomingMSGPacket_t *)osal_msg_receive( SampleApp_TaskID );
   \   000035                ; Setup parameters for call to function osal_msg_receive
   \                     ??SampleApp_ProcessEvent_1:
   \   000035   90....       MOV       DPTR,#SampleApp_TaskID
   \   000038   E0           MOVX      A,@DPTR
   \   000039   F9           MOV       R1,A
   \   00003A   12....       LCALL     `??osal_msg_receive::?relay`; Banked call to: osal_msg_receive
   \   00003D   8A..         MOV       ?V2,R2
   \   00003F   8B..         MOV       ?V3,R3
   \   000041   AE..         MOV       R6,?V2
   \   000043   AF..         MOV       R7,?V3
   \   000045   EE           MOV       A,R6
   \   000046   4F           ORL       A,R7
   \   000047   602E         JZ        ??SampleApp_ProcessEvent_4
   \   000049   8E82         MOV       DPL,R6
   \   00004B   8F83         MOV       DPH,R7
   \   00004D   E0           MOVX      A,@DPTR
   \   00004E   24E6         ADD       A,#-0x1a
   \   000050   601C         JZ        ??SampleApp_ProcessEvent_5
   \   000052   245A         ADD       A,#0x5a
   \   000054   6006         JZ        ??SampleApp_ProcessEvent_6
   \   000056   24EF         ADD       A,#-0x11
   \   000058   60BB         JZ        ??SampleApp_ProcessEvent_2
   \   00005A   80D2         SJMP      ??CrossCallReturnLabel_93
   \                     ??SampleApp_ProcessEvent_6:
   \   00005C                ; Setup parameters for call to function SampleApp_HandleKeys
   \   00005C   A3           INC       DPTR
   \   00005D   A3           INC       DPTR
   \   00005E   A3           INC       DPTR
   \   00005F   E0           MOVX      A,@DPTR
   \   000060   FA           MOV       R2,A
   \   000061   8E82         MOV       DPL,R6
   \   000063   8F83         MOV       DPH,R7
   \   000065   A3           INC       DPTR
   \   000066   A3           INC       DPTR
   \   000067   E0           MOVX      A,@DPTR
   \   000068   F9           MOV       R1,A
   \   000069   12....       LCALL     `??SampleApp_HandleKeys::?relay`; Banked call to: SampleApp_HandleKeys
   \   00006C   80C0         SJMP      ??CrossCallReturnLabel_93
   \                     ??SampleApp_ProcessEvent_5:
   \   00006E                ; Setup parameters for call to function SampleApp_MessageMSGCB
   \   00006E   EE           MOV       A,R6
   \   00006F   FA           MOV       R2,A
   \   000070   EF           MOV       A,R7
   \   000071   FB           MOV       R3,A
   \   000072   12....       LCALL     `??SampleApp_MessageMSGCB::?relay`; Banked call to: SampleApp_MessageMSGCB
   \   000075   80B7         SJMP      ??CrossCallReturnLabel_93
    274              }
    275          
    276              // return unprocessed events
    277              return (events ^ SYS_EVENT_MSG);
   \                     ??SampleApp_ProcessEvent_4:
   \   000077   AA..         MOV       R2,?V0
   \   000079   E5..         MOV       A,?V1
   \   00007B   6480         XRL       A,#0x80
   \   00007D   FB           MOV       R3,A
   \   00007E   02....       LJMP      ??SampleApp_ProcessEvent_7 & 0xFFFF
    278            }
    279          
    280            // Send a message out - This event is generated by a timer
    281            //  (setup in SampleApp_Init()).
    282            if ( events & SAMPLEAPP_SEND_PERIODIC_MSG_EVT ) {
   \                     ??SampleApp_ProcessEvent_0:
   \   000081   EA           MOV       A,R2
   \   000082   A2E0         MOV       C,0xE0 /* A   */.0
   \   000084   5046         JNC       ??SampleApp_ProcessEvent_8
    283              _zigbeeSend(_zigbeeSendBuffer);
   \   000086                ; Setup parameters for call to function _zigbeeSend
   \   000086   7A..         MOV       R2,#_zigbeeSendBuffer & 0xff
   \   000088   7B..         MOV       R3,#(_zigbeeSendBuffer >> 8) & 0xff
   \   00008A   12....       LCALL     `??_zigbeeSend::?relay`; Banked call to: _zigbeeSend
    284              debug(_zigbeeSendBuffer);
   \   00008D                ; Setup parameters for call to function _UARTSend
   \   00008D   7A..         MOV       R2,#_zigbeeSendBuffer & 0xff
   \   00008F   7B..         MOV       R3,#(_zigbeeSendBuffer >> 8) & 0xff
   \   000091   7900         MOV       R1,#0x0
   \   000093   12....       LCALL     `??_UARTSend::?relay`; Banked call to: _UARTSend
    285              _zigbeeSendCnt ++;
   \   000096   90....       MOV       DPTR,#_zigbeeSendCnt
   \   000099   E0           MOVX      A,@DPTR
   \   00009A   04           INC       A
   \   00009B   F0           MOVX      @DPTR,A
    286              if (_zigbeeSendCnt < _zigbeeSendTimes) {
   \   00009C   90....       MOV       DPTR,#_zigbeeSendTimes
   \   00009F   E0           MOVX      A,@DPTR
   \   0000A0   F8           MOV       R0,A
   \   0000A1   90....       MOV       DPTR,#_zigbeeSendCnt
   \   0000A4   E0           MOVX      A,@DPTR
   \   0000A5   C3           CLR       C
   \   0000A6   98           SUBB      A,R0
   \   0000A7   5019         JNC       ??SampleApp_ProcessEvent_9
    287                  osal_start_timerEx(SampleApp_TaskID, SAMPLEAPP_SEND_PERIODIC_MSG_EVT,
    288                      (SAMPLEAPP_SEND_PERIODIC_MSG_TIMEOUT + (osal_rand() & 0x00FF)));
   \   0000A9                ; Setup parameters for call to function osal_rand
   \   0000A9   12....       LCALL     `??osal_rand::?relay`; Banked call to: osal_rand
   \   0000AC                ; Setup parameters for call to function osal_start_timerEx
   \   0000AC   EA           MOV       A,R2
   \   0000AD   2488         ADD       A,#-0x78
   \   0000AF   FC           MOV       R4,A
   \   0000B0   E4           CLR       A
   \   0000B1   3413         ADDC      A,#0x13
   \   0000B3   FD           MOV       R5,A
   \   0000B4   7A01         MOV       R2,#0x1
   \   0000B6   7B00         MOV       R3,#0x0
   \   0000B8   90....       MOV       DPTR,#SampleApp_TaskID
   \   0000BB   E0           MOVX      A,@DPTR
   \   0000BC   F9           MOV       R1,A
   \   0000BD   12....       LCALL     `??osal_start_timerEx::?relay`; Banked call to: osal_start_timerEx
   \   0000C0   8003         SJMP      ??CrossCallReturnLabel_91
    289              } else {
    290                  osal_set_event(SampleApp_TaskID, SAMPLEAPP_SEND_HEART_BEAT_EVT);
   \                     ??SampleApp_ProcessEvent_9:
   \   0000C2                ; Setup parameters for call to function osal_set_event
   \   0000C2   12....       LCALL     ?Subroutine12 & 0xFFFF
    291              }
    292              return (events ^ SAMPLEAPP_SEND_PERIODIC_MSG_EVT);
   \                     ??CrossCallReturnLabel_91:
   \   0000C5   E5..         MOV       A,?V0
   \   0000C7   6401         XRL       A,#0x1
   \   0000C9   02....       LJMP      ??SampleApp_ProcessEvent_10 & 0xFFFF
    293            }
    294            
    295            if (events & SAMPLEAPP_INITIALIZE_UART_EVT) {
   \                     ??SampleApp_ProcessEvent_8:
   \   0000CC   5402         ANL       A,#0x2
   \   0000CE   7003         JNZ       $+5
   \   0000D0   02....       LJMP      ??SampleApp_ProcessEvent_11 & 0xFFFF
    296          
    297          		// initialize uart_1
    298          		uartConfig.configured           = TRUE;
   \   0000D3   740A         MOV       A,#0xa
   \   0000D5   12....       LCALL     ?XSTACK_DISP0_8
   \   0000D8   7401         MOV       A,#0x1
   \   0000DA   F0           MOVX      @DPTR,A
    299          		uartConfig.baudRate             = MT_UART_DEFAULT_BAUDRATE;
   \   0000DB   740B         MOV       A,#0xb
   \   0000DD   12....       LCALL     ?XSTACK_DISP0_8
   \   0000E0   7404         MOV       A,#0x4
   \   0000E2   F0           MOVX      @DPTR,A
    300          		uartConfig.flowControl          = MT_UART_DEFAULT_OVERFLOW;
   \   0000E3   740C         MOV       A,#0xc
   \   0000E5   12....       LCALL     ?XSTACK_DISP0_8
   \   0000E8   E4           CLR       A
   \   0000E9   F0           MOVX      @DPTR,A
    301          		uartConfig.flowControlThreshold = MT_UART_DEFAULT_THRESHOLD;
   \   0000EA   740D         MOV       A,#0xd
   \   0000EC   12....       LCALL     ?XSTACK_DISP0_8
   \   0000EF   7440         MOV       A,#0x40
   \   0000F1   12....       LCALL     ??Subroutine42_0 & 0xFFFF
    302          		uartConfig.rx.maxBufSize        = MT_UART_DEFAULT_MAX_RX_BUFF;
   \                     ??CrossCallReturnLabel_98:
   \   0000F4   7414         MOV       A,#0x14
   \   0000F6   12....       LCALL     ?XSTACK_DISP0_8
   \   0000F9   7480         MOV       A,#-0x80
   \   0000FB   12....       LCALL     ??Subroutine42_0 & 0xFFFF
    303          		uartConfig.tx.maxBufSize        = MT_UART_DEFAULT_MAX_TX_BUFF;
   \                     ??CrossCallReturnLabel_99:
   \   0000FE   741C         MOV       A,#0x1c
   \   000100   12....       LCALL     ?XSTACK_DISP0_8
   \   000103   7480         MOV       A,#-0x80
   \   000105   12....       LCALL     ??Subroutine42_0 & 0xFFFF
    304          		uartConfig.idleTimeout          = MT_UART_DEFAULT_IDLE_TIMEOUT;
   \                     ??CrossCallReturnLabel_100:
   \   000108   740F         MOV       A,#0xf
   \   00010A   12....       LCALL     ?XSTACK_DISP0_8
   \   00010D   7406         MOV       A,#0x6
   \   00010F   F0           MOVX      @DPTR,A
    305          		uartConfig.intEnable            = TRUE;
   \   000110   7420         MOV       A,#0x20
   \   000112   12....       LCALL     ?XSTACK_DISP0_8
   \   000115   7401         MOV       A,#0x1
   \   000117   F0           MOVX      @DPTR,A
    306          		uartConfig.callBackFunc         = NULL;
   \   000118   7425         MOV       A,#0x25
   \   00011A   12....       LCALL     ?XSTACK_DISP0_8
   \   00011D   E4           CLR       A
   \   00011E   F0           MOVX      @DPTR,A
   \   00011F   A3           INC       DPTR
   \   000120   F0           MOVX      @DPTR,A
    307          		HalUARTOpen(HAL_UART_PORT_1, &uartConfig);
   \   000121                ; Setup parameters for call to function HalUARTOpen
   \   000121   740A         MOV       A,#0xa
   \   000123   12....       LCALL     ?XSTACK_DISP101_8
   \   000126   7901         MOV       R1,#0x1
   \   000128   12....       LCALL     `??HalUARTOpen::?relay`; Banked call to: HalUARTOpen
    308          		debug("UART_1 INITIALIZED!\r\n");
   \   00012B                ; Setup parameters for call to function _UARTSend
   \   00012B   7A..         MOV       R2,#`?<Constant "UART_1 INITIALIZED!\\r\\n">` & 0xff
   \   00012D   7B..         MOV       R3,#(`?<Constant "UART_1 INITIALIZED!\\r\\n">` >> 8) & 0xff
   \   00012F   7900         MOV       R1,#0x0
   \   000131   12....       LCALL     `??_UARTSend::?relay`; Banked call to: _UARTSend
    309          
    310          		if (isPressed(Key_S1)) {
   \   000134   A280         MOV       C,0x80.0
   \   000136   400D         JC        ??SampleApp_ProcessEvent_12
    311          			debug("Enter AP Mode\r\n");
   \   000138                ; Setup parameters for call to function _UARTSend
   \   000138   7A..         MOV       R2,#`?<Constant "Enter AP Mode\\r\\n">` & 0xff
   \   00013A   7B..         MOV       R3,#(`?<Constant "Enter AP Mode\\r\\n">` >> 8) & 0xff
   \   00013C   7900         MOV       R1,#0x0
   \   00013E   12....       LCALL     `??_UARTSend::?relay`; Banked call to: _UARTSend
    312          			osal_set_event(SampleApp_TaskID, SAMPLEAPP_CONFIGURE_WIFI_EVT);
   \   000141                ; Setup parameters for call to function osal_set_event
   \   000141   7A10         MOV       R2,#0x10
   \   000143   800B         SJMP      ??SampleApp_ProcessEvent_13
    313          		} else {
    314          			debug("Enter STA Mode\r\n");
   \                     ??SampleApp_ProcessEvent_12:
   \   000145                ; Setup parameters for call to function _UARTSend
   \   000145   7A..         MOV       R2,#`?<Constant "Enter STA Mode\\r\\n">` & 0xff
   \   000147   7B..         MOV       R3,#(`?<Constant "Enter STA Mode\\r\\n">` >> 8) & 0xff
   \   000149   7900         MOV       R1,#0x0
   \   00014B   12....       LCALL     `??_UARTSend::?relay`; Banked call to: _UARTSend
    315          			osal_set_event(SampleApp_TaskID, SAMPLEAPP_INITIALIZE_WIFI_EVT);
   \   00014E                ; Setup parameters for call to function osal_set_event
   \   00014E   7A04         MOV       R2,#0x4
    316          		}
   \                     ??SampleApp_ProcessEvent_13:
   \   000150   12....       LCALL     ??Subroutine41_0 & 0xFFFF
    317          		return (events ^ SAMPLEAPP_INITIALIZE_UART_EVT);
   \                     ??CrossCallReturnLabel_94:
   \   000153   E5..         MOV       A,?V0
   \   000155   6402         XRL       A,#0x2
   \   000157   02....       LJMP      ??SampleApp_ProcessEvent_10 & 0xFFFF
    318          	}
    319          
    320          	if (events & SAMPLEAPP_CONFIGURE_WIFI_EVT) {
   \                     ??SampleApp_ProcessEvent_11:
   \   00015A   EA           MOV       A,R2
   \   00015B   5410         ANL       A,#0x10
   \   00015D   7003         JNZ       $+5
   \   00015F   02....       LJMP      ??SampleApp_ProcessEvent_14 & 0xFFFF
    321          		exit_send();
   \   000162                ; Setup parameters for call to function exit_send
   \   000162   12....       LCALL     `??exit_send::?relay`; Banked call to: exit_send
    322          		_UARTRead(HAL_UART_PORT_1, _buffer, &length);
   \   000165                ; Setup parameters for call to function _UARTRead
   \   000165   AC..         MOV       R4,?XSP + 0
   \   000167   AD..         MOV       R5,?XSP + 1
   \   000169   745F         MOV       A,#0x5f
   \   00016B   12....       LCALL     ?XSTACK_DISP101_8
   \   00016E   7901         MOV       R1,#0x1
   \   000170   12....       LCALL     `??_UARTRead::?relay`; Banked call to: _UARTRead
    323          		do debug_and_print("AT+RST\r\n");
   \                     ??SampleApp_ProcessEvent_15:
   \   000173                ; Setup parameters for call to function _UARTSend
   \   000173   12....       LCALL     ?Subroutine19 & 0xFFFF
    324          		while (wait_for("ready\r\n", "ERROR\r\n", 0));
   \                     ??CrossCallReturnLabel_29:
   \   000176   12....       LCALL     ?PUSH_XSTACK_I_TWO
   \   000179   7C..         MOV       R4,#`?<Constant "ERROR\\r\\n">` & 0xff
   \   00017B   7D..         MOV       R5,#(`?<Constant "ERROR\\r\\n">` >> 8) & 0xff
   \   00017D   7A..         MOV       R2,#`?<Constant "ready\\r\\n">` & 0xff
   \   00017F   7B..         MOV       R3,#(`?<Constant "ready\\r\\n">` >> 8) & 0xff
   \   000181   12....       LCALL     ??Subroutine48_0 & 0xFFFF
   \                     ??CrossCallReturnLabel_120:
   \   000184   12....       LCALL     ?DEALLOC_XSTACK8
   \   000187   B900E9       CJNE      R1,#0x0,??SampleApp_ProcessEvent_15
    325          		do debug_and_print("AT+CWMODE=2\r\n");
   \                     ??SampleApp_ProcessEvent_16:
   \   00018A                ; Setup parameters for call to function _UARTSend
   \   00018A   7A..         MOV       R2,#`?<Constant "AT+CWMODE=2\\r\\n">` & 0xff
   \   00018C   7B..         MOV       R3,#(`?<Constant "AT+CWMODE=2\\r\\n">` >> 8) & 0xff
   \   00018E   7900         MOV       R1,#0x0
   \   000190   12....       LCALL     `??_UARTSend::?relay`; Banked call to: _UARTSend
   \   000193                ; Setup parameters for call to function _UARTSend
   \   000193   7A..         MOV       R2,#`?<Constant "AT+CWMODE=2\\r\\n">` & 0xff
   \   000195   7B..         MOV       R3,#(`?<Constant "AT+CWMODE=2\\r\\n">` >> 8) & 0xff
   \   000197   12....       LCALL     ?Subroutine22 & 0xFFFF
    326          		while (wait_for("OK\r\n", "ERROR\r\n", 0));
   \                     ??CrossCallReturnLabel_31:
   \   00019A   12....       LCALL     ?PUSH_XSTACK_I_TWO
   \   00019D   12....       LCALL     ?Subroutine18 & 0xFFFF
   \                     ??CrossCallReturnLabel_110:
   \   0001A0   12....       LCALL     ?DEALLOC_XSTACK8
   \   0001A3   B900E4       CJNE      R1,#0x0,??SampleApp_ProcessEvent_16
    327          		do debug_and_print("AT+CWSAP=\"ESP8266\",\"123456\",11,0\r\n"); // TODO: ADD MACRO
   \                     ??SampleApp_ProcessEvent_17:
   \   0001A6                ; Setup parameters for call to function _UARTSend
   \   0001A6   7A..         MOV       R2,#`?<Constant "AT+CWSAP=\\"ESP8266\\",\\"1...">` & 0xff
   \   0001A8   7B..         MOV       R3,#(`?<Constant "AT+CWSAP=\\"ESP8266\\",\\"1...">` >> 8) & 0xff
   \   0001AA   7900         MOV       R1,#0x0
   \   0001AC   12....       LCALL     `??_UARTSend::?relay`; Banked call to: _UARTSend
   \   0001AF                ; Setup parameters for call to function _UARTSend
   \   0001AF   7A..         MOV       R2,#`?<Constant "AT+CWSAP=\\"ESP8266\\",\\"1...">` & 0xff
   \   0001B1   7B..         MOV       R3,#(`?<Constant "AT+CWSAP=\\"ESP8266\\",\\"1...">` >> 8) & 0xff
   \   0001B3   12....       LCALL     ?Subroutine22 & 0xFFFF
    328          		while (wait_for("OK\r\n", "ERROR\r\n", 0));
   \                     ??CrossCallReturnLabel_32:
   \   0001B6   12....       LCALL     ?PUSH_XSTACK_I_TWO
   \   0001B9   12....       LCALL     ?Subroutine18 & 0xFFFF
   \                     ??CrossCallReturnLabel_111:
   \   0001BC   12....       LCALL     ?DEALLOC_XSTACK8
   \   0001BF   B900E4       CJNE      R1,#0x0,??SampleApp_ProcessEvent_17
    329          		do debug_and_print("AT+CIPMODE=0\r\n");
   \                     ??SampleApp_ProcessEvent_18:
   \   0001C2                ; Setup parameters for call to function _UARTSend
   \   0001C2   7A..         MOV       R2,#`?<Constant "AT+CIPMODE=0\\r\\n">` & 0xff
   \   0001C4   7B..         MOV       R3,#(`?<Constant "AT+CIPMODE=0\\r\\n">` >> 8) & 0xff
   \   0001C6   7900         MOV       R1,#0x0
   \   0001C8   12....       LCALL     `??_UARTSend::?relay`; Banked call to: _UARTSend
   \   0001CB                ; Setup parameters for call to function _UARTSend
   \   0001CB   7A..         MOV       R2,#`?<Constant "AT+CIPMODE=0\\r\\n">` & 0xff
   \   0001CD   7B..         MOV       R3,#(`?<Constant "AT+CIPMODE=0\\r\\n">` >> 8) & 0xff
   \   0001CF   12....       LCALL     ?Subroutine22 & 0xFFFF
    330          		while (wait_for("OK\r\n", "ERROR\r\n", 0));
   \                     ??CrossCallReturnLabel_33:
   \   0001D2   12....       LCALL     ?PUSH_XSTACK_I_TWO
   \   0001D5   12....       LCALL     ?Subroutine18 & 0xFFFF
   \                     ??CrossCallReturnLabel_112:
   \   0001D8   12....       LCALL     ?DEALLOC_XSTACK8
   \   0001DB   B900E4       CJNE      R1,#0x0,??SampleApp_ProcessEvent_18
    331          		do debug_and_print("AT+CIPMUX=1\r\n");
   \                     ??SampleApp_ProcessEvent_19:
   \   0001DE                ; Setup parameters for call to function _UARTSend
   \   0001DE   7A..         MOV       R2,#`?<Constant "AT+CIPMUX=1\\r\\n">` & 0xff
   \   0001E0   7B..         MOV       R3,#(`?<Constant "AT+CIPMUX=1\\r\\n">` >> 8) & 0xff
   \   0001E2   7900         MOV       R1,#0x0
   \   0001E4   12....       LCALL     `??_UARTSend::?relay`; Banked call to: _UARTSend
   \   0001E7                ; Setup parameters for call to function _UARTSend
   \   0001E7   7A..         MOV       R2,#`?<Constant "AT+CIPMUX=1\\r\\n">` & 0xff
   \   0001E9   7B..         MOV       R3,#(`?<Constant "AT+CIPMUX=1\\r\\n">` >> 8) & 0xff
   \   0001EB   12....       LCALL     ?Subroutine22 & 0xFFFF
    332          		while (wait_for("OK\r\n", "ERROR\r\n", 0)); 
   \                     ??CrossCallReturnLabel_34:
   \   0001EE   12....       LCALL     ?PUSH_XSTACK_I_TWO
   \   0001F1   12....       LCALL     ?Subroutine18 & 0xFFFF
   \                     ??CrossCallReturnLabel_113:
   \   0001F4   12....       LCALL     ?DEALLOC_XSTACK8
   \   0001F7   B900E4       CJNE      R1,#0x0,??SampleApp_ProcessEvent_19
    333          		do debug_and_print("AT+CIPSERVER=1,8266\r\n");
   \                     ??SampleApp_ProcessEvent_20:
   \   0001FA                ; Setup parameters for call to function _UARTSend
   \   0001FA   7A..         MOV       R2,#`?<Constant "AT+CIPSERVER=1,8266\\r\\n">` & 0xff
   \   0001FC   7B..         MOV       R3,#(`?<Constant "AT+CIPSERVER=1,8266\\r\\n">` >> 8) & 0xff
   \   0001FE   7900         MOV       R1,#0x0
   \   000200   12....       LCALL     `??_UARTSend::?relay`; Banked call to: _UARTSend
   \   000203                ; Setup parameters for call to function _UARTSend
   \   000203   7A..         MOV       R2,#`?<Constant "AT+CIPSERVER=1,8266\\r\\n">` & 0xff
   \   000205   7B..         MOV       R3,#(`?<Constant "AT+CIPSERVER=1,8266\\r\\n">` >> 8) & 0xff
   \   000207   12....       LCALL     ?Subroutine22 & 0xFFFF
    334          		while (wait_for("OK\r\n", "ERROR\r\n", 0));
   \                     ??CrossCallReturnLabel_35:
   \   00020A   12....       LCALL     ?PUSH_XSTACK_I_TWO
   \   00020D   12....       LCALL     ?Subroutine18 & 0xFFFF
   \                     ??CrossCallReturnLabel_114:
   \   000210   12....       LCALL     ?DEALLOC_XSTACK8
   \   000213   B900E4       CJNE      R1,#0x0,??SampleApp_ProcessEvent_20
    335          		do {
    336          			while (wait_for("0,CONNECT\r\n", "0,CONNECT FAIL\r\n", 0));
   \                     ??SampleApp_ProcessEvent_21:
   \   000216                ; Setup parameters for call to function wait_for
   \   000216   78..         MOV       R0,#?V2
   \   000218   12....       LCALL     ?PUSH_XSTACK_I_TWO
   \   00021B   7C..         MOV       R4,#`?<Constant "0,CONNECT FAIL\\r\\n">` & 0xff
   \   00021D   7D..         MOV       R5,#(`?<Constant "0,CONNECT FAIL\\r\\n">` >> 8) & 0xff
   \   00021F   7A..         MOV       R2,#`?<Constant "0,CONNECT\\r\\n">` & 0xff
   \   000221   7B..         MOV       R3,#(`?<Constant "0,CONNECT\\r\\n">` >> 8) & 0xff
   \   000223   12....       LCALL     ??Subroutine48_0 & 0xFFFF
    337          		} while (WiFiSendApp("CTS\r\n")); // 赂忙APP卢陆陆篓垄拢卢露镁麓
   \                     ??CrossCallReturnLabel_121:
   \   000226   12....       LCALL     ?DEALLOC_XSTACK8
   \   000229   B900EA       CJNE      R1,#0x0,??SampleApp_ProcessEvent_21
   \   00022C                ; Setup parameters for call to function WiFiSendApp
   \   00022C   7A..         MOV       R2,#`?<Constant "CTS\\r\\n">` & 0xff
   \   00022E   7B..         MOV       R3,#(`?<Constant "CTS\\r\\n">` >> 8) & 0xff
   \   000230   12....       LCALL     `??WiFiSendApp::?relay`; Banked call to: WiFiSendApp
   \   000233   E9           MOV       A,R1
   \   000234   70E0         JNZ       ??SampleApp_ProcessEvent_21
    338          		while (1) {
    339          			length = WiFiRecvApp(_buffer);
   \                     ??SampleApp_ProcessEvent_22:
   \   000236                ; Setup parameters for call to function WiFiRecvApp
   \   000236   745F         MOV       A,#0x5f
   \   000238   12....       LCALL     ?XSTACK_DISP101_8
   \   00023B   12....       LCALL     `??WiFiRecvApp::?relay`; Banked call to: WiFiRecvApp
   \   00023E   85..82       MOV       DPL,?XSP + 0
   \   000241   85..83       MOV       DPH,?XSP + 1
   \   000244   EA           MOV       A,R2
   \   000245   F0           MOVX      @DPTR,A
   \   000246   A3           INC       DPTR
   \   000247   EB           MOV       A,R3
   \   000248   F0           MOVX      @DPTR,A
    340          			if (length > 6) { // min: SSIDx\r\n 铆19禄鲁陇露
   \   000249   85..82       MOV       DPL,?XSP + 0
   \   00024C   85..83       MOV       DPH,?XSP + 1
   \   00024F   C3           CLR       C
   \   000250   E0           MOVX      A,@DPTR
   \   000251   9407         SUBB      A,#0x7
   \   000253   A3           INC       DPTR
   \   000254   E0           MOVX      A,@DPTR
   \   000255   9400         SUBB      A,#0x0
   \   000257   5003         JNC       $+5
   \   000259   02....       LJMP      ??SampleApp_ProcessEvent_23 & 0xFFFF
    341          				if (osal_memcmp(_buffer, "IP", 2)) {
   \   00025C                ; Setup parameters for call to function osal_memcmp
   \   00025C   75....       MOV       ?V4,#`?<Constant "IP">` & 0xff
   \   00025F   75....       MOV       ?V5,#(`?<Constant "IP">` >> 8) & 0xff
   \   000262   75..00       MOV       ?V6,#0x0
   \   000265   78..         MOV       R0,#?V4
   \   000267   12....       LCALL     ?PUSH_XSTACK_I_THREE
   \   00026A   7C02         MOV       R4,#0x2
   \   00026C   7D00         MOV       R5,#0x0
   \   00026E   7462         MOV       A,#0x62
   \   000270   12....       LCALL     ?XSTACK_DISP0_8
   \   000273   12....       LCALL     ?Subroutine25 & 0xFFFF
   \                     ??CrossCallReturnLabel_42:
   \   000276   12....       LCALL     ?DEALLOC_XSTACK8
   \   000279   E9           MOV       A,R1
   \   00027A   6014         JZ        ??SampleApp_ProcessEvent_24
    342          					nv_id = ZD_NV_IP_ID;
   \   00027C   75..40       MOV       ?V4,#0x40
   \   00027F   75..04       MOV       ?V5,#0x4
    343          					nv_len = IP_MAX_LENGTH;
   \   000282   7E10         MOV       R6,#0x10
   \   000284   7F00         MOV       R7,#0x0
    344          					prefix_len = 2;
   \   000286   75..02       MOV       ?V6,#0x2
    345          					WiFiSendApp("GOT IP\r\n");
   \   000289                ; Setup parameters for call to function WiFiSendApp
   \   000289   7A..         MOV       R2,#`?<Constant "GOT IP\\r\\n">` & 0xff
   \   00028B   7B..         MOV       R3,#(`?<Constant "GOT IP\\r\\n">` >> 8) & 0xff
   \   00028D   02....       LJMP      ??SampleApp_ProcessEvent_25 & 0xFFFF
    346          				} else 
    347          				if (osal_memcmp(_buffer, "PORT", 4)) {
   \                     ??SampleApp_ProcessEvent_24:
   \   000290                ; Setup parameters for call to function osal_memcmp
   \   000290   75....       MOV       ?V4,#`?<Constant "PORT">` & 0xff
   \   000293   75....       MOV       ?V5,#(`?<Constant "PORT">` >> 8) & 0xff
   \   000296   78..         MOV       R0,#?V4
   \   000298   12....       LCALL     ?PUSH_XSTACK_I_THREE
   \   00029B   7C04         MOV       R4,#0x4
   \   00029D   7D00         MOV       R5,#0x0
   \   00029F   7462         MOV       A,#0x62
   \   0002A1   12....       LCALL     ?XSTACK_DISP0_8
   \   0002A4   12....       LCALL     ?Subroutine25 & 0xFFFF
   \                     ??CrossCallReturnLabel_43:
   \   0002A7   12....       LCALL     ?DEALLOC_XSTACK8
   \   0002AA   E9           MOV       A,R1
   \   0002AB   6013         JZ        ??SampleApp_ProcessEvent_26
    348          					nv_id = ZD_NV_PORT_ID;
   \   0002AD   75..30       MOV       ?V4,#0x30
   \   0002B0   75..04       MOV       ?V5,#0x4
    349          					nv_len = PORT_MAX_LENGTH;
   \   0002B3   7E08         MOV       R6,#0x8
   \   0002B5   7F00         MOV       R7,#0x0
    350          					prefix_len = 4;
   \   0002B7   75..04       MOV       ?V6,#0x4
    351          					WiFiSendApp("GOT PORT\r\n");
   \   0002BA                ; Setup parameters for call to function WiFiSendApp
   \   0002BA   7A..         MOV       R2,#`?<Constant "GOT PORT\\r\\n">` & 0xff
   \   0002BC   7B..         MOV       R3,#(`?<Constant "GOT PORT\\r\\n">` >> 8) & 0xff
   \   0002BE   8061         SJMP      ??SampleApp_ProcessEvent_25
    352          				} else 
    353          				if (osal_memcmp(_buffer, "SSID", 4)) {
   \                     ??SampleApp_ProcessEvent_26:
   \   0002C0                ; Setup parameters for call to function osal_memcmp
   \   0002C0   75....       MOV       ?V4,#`?<Constant "SSID">` & 0xff
   \   0002C3   75....       MOV       ?V5,#(`?<Constant "SSID">` >> 8) & 0xff
   \   0002C6   78..         MOV       R0,#?V4
   \   0002C8   12....       LCALL     ?PUSH_XSTACK_I_THREE
   \   0002CB   7C04         MOV       R4,#0x4
   \   0002CD   7D00         MOV       R5,#0x0
   \   0002CF   7462         MOV       A,#0x62
   \   0002D1   12....       LCALL     ?XSTACK_DISP0_8
   \   0002D4   12....       LCALL     ?Subroutine25 & 0xFFFF
   \                     ??CrossCallReturnLabel_44:
   \   0002D7   12....       LCALL     ?DEALLOC_XSTACK8
   \   0002DA   E9           MOV       A,R1
   \   0002DB   6013         JZ        ??SampleApp_ProcessEvent_27
    354          					nv_id = ZD_NV_SSID_ID;
   \   0002DD   75..20       MOV       ?V4,#0x20
   \   0002E0   75..04       MOV       ?V5,#0x4
    355          					nv_len = SSID_MAX_LENGTH;
   \   0002E3   7E14         MOV       R6,#0x14
   \   0002E5   7F00         MOV       R7,#0x0
    356          					prefix_len = 4;
   \   0002E7   75..04       MOV       ?V6,#0x4
    357          					WiFiSendApp("GOT SSID\r\n");
   \   0002EA                ; Setup parameters for call to function WiFiSendApp
   \   0002EA   7A..         MOV       R2,#`?<Constant "GOT SSID\\r\\n">` & 0xff
   \   0002EC   7B..         MOV       R3,#(`?<Constant "GOT SSID\\r\\n">` >> 8) & 0xff
   \   0002EE   8031         SJMP      ??SampleApp_ProcessEvent_25
    358          				} else 
    359          				if (osal_memcmp(_buffer, "PSWD", 4)) {
   \                     ??SampleApp_ProcessEvent_27:
   \   0002F0                ; Setup parameters for call to function osal_memcmp
   \   0002F0   75....       MOV       ?V4,#`?<Constant "PSWD">` & 0xff
   \   0002F3   75....       MOV       ?V5,#(`?<Constant "PSWD">` >> 8) & 0xff
   \   0002F6   78..         MOV       R0,#?V4
   \   0002F8   12....       LCALL     ?PUSH_XSTACK_I_THREE
   \   0002FB   7C04         MOV       R4,#0x4
   \   0002FD   7D00         MOV       R5,#0x0
   \   0002FF   7462         MOV       A,#0x62
   \   000301   12....       LCALL     ?XSTACK_DISP0_8
   \   000304   12....       LCALL     ?Subroutine25 & 0xFFFF
   \                     ??CrossCallReturnLabel_45:
   \   000307   12....       LCALL     ?DEALLOC_XSTACK8
   \   00030A   E9           MOV       A,R1
   \   00030B   7003         JNZ       $+5
   \   00030D   02....       LJMP      ??SampleApp_ProcessEvent_22 & 0xFFFF
    360          					nv_id = ZD_NV_PSWD_ID;
   \   000310   75..10       MOV       ?V4,#0x10
   \   000313   75..04       MOV       ?V5,#0x4
    361          					nv_len = PSWD_MAX_LENGTH;
   \   000316   7E14         MOV       R6,#0x14
   \   000318   7F00         MOV       R7,#0x0
    362          					prefix_len = 4;
   \   00031A   75..04       MOV       ?V6,#0x4
    363          					WiFiSendApp("GOT PSWD\r\n");
   \   00031D                ; Setup parameters for call to function WiFiSendApp
   \   00031D   7A..         MOV       R2,#`?<Constant "GOT PSWD\\r\\n">` & 0xff
   \   00031F   7B..         MOV       R3,#(`?<Constant "GOT PSWD\\r\\n">` >> 8) & 0xff
   \                     ??SampleApp_ProcessEvent_25:
   \   000321   12....       LCALL     `??WiFiSendApp::?relay`; Banked call to: WiFiSendApp
    364          				} else continue;
    365          				length -= 2; // \r\n
   \   000324   85..82       MOV       DPL,?XSP + 0
   \   000327   85..83       MOV       DPH,?XSP + 1
   \   00032A   E0           MOVX      A,@DPTR
   \   00032B   24FE         ADD       A,#-0x2
   \   00032D   F0           MOVX      @DPTR,A
   \   00032E   A3           INC       DPTR
   \   00032F   E0           MOVX      A,@DPTR
   \   000330   34FF         ADDC      A,#-0x1
   \   000332   F0           MOVX      @DPTR,A
    366          				while (length < nv_len + prefix_len + 2) _buffer[length ++] = '\0';
   \   000333   EE           MOV       A,R6
   \   000334   25..         ADD       A,?V6
   \   000336   F8           MOV       R0,A
   \   000337   E4           CLR       A
   \   000338   3400         ADDC      A,#0x0
   \   00033A   F9           MOV       R1,A
   \   00033B   E8           MOV       A,R0
   \   00033C   2402         ADD       A,#0x2
   \   00033E   FA           MOV       R2,A
   \   00033F   E4           CLR       A
   \   000340   39           ADDC      A,R1
   \   000341   FB           MOV       R3,A
   \   000342   12....       LCALL     ?Subroutine14 & 0xFFFF
   \                     ??CrossCallReturnLabel_125:
   \   000345   EA           MOV       A,R2
   \   000346   98           SUBB      A,R0
   \   000347   F8           MOV       R0,A
   \   000348   EB           MOV       A,R3
   \   000349   99           SUBB      A,R1
   \   00034A   F9           MOV       R1,A
   \   00034B   85..82       MOV       DPL,?XSP + 0
   \   00034E   85..83       MOV       DPH,?XSP + 1
   \   000351   C3           CLR       C
   \   000352   E0           MOVX      A,@DPTR
   \   000353   9A           SUBB      A,R2
   \   000354   A3           INC       DPTR
   \   000355   E0           MOVX      A,@DPTR
   \   000356   9B           SUBB      A,R3
   \   000357   5033         JNC       ??SampleApp_ProcessEvent_28
   \   000359   85..82       MOV       DPL,?XSP + 0
   \   00035C   85..83       MOV       DPH,?XSP + 1
   \   00035F   745F         MOV       A,#0x5f
   \   000361   12....       LCALL     ?XSTACK_DISP101_8
   \   000364   8B..         MOV       ?V3,R3
   \   000366   E0           MOVX      A,@DPTR
   \   000367   2A           ADD       A,R2
   \   000368   FA           MOV       R2,A
   \   000369   A3           INC       DPTR
   \   00036A   E0           MOVX      A,@DPTR
   \   00036B   35..         ADDC      A,?V3
   \   00036D   8A82         MOV       DPL,R2
   \   00036F   F583         MOV       DPH,A
   \                     ??SampleApp_ProcessEvent_29:
   \   000371   E4           CLR       A
   \   000372   F0           MOVX      @DPTR,A
   \   000373   A3           INC       DPTR
   \   000374   E8           MOV       A,R0
   \   000375   24FF         ADD       A,#-0x1
   \   000377   18           DEC       R0
   \   000378   E9           MOV       A,R1
   \   000379   34FF         ADDC      A,#-0x1
   \   00037B   F9           MOV       R1,A
   \   00037C   48           ORL       A,R0
   \   00037D   70F2         JNZ       ??SampleApp_ProcessEvent_29
   \   00037F   85..82       MOV       DPL,?XSP + 0
   \   000382   85..83       MOV       DPH,?XSP + 1
   \   000385   E0           MOVX      A,@DPTR
   \   000386   28           ADD       A,R0
   \   000387   F0           MOVX      @DPTR,A
   \   000388   A3           INC       DPTR
   \   000389   E0           MOVX      A,@DPTR
   \   00038A   39           ADDC      A,R1
   \   00038B   F0           MOVX      @DPTR,A
    367          				InitNVStatus = osal_nv_item_init(nv_id, nv_len, NULL);
   \                     ??SampleApp_ProcessEvent_28:
   \   00038C                ; Setup parameters for call to function osal_nv_item_init
   \   00038C   E4           CLR       A
   \   00038D   F5..         MOV       ?V2,A
   \   00038F   F5..         MOV       ?V3,A
   \   000391   78..         MOV       R0,#?V2
   \   000393   12....       LCALL     ?PUSH_XSTACK_I_TWO
   \   000396   EE           MOV       A,R6
   \   000397   FC           MOV       R4,A
   \   000398   7D00         MOV       R5,#0x0
   \   00039A   AA..         MOV       R2,?V4
   \   00039C   AB..         MOV       R3,?V5
   \   00039E   12....       LCALL     ??Subroutine37_0 & 0xFFFF
   \                     ??CrossCallReturnLabel_79:
   \   0003A1   12....       LCALL     ?DEALLOC_XSTACK8
    368          				writeNVStatus = osal_nv_write(nv_id, 0, nv_len, _buffer + prefix_len);
   \   0003A4   745F         MOV       A,#0x5f
   \   0003A6   12....       LCALL     ?XSTACK_DISP0_8
   \   0003A9   E582         MOV       A,DPL
   \   0003AB   25..         ADD       A,?V6
   \   0003AD   F5..         MOV       ?V2,A
   \   0003AF   E4           CLR       A
   \   0003B0   3583         ADDC      A,DPH
   \   0003B2   F5..         MOV       ?V3,A
   \   0003B4                ; Setup parameters for call to function osal_nv_write
   \   0003B4   78..         MOV       R0,#?V2
   \   0003B6   12....       LCALL     ?PUSH_XSTACK_I_TWO
   \   0003B9   8E..         MOV       ?V6,R6
   \   0003BB   8F..         MOV       ?V7,R7
   \   0003BD   78..         MOV       R0,#?V6
   \   0003BF   12....       LCALL     ?PUSH_XSTACK_I_TWO
   \   0003C2   7C00         MOV       R4,#0x0
   \   0003C4   7D00         MOV       R5,#0x0
   \   0003C6   AA..         MOV       R2,?V4
   \   0003C8   AB..         MOV       R3,?V5
   \   0003CA   12....       LCALL     `??osal_nv_write::?relay`; Banked call to: osal_nv_write
   \   0003CD   7404         MOV       A,#0x4
   \   0003CF   12....       LCALL     ?DEALLOC_XSTACK8
    369          				HalUARTWrite(1, _buffer + prefix_len, nv_len);
   \   0003D2                ; Setup parameters for call to function HalUARTWrite
   \   0003D2   EE           MOV       A,R6
   \   0003D3   FC           MOV       R4,A
   \   0003D4   7D00         MOV       R5,#0x0
   \   0003D6   AA..         MOV       R2,?V2
   \   0003D8   AB..         MOV       R3,?V3
   \   0003DA   7901         MOV       R1,#0x1
   \   0003DC   12....       LCALL     `??HalUARTWrite::?relay`; Banked call to: HalUARTWrite
    370          				(void) writeNVStatus;
   \   0003DF   02....       LJMP      ??SampleApp_ProcessEvent_22 & 0xFFFF
    371          			} else if (length == 4 && osal_memcmp(_buffer, (uint8 *)"OK\r\n", 4)) {
   \                     ??SampleApp_ProcessEvent_23:
   \   0003E2   85..82       MOV       DPL,?XSP + 0
   \   0003E5   85..83       MOV       DPH,?XSP + 1
   \   0003E8   E0           MOVX      A,@DPTR
   \   0003E9   6404         XRL       A,#0x4
   \   0003EB   7002         JNZ       ??SampleApp_ProcessEvent_30
   \   0003ED   A3           INC       DPTR
   \   0003EE   E0           MOVX      A,@DPTR
   \                     ??SampleApp_ProcessEvent_30:
   \   0003EF   6003         JZ        $+5
   \   0003F1   02....       LJMP      ??SampleApp_ProcessEvent_22 & 0xFFFF
   \   0003F4                ; Setup parameters for call to function osal_memcmp
   \   0003F4   75....       MOV       ?V4,#`?<Constant "OK\\r\\n">` & 0xff
   \   0003F7   75....       MOV       ?V5,#(`?<Constant "OK\\r\\n">` >> 8) & 0xff
   \   0003FA   75..00       MOV       ?V6,#0x0
   \   0003FD   78..         MOV       R0,#?V4
   \   0003FF   12....       LCALL     ?PUSH_XSTACK_I_THREE
   \   000402   7C04         MOV       R4,#0x4
   \   000404   7D00         MOV       R5,#0x0
   \   000406   7462         MOV       A,#0x62
   \   000408   12....       LCALL     ?XSTACK_DISP0_8
   \   00040B   12....       LCALL     ?Subroutine25 & 0xFFFF
   \                     ??CrossCallReturnLabel_46:
   \   00040E   12....       LCALL     ?DEALLOC_XSTACK8
   \   000411   E9           MOV       A,R1
   \   000412   7003         JNZ       $+5
   \   000414   02....       LJMP      ??SampleApp_ProcessEvent_22 & 0xFFFF
    372          				WiFiSendApp("OVER\r\n");
   \   000417                ; Setup parameters for call to function WiFiSendApp
   \   000417   7A..         MOV       R2,#`?<Constant "OVER\\r\\n">` & 0xff
   \   000419   7B..         MOV       R3,#(`?<Constant "OVER\\r\\n">` >> 8) & 0xff
   \   00041B   12....       LCALL     `??WiFiSendApp::?relay`; Banked call to: WiFiSendApp
    373          				_delay_ms(10);
   \   00041E                ; Setup parameters for call to function _delay_ms
   \   00041E   7A0A         MOV       R2,#0xa
   \   000420   7B00         MOV       R3,#0x0
   \   000422   12....       LCALL     `??_delay_ms::?relay`; Banked call to: _delay_ms
    374          				do debug_and_print("AT+RST\r\n");
   \                     ??SampleApp_ProcessEvent_31:
   \   000425                ; Setup parameters for call to function _UARTSend
   \   000425   12....       LCALL     ?Subroutine19 & 0xFFFF
    375          				while (wait_for("ready\r\n", "ERROR\r\n", 0));
   \                     ??CrossCallReturnLabel_30:
   \   000428   12....       LCALL     ?PUSH_XSTACK_I_TWO
   \   00042B   7C..         MOV       R4,#`?<Constant "ERROR\\r\\n">` & 0xff
   \   00042D   7D..         MOV       R5,#(`?<Constant "ERROR\\r\\n">` >> 8) & 0xff
   \   00042F   7A..         MOV       R2,#`?<Constant "ready\\r\\n">` & 0xff
   \   000431   7B..         MOV       R3,#(`?<Constant "ready\\r\\n">` >> 8) & 0xff
   \   000433   12....       LCALL     ??Subroutine48_0 & 0xFFFF
   \                     ??CrossCallReturnLabel_122:
   \   000436   12....       LCALL     ?DEALLOC_XSTACK8
   \   000439   B900E9       CJNE      R1,#0x0,??SampleApp_ProcessEvent_31
    376          				break;
    377          			}
    378          		}
    379          		osal_set_event(SampleApp_TaskID, SAMPLEAPP_INITIALIZE_WIFI_EVT);
   \   00043C                ; Setup parameters for call to function osal_set_event
   \   00043C   7A04         MOV       R2,#0x4
   \   00043E   12....       LCALL     ??Subroutine41_0 & 0xFFFF
    380          		return (events ^ SAMPLEAPP_CONFIGURE_WIFI_EVT);
   \                     ??CrossCallReturnLabel_95:
   \   000441   E5..         MOV       A,?V0
   \   000443   6410         XRL       A,#0x10
   \   000445   02....       LJMP      ??SampleApp_ProcessEvent_10 & 0xFFFF
    381          	}
    382          
    383          	if (events & SAMPLEAPP_INITIALIZE_WIFI_EVT) {
   \                     ??SampleApp_ProcessEvent_14:
   \   000448   EA           MOV       A,R2
   \   000449   5404         ANL       A,#0x4
   \   00044B   7003         JNZ       $+5
   \   00044D   02....       LJMP      ??SampleApp_ProcessEvent_32 & 0xFFFF
    384          		// initialize esp8266
    385          		exit_send();
   \   000450                ; Setup parameters for call to function exit_send
   \   000450   12....       LCALL     `??exit_send::?relay`; Banked call to: exit_send
    386          		InitNVStatus = osal_nv_item_init(ZD_NV_SSID_ID, SSID_MAX_LENGTH, NULL);
   \   000453                ; Setup parameters for call to function osal_nv_item_init
   \   000453   E4           CLR       A
   \   000454   F5..         MOV       ?V2,A
   \   000456   F5..         MOV       ?V3,A
   \   000458   78..         MOV       R0,#?V2
   \   00045A   12....       LCALL     ?PUSH_XSTACK_I_TWO
   \   00045D   7C14         MOV       R4,#0x14
   \   00045F   7D00         MOV       R5,#0x0
   \   000461   7A20         MOV       R2,#0x20
   \   000463   12....       LCALL     ?Subroutine27 & 0xFFFF
   \                     ??CrossCallReturnLabel_75:
   \   000466   12....       LCALL     ?DEALLOC_XSTACK8
   \   000469   E9           MOV       A,R1
   \   00046A   FE           MOV       R6,A
    387          		readNVStatus = osal_nv_read(ZD_NV_SSID_ID, 0, SSID_MAX_LENGTH, SSID);
    388          		if (readNVStatus != SUCCESS || InitNVStatus != SUCCESS) {
   \   00046B                ; Setup parameters for call to function osal_nv_read
   \   00046B   744B         MOV       A,#0x4b
   \   00046D   12....       LCALL     ?XSTACK_DISP100_8
   \   000470   88..         MOV       ?V2,R0
   \   000472   89..         MOV       ?V3,R1
   \   000474   78..         MOV       R0,#?V2
   \   000476   12....       LCALL     ?PUSH_XSTACK_I_TWO
   \   000479   75..14       MOV       ?V2,#0x14
   \   00047C   75..00       MOV       ?V3,#0x0
   \   00047F   78..         MOV       R0,#?V2
   \   000481   12....       LCALL     ?PUSH_XSTACK_I_TWO
   \   000484   7C00         MOV       R4,#0x0
   \   000486   7D00         MOV       R5,#0x0
   \   000488   7A20         MOV       R2,#0x20
   \   00048A   12....       LCALL     ?Subroutine31 & 0xFFFF
   \                     ??CrossCallReturnLabel_61:
   \   00048D   12....       LCALL     ?DEALLOC_XSTACK8
   \   000490   E9           MOV       A,R1
   \   000491   6003         JZ        $+5
   \   000493   02....       LJMP      ??SampleApp_ProcessEvent_33 & 0xFFFF
   \   000496   EE           MOV       A,R6
   \   000497   6003         JZ        $+5
   \   000499   02....       LJMP      ??SampleApp_ProcessEvent_33 & 0xFFFF
    389          			debug("Read Flash Failed\r\n");
    390          			return (events ^ SAMPLEAPP_INITIALIZE_WIFI_EVT);
    391          		}
    392          		debug(SSID);
   \   00049C                ; Setup parameters for call to function _UARTSend
   \   00049C   744B         MOV       A,#0x4b
   \   00049E   12....       LCALL     ?XSTACK_DISP101_8
   \   0004A1   12....       LCALL     ?Subroutine20 & 0xFFFF
    393          		InitNVStatus = osal_nv_item_init(ZD_NV_PSWD_ID, PSWD_MAX_LENGTH, NULL);
   \                     ??CrossCallReturnLabel_87:
   \   0004A4   12....       LCALL     ?PUSH_XSTACK_I_TWO
   \   0004A7   7C14         MOV       R4,#0x14
   \   0004A9   7D00         MOV       R5,#0x0
   \   0004AB   7A10         MOV       R2,#0x10
   \   0004AD   12....       LCALL     ?Subroutine27 & 0xFFFF
   \                     ??CrossCallReturnLabel_76:
   \   0004B0   12....       LCALL     ?DEALLOC_XSTACK8
   \   0004B3   E9           MOV       A,R1
   \   0004B4   FE           MOV       R6,A
    394          		readNVStatus = osal_nv_read(ZD_NV_PSWD_ID, 0, PSWD_MAX_LENGTH, PSWD);
    395          		if (readNVStatus != SUCCESS || InitNVStatus != SUCCESS) {
   \   0004B5                ; Setup parameters for call to function osal_nv_read
   \   0004B5   7437         MOV       A,#0x37
   \   0004B7   12....       LCALL     ?XSTACK_DISP100_8
   \   0004BA   88..         MOV       ?V2,R0
   \   0004BC   89..         MOV       ?V3,R1
   \   0004BE   78..         MOV       R0,#?V2
   \   0004C0   12....       LCALL     ?PUSH_XSTACK_I_TWO
   \   0004C3   75..14       MOV       ?V2,#0x14
   \   0004C6   75..00       MOV       ?V3,#0x0
   \   0004C9   78..         MOV       R0,#?V2
   \   0004CB   12....       LCALL     ?PUSH_XSTACK_I_TWO
   \   0004CE   7C00         MOV       R4,#0x0
   \   0004D0   7D00         MOV       R5,#0x0
   \   0004D2   7A10         MOV       R2,#0x10
   \   0004D4   12....       LCALL     ?Subroutine31 & 0xFFFF
   \                     ??CrossCallReturnLabel_62:
   \   0004D7   12....       LCALL     ?DEALLOC_XSTACK8
   \   0004DA   E9           MOV       A,R1
   \   0004DB   6003         JZ        $+5
   \   0004DD   02....       LJMP      ??SampleApp_ProcessEvent_33 & 0xFFFF
   \   0004E0   EE           MOV       A,R6
   \   0004E1   6003         JZ        $+5
   \   0004E3   02....       LJMP      ??SampleApp_ProcessEvent_33 & 0xFFFF
    396          			debug("Read Flash Failed\r\n");
    397          			return (events ^ SAMPLEAPP_INITIALIZE_WIFI_EVT);
    398          		}
    399          		debug(PSWD);
   \   0004E6                ; Setup parameters for call to function _UARTSend
   \   0004E6   7437         MOV       A,#0x37
   \   0004E8   12....       LCALL     ?XSTACK_DISP101_8
   \   0004EB   12....       LCALL     ?Subroutine20 & 0xFFFF
    400          		InitNVStatus = osal_nv_item_init(ZD_NV_IP_ID, IP_MAX_LENGTH, NULL);
   \                     ??CrossCallReturnLabel_88:
   \   0004EE   12....       LCALL     ?PUSH_XSTACK_I_TWO
   \   0004F1   7C10         MOV       R4,#0x10
   \   0004F3   7D00         MOV       R5,#0x0
   \   0004F5   7A40         MOV       R2,#0x40
   \   0004F7   12....       LCALL     ?Subroutine27 & 0xFFFF
   \                     ??CrossCallReturnLabel_77:
   \   0004FA   12....       LCALL     ?DEALLOC_XSTACK8
   \   0004FD   E9           MOV       A,R1
   \   0004FE   FE           MOV       R6,A
    401          		readNVStatus = osal_nv_read(ZD_NV_IP_ID, 0, IP_MAX_LENGTH, MYIP);
    402          		if (readNVStatus != SUCCESS || InitNVStatus != SUCCESS) {
   \   0004FF                ; Setup parameters for call to function osal_nv_read
   \   0004FF   7427         MOV       A,#0x27
   \   000501   12....       LCALL     ?XSTACK_DISP100_8
   \   000504   88..         MOV       ?V2,R0
   \   000506   89..         MOV       ?V3,R1
   \   000508   78..         MOV       R0,#?V2
   \   00050A   12....       LCALL     ?PUSH_XSTACK_I_TWO
   \   00050D   75..10       MOV       ?V2,#0x10
   \   000510   75..00       MOV       ?V3,#0x0
   \   000513   78..         MOV       R0,#?V2
   \   000515   12....       LCALL     ?PUSH_XSTACK_I_TWO
   \   000518   7C00         MOV       R4,#0x0
   \   00051A   7D00         MOV       R5,#0x0
   \   00051C   7A40         MOV       R2,#0x40
   \   00051E   12....       LCALL     ?Subroutine31 & 0xFFFF
   \                     ??CrossCallReturnLabel_63:
   \   000521   12....       LCALL     ?DEALLOC_XSTACK8
   \   000524   E9           MOV       A,R1
   \   000525   7047         JNZ       ??SampleApp_ProcessEvent_33
   \   000527   EE           MOV       A,R6
   \   000528   7044         JNZ       ??SampleApp_ProcessEvent_33
    403          			debug("Read Flash Failed\r\n");
    404          			return (events ^ SAMPLEAPP_INITIALIZE_WIFI_EVT);
    405          		}
    406          		debug(MYIP);
   \   00052A                ; Setup parameters for call to function _UARTSend
   \   00052A   7427         MOV       A,#0x27
   \   00052C   12....       LCALL     ?XSTACK_DISP101_8
   \   00052F   12....       LCALL     ?Subroutine20 & 0xFFFF
    407          		InitNVStatus = osal_nv_item_init(ZD_NV_PORT_ID, PORT_MAX_LENGTH, NULL);
   \                     ??CrossCallReturnLabel_89:
   \   000532   12....       LCALL     ?PUSH_XSTACK_I_TWO
   \   000535   7C08         MOV       R4,#0x8
   \   000537   7D00         MOV       R5,#0x0
   \   000539   7A30         MOV       R2,#0x30
   \   00053B   12....       LCALL     ?Subroutine27 & 0xFFFF
   \                     ??CrossCallReturnLabel_78:
   \   00053E   12....       LCALL     ?DEALLOC_XSTACK8
   \   000541   E9           MOV       A,R1
   \   000542   FE           MOV       R6,A
    408          		readNVStatus = osal_nv_read(ZD_NV_PORT_ID, 0, PORT_MAX_LENGTH, PORT);
    409          		if (readNVStatus != SUCCESS || InitNVStatus != SUCCESS) {
   \   000543                ; Setup parameters for call to function osal_nv_read
   \   000543   7402         MOV       A,#0x2
   \   000545   12....       LCALL     ?XSTACK_DISP100_8
   \   000548   88..         MOV       ?V2,R0
   \   00054A   89..         MOV       ?V3,R1
   \   00054C   78..         MOV       R0,#?V2
   \   00054E   12....       LCALL     ?PUSH_XSTACK_I_TWO
   \   000551   75..08       MOV       ?V2,#0x8
   \   000554   75..00       MOV       ?V3,#0x0
   \   000557   78..         MOV       R0,#?V2
   \   000559   12....       LCALL     ?PUSH_XSTACK_I_TWO
   \   00055C   7C00         MOV       R4,#0x0
   \   00055E   7D00         MOV       R5,#0x0
   \   000560   7A30         MOV       R2,#0x30
   \   000562   12....       LCALL     ?Subroutine31 & 0xFFFF
   \                     ??CrossCallReturnLabel_64:
   \   000565   12....       LCALL     ?DEALLOC_XSTACK8
   \   000568   E9           MOV       A,R1
   \   000569   7003         JNZ       ??SampleApp_ProcessEvent_33
   \   00056B   EE           MOV       A,R6
   \   00056C   600C         JZ        ??SampleApp_ProcessEvent_34
    410          			debug("Read Flash Failed\r\n");
   \                     ??SampleApp_ProcessEvent_33:
   \   00056E                ; Setup parameters for call to function _UARTSend
   \   00056E   7A..         MOV       R2,#`?<Constant "Read Flash Failed\\r\\n">` & 0xff
   \   000570   7B..         MOV       R3,#(`?<Constant "Read Flash Failed\\r\\n">` >> 8) & 0xff
   \   000572   7900         MOV       R1,#0x0
   \   000574   12....       LCALL     `??_UARTSend::?relay`; Banked call to: _UARTSend
    411          			return (events ^ SAMPLEAPP_INITIALIZE_WIFI_EVT);
   \   000577   02....       LJMP      ??CrossCallReturnLabel_92 & 0xFFFF
    412          		}
    413          		debug(PORT);
   \                     ??SampleApp_ProcessEvent_34:
   \   00057A                ; Setup parameters for call to function _UARTSend
   \   00057A   7402         MOV       A,#0x2
   \   00057C   12....       LCALL     ?XSTACK_DISP101_8
   \   00057F   7900         MOV       R1,#0x0
   \   000581   12....       LCALL     `??_UARTSend::?relay`; Banked call to: _UARTSend
    414          
    415          		do debug_and_print("AT+CWMODE=1\r\n");
   \                     ??SampleApp_ProcessEvent_35:
   \   000584                ; Setup parameters for call to function _UARTSend
   \   000584   7A..         MOV       R2,#`?<Constant "AT+CWMODE=1\\r\\n">` & 0xff
   \   000586   7B..         MOV       R3,#(`?<Constant "AT+CWMODE=1\\r\\n">` >> 8) & 0xff
   \   000588   7900         MOV       R1,#0x0
   \   00058A   12....       LCALL     `??_UARTSend::?relay`; Banked call to: _UARTSend
   \   00058D                ; Setup parameters for call to function _UARTSend
   \   00058D   7A..         MOV       R2,#`?<Constant "AT+CWMODE=1\\r\\n">` & 0xff
   \   00058F   7B..         MOV       R3,#(`?<Constant "AT+CWMODE=1\\r\\n">` >> 8) & 0xff
   \   000591   7901         MOV       R1,#0x1
   \   000593   12....       LCALL     ??Subroutine40_0 & 0xFFFF
    416          		while (wait_for("OK\r\n", "ERROR\r\n", 0));
   \                     ??CrossCallReturnLabel_90:
   \   000596   12....       LCALL     ?PUSH_XSTACK_I_TWO
   \   000599   12....       LCALL     ?Subroutine18 & 0xFFFF
   \                     ??CrossCallReturnLabel_115:
   \   00059C   12....       LCALL     ?DEALLOC_XSTACK8
   \   00059F   B900E2       CJNE      R1,#0x0,??SampleApp_ProcessEvent_35
    417          		do debug_and_print("AT+CWJAP=\"%s\",\"%s\"\r\n", SSID, PSWD);
   \                     ??SampleApp_ProcessEvent_36:
   \   0005A2                ; Setup parameters for call to function _UARTSend
   \   0005A2   7437         MOV       A,#0x37
   \   0005A4   12....       LCALL     ?XSTACK_DISP100_8
   \   0005A7   88..         MOV       ?V2,R0
   \   0005A9   89..         MOV       ?V3,R1
   \   0005AB   78..         MOV       R0,#?V2
   \   0005AD   12....       LCALL     ?PUSH_XSTACK_I_TWO
   \   0005B0   744D         MOV       A,#0x4d
   \   0005B2   12....       LCALL     ?XSTACK_DISP100_8
   \   0005B5   88..         MOV       ?V2,R0
   \   0005B7   89..         MOV       ?V3,R1
   \   0005B9   78..         MOV       R0,#?V2
   \   0005BB   12....       LCALL     ?PUSH_XSTACK_I_TWO
   \   0005BE   7A..         MOV       R2,#`?<Constant "AT+CWJAP=\\"%s\\",\\"%s\\"\\r\\n">` & 0xff
   \   0005C0   7B..         MOV       R3,#(`?<Constant "AT+CWJAP=\\"%s\\",\\"%s\\"\\r\\n">` >> 8) & 0xff
   \   0005C2   12....       LCALL     ?Subroutine24 & 0xFFFF
   \                     ??CrossCallReturnLabel_83:
   \   0005C5   12....       LCALL     ?DEALLOC_XSTACK8
   \   0005C8                ; Setup parameters for call to function _UARTSend
   \   0005C8   7437         MOV       A,#0x37
   \   0005CA   12....       LCALL     ?XSTACK_DISP100_8
   \   0005CD   88..         MOV       ?V2,R0
   \   0005CF   89..         MOV       ?V3,R1
   \   0005D1   78..         MOV       R0,#?V2
   \   0005D3   12....       LCALL     ?PUSH_XSTACK_I_TWO
   \   0005D6   744D         MOV       A,#0x4d
   \   0005D8   12....       LCALL     ?XSTACK_DISP100_8
   \   0005DB   88..         MOV       ?V2,R0
   \   0005DD   89..         MOV       ?V3,R1
   \   0005DF   78..         MOV       R0,#?V2
   \   0005E1   12....       LCALL     ?PUSH_XSTACK_I_TWO
   \   0005E4   7A..         MOV       R2,#`?<Constant "AT+CWJAP=\\"%s\\",\\"%s\\"\\r\\n">` & 0xff
   \   0005E6   7B..         MOV       R3,#(`?<Constant "AT+CWJAP=\\"%s\\",\\"%s\\"\\r\\n">` >> 8) & 0xff
   \   0005E8   7901         MOV       R1,#0x1
   \   0005EA   12....       LCALL     ??Subroutine39_0 & 0xFFFF
   \                     ??CrossCallReturnLabel_85:
   \   0005ED   12....       LCALL     ?DEALLOC_XSTACK8
    418          		while (wait_for("OK\r\n", "FAIL\r\n", 0));
   \   0005F0                ; Setup parameters for call to function wait_for
   \   0005F0   E4           CLR       A
   \   0005F1   F5..         MOV       ?V2,A
   \   0005F3   F5..         MOV       ?V3,A
   \   0005F5   78..         MOV       R0,#?V2
   \   0005F7   12....       LCALL     ?PUSH_XSTACK_I_TWO
   \   0005FA   7C..         MOV       R4,#`?<Constant "FAIL\\r\\n">` & 0xff
   \   0005FC   7D..         MOV       R5,#(`?<Constant "FAIL\\r\\n">` >> 8) & 0xff
   \   0005FE   12....       LCALL     ??Subroutine47_0 & 0xFFFF
   \                     ??CrossCallReturnLabel_118:
   \   000601   12....       LCALL     ?DEALLOC_XSTACK8
   \   000604   B9009B       CJNE      R1,#0x0,??SampleApp_ProcessEvent_36
    419          		do debug_and_print("AT+CIPMUX=0\r\n");
   \                     ??SampleApp_ProcessEvent_37:
   \   000607                ; Setup parameters for call to function _UARTSend
   \   000607   7A..         MOV       R2,#`?<Constant "AT+CIPMUX=0\\r\\n">` & 0xff
   \   000609   7B..         MOV       R3,#(`?<Constant "AT+CIPMUX=0\\r\\n">` >> 8) & 0xff
   \   00060B   7900         MOV       R1,#0x0
   \   00060D   12....       LCALL     `??_UARTSend::?relay`; Banked call to: _UARTSend
   \   000610                ; Setup parameters for call to function _UARTSend
   \   000610   7A..         MOV       R2,#`?<Constant "AT+CIPMUX=0\\r\\n">` & 0xff
   \   000612   7B..         MOV       R3,#(`?<Constant "AT+CIPMUX=0\\r\\n">` >> 8) & 0xff
   \   000614   12....       LCALL     ?Subroutine22 & 0xFFFF
    420          		while (wait_for("OK\r\n", "ERROR\r\n", 0));
   \                     ??CrossCallReturnLabel_36:
   \   000617   12....       LCALL     ?PUSH_XSTACK_I_TWO
   \   00061A   12....       LCALL     ?Subroutine18 & 0xFFFF
   \                     ??CrossCallReturnLabel_116:
   \   00061D   12....       LCALL     ?DEALLOC_XSTACK8
   \   000620   B900E4       CJNE      R1,#0x0,??SampleApp_ProcessEvent_37
    421          		do debug_and_print("AT+CIPMODE=1\r\n");
   \                     ??SampleApp_ProcessEvent_38:
   \   000623                ; Setup parameters for call to function _UARTSend
   \   000623   7A..         MOV       R2,#`?<Constant "AT+CIPMODE=1\\r\\n">` & 0xff
   \   000625   7B..         MOV       R3,#(`?<Constant "AT+CIPMODE=1\\r\\n">` >> 8) & 0xff
   \   000627   7900         MOV       R1,#0x0
   \   000629   12....       LCALL     `??_UARTSend::?relay`; Banked call to: _UARTSend
   \   00062C                ; Setup parameters for call to function _UARTSend
   \   00062C   7A..         MOV       R2,#`?<Constant "AT+CIPMODE=1\\r\\n">` & 0xff
   \   00062E   7B..         MOV       R3,#(`?<Constant "AT+CIPMODE=1\\r\\n">` >> 8) & 0xff
   \   000630   12....       LCALL     ?Subroutine22 & 0xFFFF
    422          		while (wait_for("OK\r\n", "ERROR\r\n", 0));
   \                     ??CrossCallReturnLabel_37:
   \   000633   12....       LCALL     ?PUSH_XSTACK_I_TWO
   \   000636   12....       LCALL     ?Subroutine18 & 0xFFFF
   \                     ??CrossCallReturnLabel_117:
   \   000639   12....       LCALL     ?DEALLOC_XSTACK8
   \   00063C   B900E4       CJNE      R1,#0x0,??SampleApp_ProcessEvent_38
    423          		do debug_and_print("AT+CIPSTART=\"TCP\",\"%s\",%s\r\n", MYIP, PORT);
   \                     ??SampleApp_ProcessEvent_39:
   \   00063F                ; Setup parameters for call to function _UARTSend
   \   00063F   7402         MOV       A,#0x2
   \   000641   12....       LCALL     ?XSTACK_DISP100_8
   \   000644   88..         MOV       ?V2,R0
   \   000646   89..         MOV       ?V3,R1
   \   000648   78..         MOV       R0,#?V2
   \   00064A   12....       LCALL     ?PUSH_XSTACK_I_TWO
   \   00064D   7429         MOV       A,#0x29
   \   00064F   12....       LCALL     ?XSTACK_DISP100_8
   \   000652   88..         MOV       ?V2,R0
   \   000654   89..         MOV       ?V3,R1
   \   000656   78..         MOV       R0,#?V2
   \   000658   12....       LCALL     ?PUSH_XSTACK_I_TWO
   \   00065B   7A..         MOV       R2,#`?<Constant "AT+CIPSTART=\\"TCP\\",\\"%s...">` & 0xff
   \   00065D   7B..         MOV       R3,#(`?<Constant "AT+CIPSTART=\\"TCP\\",\\"%s...">` >> 8) & 0xff
   \   00065F   12....       LCALL     ?Subroutine24 & 0xFFFF
   \                     ??CrossCallReturnLabel_84:
   \   000662   12....       LCALL     ?DEALLOC_XSTACK8
   \   000665                ; Setup parameters for call to function _UARTSend
   \   000665   7402         MOV       A,#0x2
   \   000667   12....       LCALL     ?XSTACK_DISP100_8
   \   00066A   88..         MOV       ?V2,R0
   \   00066C   89..         MOV       ?V3,R1
   \   00066E   78..         MOV       R0,#?V2
   \   000670   12....       LCALL     ?PUSH_XSTACK_I_TWO
   \   000673   7429         MOV       A,#0x29
   \   000675   12....       LCALL     ?XSTACK_DISP100_8
   \   000678   88..         MOV       ?V2,R0
   \   00067A   89..         MOV       ?V3,R1
   \   00067C   78..         MOV       R0,#?V2
   \   00067E   12....       LCALL     ?PUSH_XSTACK_I_TWO
   \   000681   7A..         MOV       R2,#`?<Constant "AT+CIPSTART=\\"TCP\\",\\"%s...">` & 0xff
   \   000683   7B..         MOV       R3,#(`?<Constant "AT+CIPSTART=\\"TCP\\",\\"%s...">` >> 8) & 0xff
   \   000685   7901         MOV       R1,#0x1
   \   000687   12....       LCALL     ??Subroutine39_0 & 0xFFFF
   \                     ??CrossCallReturnLabel_86:
   \   00068A   12....       LCALL     ?DEALLOC_XSTACK8
    424          		while (wait_for("OK\r\n", "CLOSED\r\n", 0));
   \   00068D                ; Setup parameters for call to function wait_for
   \   00068D   E4           CLR       A
   \   00068E   F5..         MOV       ?V2,A
   \   000690   F5..         MOV       ?V3,A
   \   000692   78..         MOV       R0,#?V2
   \   000694   12....       LCALL     ?PUSH_XSTACK_I_TWO
   \   000697   7C..         MOV       R4,#`?<Constant "CLOSED\\r\\n">` & 0xff
   \   000699   7D..         MOV       R5,#(`?<Constant "CLOSED\\r\\n">` >> 8) & 0xff
   \   00069B   12....       LCALL     ??Subroutine47_0 & 0xFFFF
   \                     ??CrossCallReturnLabel_119:
   \   00069E   12....       LCALL     ?DEALLOC_XSTACK8
   \   0006A1   B9009B       CJNE      R1,#0x0,??SampleApp_ProcessEvent_39
    425          		
    426          		// drive initial events
    427          		_delay_ms(50);
   \   0006A4                ; Setup parameters for call to function _delay_ms
   \   0006A4   7A32         MOV       R2,#0x32
   \   0006A6   7B00         MOV       R3,#0x0
   \   0006A8   12....       LCALL     `??_delay_ms::?relay`; Banked call to: _delay_ms
    428          		osal_set_event(SampleApp_TaskID, SAMPLEAPP_SEND_HEART_BEAT_EVT);
   \   0006AB                ; Setup parameters for call to function osal_set_event
   \   0006AB   12....       LCALL     ?Subroutine12 & 0xFFFF
    429          		return (events ^ SAMPLEAPP_INITIALIZE_WIFI_EVT);
   \                     ??CrossCallReturnLabel_92:
   \   0006AE   E5..         MOV       A,?V0
   \   0006B0   6404         XRL       A,#0x4
   \   0006B2   02....       LJMP      ??SampleApp_ProcessEvent_10 & 0xFFFF
    430          	}
    431          
    432          	if (events & SAMPLEAPP_SEND_HEART_BEAT_EVT) {
   \                     ??SampleApp_ProcessEvent_32:
   \   0006B5   EA           MOV       A,R2
   \   0006B6   5408         ANL       A,#0x8
   \   0006B8   7003         JNZ       $+5
   \   0006BA   02....       LJMP      ??SampleApp_ProcessEvent_40 & 0xFFFF
    433          		_zigbeeSendCnt = 0;
   \   0006BD   90....       MOV       DPTR,#_zigbeeSendCnt
   \   0006C0   E4           CLR       A
   \   0006C1   F0           MOVX      @DPTR,A
    434                  if (_jumpBackID == 0) {
   \   0006C2   90....       MOV       DPTR,#_jumpBackID
   \   0006C5   E0           MOVX      A,@DPTR
   \   0006C6   6003         JZ        $+5
   \   0006C8   02....       LJMP      ??SampleApp_ProcessEvent_41 & 0xFFFF
    435                      length = WiFiRecvServer(_buffer);
   \   0006CB                ; Setup parameters for call to function WiFiRecvServer
   \   0006CB   745F         MOV       A,#0x5f
   \   0006CD   12....       LCALL     ?XSTACK_DISP101_8
   \   0006D0   12....       LCALL     `??WiFiRecvServer::?relay`; Banked call to: WiFiRecvServer
   \   0006D3   85..82       MOV       DPL,?XSP + 0
   \   0006D6   85..83       MOV       DPH,?XSP + 1
   \   0006D9   EA           MOV       A,R2
   \   0006DA   F0           MOVX      @DPTR,A
   \   0006DB   A3           INC       DPTR
   \   0006DC   EB           MOV       A,R3
   \   0006DD   F0           MOVX      @DPTR,A
    436              		debug(_buffer);
   \   0006DE                ; Setup parameters for call to function _UARTSend
   \   0006DE   745F         MOV       A,#0x5f
   \   0006E0   12....       LCALL     ?XSTACK_DISP101_8
   \   0006E3   7900         MOV       R1,#0x0
   \   0006E5   12....       LCALL     `??_UARTSend::?relay`; Banked call to: _UARTSend
    437              		if (osal_memcmp(_buffer, "heartbeat\r\n", 11)) { // 蹇璺冲
   \   0006E8                ; Setup parameters for call to function osal_memcmp
   \   0006E8   75....       MOV       ?V4,#`?<Constant "heartbeat\\r\\n">` & 0xff
   \   0006EB   75....       MOV       ?V5,#(`?<Constant "heartbeat\\r\\n">` >> 8) & 0xff
   \   0006EE   75..00       MOV       ?V6,#0x0
   \   0006F1   78..         MOV       R0,#?V4
   \   0006F3   12....       LCALL     ?PUSH_XSTACK_I_THREE
   \   0006F6   7C0B         MOV       R4,#0xb
   \   0006F8   7D00         MOV       R5,#0x0
   \   0006FA   7462         MOV       A,#0x62
   \   0006FC   12....       LCALL     ?XSTACK_DISP0_8
   \   0006FF   12....       LCALL     ?Subroutine25 & 0xFFFF
   \                     ??CrossCallReturnLabel_47:
   \   000702   12....       LCALL     ?DEALLOC_XSTACK8
   \   000705   E9           MOV       A,R1
   \   000706   600A         JZ        ??SampleApp_ProcessEvent_42
    438              			WiFiSendServer("received");
   \   000708                ; Setup parameters for call to function WiFiSendServer
   \   000708   7A..         MOV       R2,#`?<Constant "received">` & 0xff
   \   00070A   7B..         MOV       R3,#(`?<Constant "received">` >> 8) & 0xff
   \   00070C   12....       LCALL     `??WiFiSendServer::?relay`; Banked call to: WiFiSendServer
   \   00070F   02....       LJMP      ??SampleApp_ProcessEvent_43 & 0xFFFF
    439              		} else
    440              		if (osal_memcmp(_buffer, "environment\r\n", 13)) { // 峰浼ㄦ版
   \                     ??SampleApp_ProcessEvent_42:
   \   000712                ; Setup parameters for call to function osal_memcmp
   \   000712   75....       MOV       ?V4,#`?<Constant "environment\\r\\n">` & 0xff
   \   000715   75....       MOV       ?V5,#(`?<Constant "environment\\r\\n">` >> 8) & 0xff
   \   000718   78..         MOV       R0,#?V4
   \   00071A   12....       LCALL     ?PUSH_XSTACK_I_THREE
   \   00071D   7C0D         MOV       R4,#0xd
   \   00071F   7D00         MOV       R5,#0x0
   \   000721   7462         MOV       A,#0x62
   \   000723   12....       LCALL     ?XSTACK_DISP0_8
   \   000726   12....       LCALL     ?Subroutine25 & 0xFFFF
   \                     ??CrossCallReturnLabel_48:
   \   000729   12....       LCALL     ?DEALLOC_XSTACK8
   \   00072C   E9           MOV       A,R1
   \   00072D   601A         JZ        ??SampleApp_ProcessEvent_44
    441                          _jumpBackID = 2;
   \   00072F   90....       MOV       DPTR,#_jumpBackID
   \   000732   7402         MOV       A,#0x2
   \   000734   F0           MOVX      @DPTR,A
    442                          _zigbeeRecvFlag = 0;
   \   000735   90....       MOV       DPTR,#_zigbeeRecvFlag
   \   000738   E4           CLR       A
   \   000739   F0           MOVX      @DPTR,A
    443                          _zigbeeSendTimes = 2;
   \   00073A   90....       MOV       DPTR,#_zigbeeSendTimes
   \   00073D   7402         MOV       A,#0x2
   \   00073F   F0           MOVX      @DPTR,A
    444                          osal_memcpy(_zigbeeSendBuffer, "E1\r\n\0", 5);
   \   000740                ; Setup parameters for call to function osal_memcpy
   \   000740   75....       MOV       ?V4,#`?<Constant "E1\\r\\n\\000">` & 0xff
   \   000743   75....       MOV       ?V5,#(`?<Constant "E1\\r\\n\\000">` >> 8) & 0xff
   \   000746   02....       LJMP      ??SampleApp_ProcessEvent_45 & 0xFFFF
    445                          osal_set_event(SampleApp_TaskID, SAMPLEAPP_SEND_PERIODIC_MSG_EVT);
    446                          return (events ^ SAMPLEAPP_SEND_HEART_BEAT_EVT);
    447              		} else 
    448              		// if (osal_memcmp(_buffer, "temperature", 11)) { // 娓╁害
    449              		// 	_zigbeeSend("temperature\r\n\0");
    450              		// 	// WiFiSendServer("OK");
    451              		// } else
    452              		// if (osal_memcmp(_buffer, "humidity", 8)) { // 婀垮害
    453              		// 	_zigbeeSend("humidity\r\n");
    454              		// 	// WiFiSendServer("OK");
    455              		// } else
    456              		if (osal_memcmp(_buffer, "light-on\r\n", 10)) { // 圭
   \                     ??SampleApp_ProcessEvent_44:
   \   000749                ; Setup parameters for call to function osal_memcmp
   \   000749   75....       MOV       ?V4,#`?<Constant "light-on\\r\\n">` & 0xff
   \   00074C   75....       MOV       ?V5,#(`?<Constant "light-on\\r\\n">` >> 8) & 0xff
   \   00074F   78..         MOV       R0,#?V4
   \   000751   12....       LCALL     ?PUSH_XSTACK_I_THREE
   \   000754   7C0A         MOV       R4,#0xa
   \   000756   7D00         MOV       R5,#0x0
   \   000758   7462         MOV       A,#0x62
   \   00075A   12....       LCALL     ?XSTACK_DISP0_8
   \   00075D   12....       LCALL     ?Subroutine25 & 0xFFFF
   \                     ??CrossCallReturnLabel_49:
   \   000760   12....       LCALL     ?DEALLOC_XSTACK8
   \   000763   E9           MOV       A,R1
   \   000764   600B         JZ        ??SampleApp_ProcessEvent_46
    457              			_jumpBackID = 1;
   \   000766   12....       LCALL     ?Subroutine6 & 0xFFFF
    458                          _zigbeeSendTimes = 2;
    459                          osal_memcpy(_zigbeeSendBuffer, "light-on\r\n\0", 11);
   \                     ??CrossCallReturnLabel_6:
   \   000769                ; Setup parameters for call to function osal_memcpy
   \   000769   75....       MOV       ?V4,#`?<Constant "light-on\\r\\n\\000">` & 0xff
   \   00076C   75....       MOV       ?V5,#(`?<Constant "light-on\\r\\n\\000">` >> 8) & 0xff
   \   00076F   8056         SJMP      ??SampleApp_ProcessEvent_47
    460              			osal_set_event(SampleApp_TaskID, SAMPLEAPP_SEND_PERIODIC_MSG_EVT);
    461                          return (events ^ SAMPLEAPP_SEND_HEART_BEAT_EVT);
    462              		} else
    463                      if (osal_memcmp(_buffer, "light-off\r\n", 11)) { // 圭
   \                     ??SampleApp_ProcessEvent_46:
   \   000771                ; Setup parameters for call to function osal_memcmp
   \   000771   75....       MOV       ?V4,#`?<Constant "light-off\\r\\n">` & 0xff
   \   000774   75....       MOV       ?V5,#(`?<Constant "light-off\\r\\n">` >> 8) & 0xff
   \   000777   78..         MOV       R0,#?V4
   \   000779   12....       LCALL     ?PUSH_XSTACK_I_THREE
   \   00077C   7C0B         MOV       R4,#0xb
   \   00077E   7D00         MOV       R5,#0x0
   \   000780   7462         MOV       A,#0x62
   \   000782   12....       LCALL     ?XSTACK_DISP0_8
   \   000785   12....       LCALL     ?Subroutine25 & 0xFFFF
   \                     ??CrossCallReturnLabel_50:
   \   000788   12....       LCALL     ?DEALLOC_XSTACK8
   \   00078B   E9           MOV       A,R1
   \   00078C   6013         JZ        ??SampleApp_ProcessEvent_48
    464                          _jumpBackID = 1;
   \   00078E   12....       LCALL     ?Subroutine6 & 0xFFFF
    465                          _zigbeeSendTimes = 2;
    466                          osal_memcpy(_zigbeeSendBuffer, "light-off\r\n\0", 12);
   \                     ??CrossCallReturnLabel_7:
   \   000791                ; Setup parameters for call to function osal_memcpy
   \   000791   75....       MOV       ?V4,#`?<Constant "light-off\\r\\n\\000">` & 0xff
   \   000794   75....       MOV       ?V5,#(`?<Constant "light-off\\r\\n\\000">` >> 8) & 0xff
   \   000797   78..         MOV       R0,#?V4
   \   000799   12....       LCALL     ?PUSH_XSTACK_I_THREE
   \   00079C   7C0C         MOV       R4,#0xc
   \   00079E   02....       LJMP      ??SampleApp_ProcessEvent_49 & 0xFFFF
    467                          osal_set_event(SampleApp_TaskID, SAMPLEAPP_SEND_PERIODIC_MSG_EVT);
    468                          return (events ^ SAMPLEAPP_SEND_HEART_BEAT_EVT);
    469                      } else
    470              		if (osal_memcmp(_buffer, "humidify\r\n", 10)) { // 婀
   \                     ??SampleApp_ProcessEvent_48:
   \   0007A1                ; Setup parameters for call to function osal_memcmp
   \   0007A1   75....       MOV       ?V4,#`?<Constant "humidify\\r\\n">` & 0xff
   \   0007A4   75....       MOV       ?V5,#(`?<Constant "humidify\\r\\n">` >> 8) & 0xff
   \   0007A7   78..         MOV       R0,#?V4
   \   0007A9   12....       LCALL     ?PUSH_XSTACK_I_THREE
   \   0007AC   7C0A         MOV       R4,#0xa
   \   0007AE   7D00         MOV       R5,#0x0
   \   0007B0   7462         MOV       A,#0x62
   \   0007B2   12....       LCALL     ?XSTACK_DISP0_8
   \   0007B5   12....       LCALL     ?Subroutine25 & 0xFFFF
   \                     ??CrossCallReturnLabel_51:
   \   0007B8   12....       LCALL     ?DEALLOC_XSTACK8
   \   0007BB   E9           MOV       A,R1
   \   0007BC   6013         JZ        ??SampleApp_ProcessEvent_50
    471              			_jumpBackID = 1;
   \   0007BE   12....       LCALL     ?Subroutine6 & 0xFFFF
    472                          _zigbeeSendTimes = 2;
    473                          osal_memcpy(_zigbeeSendBuffer, "humidify\r\n\0", 11);
   \                     ??CrossCallReturnLabel_8:
   \   0007C1                ; Setup parameters for call to function osal_memcpy
   \   0007C1   75....       MOV       ?V4,#`?<Constant "humidify\\r\\n\\000">` & 0xff
   \   0007C4   75....       MOV       ?V5,#(`?<Constant "humidify\\r\\n\\000">` >> 8) & 0xff
   \                     ??SampleApp_ProcessEvent_47:
   \   0007C7   78..         MOV       R0,#?V4
   \   0007C9   12....       LCALL     ?PUSH_XSTACK_I_THREE
   \   0007CC   7C0B         MOV       R4,#0xb
   \   0007CE   02....       LJMP      ??SampleApp_ProcessEvent_49 & 0xFFFF
    474                          osal_set_event(SampleApp_TaskID, SAMPLEAPP_SEND_PERIODIC_MSG_EVT);
    475                          return (events ^ SAMPLEAPP_SEND_HEART_BEAT_EVT);
    476              		} else
    477              		if (osal_memcmp(_buffer, "stop-humidify\r\n", 15)) { // 姝㈠婀
   \                     ??SampleApp_ProcessEvent_50:
   \   0007D1                ; Setup parameters for call to function osal_memcmp
   \   0007D1   75....       MOV       ?V4,#`?<Constant "stop-humidify\\r\\n">` & 0xff
   \   0007D4   75....       MOV       ?V5,#(`?<Constant "stop-humidify\\r\\n">` >> 8) & 0xff
   \   0007D7   78..         MOV       R0,#?V4
   \   0007D9   12....       LCALL     ?PUSH_XSTACK_I_THREE
   \   0007DC   7C0F         MOV       R4,#0xf
   \   0007DE   7D00         MOV       R5,#0x0
   \   0007E0   7462         MOV       A,#0x62
   \   0007E2   12....       LCALL     ?XSTACK_DISP0_8
   \   0007E5   12....       LCALL     ?Subroutine25 & 0xFFFF
   \                     ??CrossCallReturnLabel_52:
   \   0007E8   12....       LCALL     ?DEALLOC_XSTACK8
   \   0007EB   E9           MOV       A,R1
   \   0007EC   6013         JZ        ??SampleApp_ProcessEvent_51
    478              			_jumpBackID = 1;
   \   0007EE   12....       LCALL     ?Subroutine6 & 0xFFFF
    479                          _zigbeeSendTimes = 2;
    480                          osal_memcpy(_zigbeeSendBuffer, "stop-humidify\r\n\0", 16);
   \                     ??CrossCallReturnLabel_9:
   \   0007F1                ; Setup parameters for call to function osal_memcpy
   \   0007F1   75....       MOV       ?V4,#`?<Constant "stop-humidify\\r\\n\\000">` & 0xff
   \   0007F4   75....       MOV       ?V5,#(`?<Constant "stop-humidify\\r\\n\\000">` >> 8) & 0xff
   \   0007F7   78..         MOV       R0,#?V4
   \   0007F9   12....       LCALL     ?PUSH_XSTACK_I_THREE
   \   0007FC   7C10         MOV       R4,#0x10
   \   0007FE   02....       LJMP      ??SampleApp_ProcessEvent_49 & 0xFFFF
    481                          osal_set_event(SampleApp_TaskID, SAMPLEAPP_SEND_PERIODIC_MSG_EVT);
    482                          return (events ^ SAMPLEAPP_SEND_HEART_BEAT_EVT);
    483              		} else
    484              		if (osal_memcmp(_buffer, "drain-water\r\n", 13)) { // 姘
   \                     ??SampleApp_ProcessEvent_51:
   \   000801                ; Setup parameters for call to function osal_memcmp
   \   000801   75....       MOV       ?V4,#`?<Constant "drain-water\\r\\n">` & 0xff
   \   000804   75....       MOV       ?V5,#(`?<Constant "drain-water\\r\\n">` >> 8) & 0xff
   \   000807   78..         MOV       R0,#?V4
   \   000809   12....       LCALL     ?PUSH_XSTACK_I_THREE
   \   00080C   7C0D         MOV       R4,#0xd
   \   00080E   7D00         MOV       R5,#0x0
   \   000810   7462         MOV       A,#0x62
   \   000812   12....       LCALL     ?XSTACK_DISP0_8
   \   000815   12....       LCALL     ?Subroutine25 & 0xFFFF
   \                     ??CrossCallReturnLabel_53:
   \   000818   12....       LCALL     ?DEALLOC_XSTACK8
   \   00081B   E9           MOV       A,R1
   \   00081C   6012         JZ        ??SampleApp_ProcessEvent_52
    485                          _jumpBackID = 1;
   \   00081E   12....       LCALL     ?Subroutine6 & 0xFFFF
    486                          _zigbeeSendTimes = 2;
    487                          osal_memcpy(_zigbeeSendBuffer, "drain-water\r\n\0", 14);
   \                     ??CrossCallReturnLabel_10:
   \   000821                ; Setup parameters for call to function osal_memcpy
   \   000821   75....       MOV       ?V4,#`?<Constant "drain-water\\r\\n\\000">` & 0xff
   \   000824   75....       MOV       ?V5,#(`?<Constant "drain-water\\r\\n\\000">` >> 8) & 0xff
   \   000827   78..         MOV       R0,#?V4
   \   000829   12....       LCALL     ?PUSH_XSTACK_I_THREE
   \   00082C   7C0E         MOV       R4,#0xe
   \   00082E   807F         SJMP      ??SampleApp_ProcessEvent_49
    488                          osal_set_event(SampleApp_TaskID, SAMPLEAPP_SEND_PERIODIC_MSG_EVT);
    489                          return (events ^ SAMPLEAPP_SEND_HEART_BEAT_EVT);
    490              		} else
    491              		if (osal_memcmp(_buffer, "change-water\r\n", 14)) { // ㈡按
   \                     ??SampleApp_ProcessEvent_52:
   \   000830                ; Setup parameters for call to function osal_memcmp
   \   000830   75....       MOV       ?V4,#`?<Constant "change-water\\r\\n">` & 0xff
   \   000833   75....       MOV       ?V5,#(`?<Constant "change-water\\r\\n">` >> 8) & 0xff
   \   000836   78..         MOV       R0,#?V4
   \   000838   12....       LCALL     ?PUSH_XSTACK_I_THREE
   \   00083B   7C0E         MOV       R4,#0xe
   \   00083D   7D00         MOV       R5,#0x0
   \   00083F   7462         MOV       A,#0x62
   \   000841   12....       LCALL     ?XSTACK_DISP0_8
   \   000844   12....       LCALL     ?Subroutine25 & 0xFFFF
   \                     ??CrossCallReturnLabel_54:
   \   000847   12....       LCALL     ?DEALLOC_XSTACK8
   \   00084A   E9           MOV       A,R1
   \   00084B   6012         JZ        ??SampleApp_ProcessEvent_53
    492              			_jumpBackID = 1;
   \   00084D   12....       LCALL     ?Subroutine6 & 0xFFFF
    493                          _zigbeeSendTimes = 2;
    494                          osal_memcpy(_zigbeeSendBuffer, "change-water\r\n\0", 15);
   \                     ??CrossCallReturnLabel_11:
   \   000850                ; Setup parameters for call to function osal_memcpy
   \   000850   75....       MOV       ?V4,#`?<Constant "change-water\\r\\n\\000">` & 0xff
   \   000853   75....       MOV       ?V5,#(`?<Constant "change-water\\r\\n\\000">` >> 8) & 0xff
   \   000856   78..         MOV       R0,#?V4
   \   000858   12....       LCALL     ?PUSH_XSTACK_I_THREE
   \   00085B   7C0F         MOV       R4,#0xf
   \   00085D   8050         SJMP      ??SampleApp_ProcessEvent_49
    495                          osal_set_event(SampleApp_TaskID, SAMPLEAPP_SEND_PERIODIC_MSG_EVT);
    496                          return (events ^ SAMPLEAPP_SEND_HEART_BEAT_EVT);
    497              		} else {
    498                          osal_start_timerEx(SampleApp_TaskID, SAMPLEAPP_SEND_HEART_BEAT_EVT, 100);
   \                     ??SampleApp_ProcessEvent_53:
   \   00085F                ; Setup parameters for call to function osal_start_timerEx
   \   00085F   02....       LJMP      ??SampleApp_ProcessEvent_54 & 0xFFFF
    499                          return (events ^ SAMPLEAPP_SEND_HEART_BEAT_EVT);
    500                      }
    501                  } else if (_jumpBackID == 1) {
   \                     ??SampleApp_ProcessEvent_41:
   \   000862   6401         XRL       A,#0x1
   \   000864   7015         JNZ       ??SampleApp_ProcessEvent_55
    502                      WiFiSendServer("OK");
   \   000866                ; Setup parameters for call to function WiFiSendServer
   \   000866   7A..         MOV       R2,#`?<Constant "OK">` & 0xff
   \   000868   7B..         MOV       R3,#(`?<Constant "OK">` >> 8) & 0xff
   \   00086A   12....       LCALL     `??WiFiSendServer::?relay`; Banked call to: WiFiSendServer
    503                      _jumpBackID = 0;
   \   00086D   90....       MOV       DPTR,#_jumpBackID
   \   000870   E4           CLR       A
   \   000871   F0           MOVX      @DPTR,A
    504                      osal_start_timerEx(SampleApp_TaskID, SAMPLEAPP_SEND_HEART_BEAT_EVT, 100);
   \   000872                ; Setup parameters for call to function osal_start_timerEx
   \   000872   7C64         MOV       R4,#0x64
   \   000874   FD           MOV       R5,A
   \   000875   7A08         MOV       R2,#0x8
   \   000877   FB           MOV       R3,A
   \   000878   02....       LJMP      ??SampleApp_ProcessEvent_56 & 0xFFFF
    505                  } else if (_jumpBackID == 2) {
   \                     ??SampleApp_ProcessEvent_55:
   \   00087B   E0           MOVX      A,@DPTR
   \   00087C   6402         XRL       A,#0x2
   \   00087E   7042         JNZ       ??SampleApp_ProcessEvent_57
    506                      cnt = 50;
   \   000880   7E32         MOV       R6,#0x32
   \   000882   7F00         MOV       R7,#0x0
    507                      while (!_zigbeeRecvFlag) {
   \                     ??SampleApp_ProcessEvent_58:
   \   000884   90....       MOV       DPTR,#_zigbeeRecvFlag
   \   000887   E0           MOVX      A,@DPTR
   \   000888   7005         JNZ       ??SampleApp_ProcessEvent_59
    508                          _delay_ms(1);
   \   00088A                ; Setup parameters for call to function _delay_ms
   \   00088A   12....       LCALL     ?Subroutine26 & 0xFFFF
    509                          if (cnt --) break;
    510                      }
   \                     ??CrossCallReturnLabel_80:
   \   00088D   60F5         JZ        ??SampleApp_ProcessEvent_58
    511                      _zigbeeRecvFlag = 0;
   \                     ??SampleApp_ProcessEvent_59:
   \   00088F   90....       MOV       DPTR,#_zigbeeRecvFlag
   \   000892   E4           CLR       A
   \   000893   F0           MOVX      @DPTR,A
    512                      _zigbeeSendTimes = 2;
   \   000894   90....       MOV       DPTR,#_zigbeeSendTimes
   \   000897   7402         MOV       A,#0x2
   \   000899   F0           MOVX      @DPTR,A
    513                      _jumpBackID = 3;
   \   00089A   90....       MOV       DPTR,#_jumpBackID
   \   00089D   04           INC       A
   \   00089E   F0           MOVX      @DPTR,A
    514                      osal_memcpy(_zigbeeSendBuffer, "E2\r\n\0", 5);
   \   00089F                ; Setup parameters for call to function osal_memcpy
   \   00089F   75....       MOV       ?V4,#`?<Constant "E2\\r\\n\\000">` & 0xff
   \   0008A2   75....       MOV       ?V5,#(`?<Constant "E2\\r\\n\\000">` >> 8) & 0xff
   \   0008A5   75..00       MOV       ?V6,#0x0
   \                     ??SampleApp_ProcessEvent_45:
   \   0008A8   78..         MOV       R0,#?V4
   \   0008AA   12....       LCALL     ?PUSH_XSTACK_I_THREE
   \   0008AD   7C05         MOV       R4,#0x5
   \                     ??SampleApp_ProcessEvent_49:
   \   0008AF   7D00         MOV       R5,#0x0
   \   0008B1   7A..         MOV       R2,#_zigbeeSendBuffer & 0xff
   \   0008B3   7B..         MOV       R3,#(_zigbeeSendBuffer >> 8) & 0xff
   \   0008B5   12....       LCALL     ?Subroutine23 & 0xFFFF
   \                     ??CrossCallReturnLabel_39:
   \   0008B8   12....       LCALL     ?DEALLOC_XSTACK8
    515                      osal_set_event(SampleApp_TaskID, SAMPLEAPP_SEND_PERIODIC_MSG_EVT);
   \   0008BB                ; Setup parameters for call to function osal_set_event
   \   0008BB   7A01         MOV       R2,#0x1
   \   0008BD   12....       LCALL     ??Subroutine41_0 & 0xFFFF
    516                  } else if (_jumpBackID == 3) {
   \                     ??CrossCallReturnLabel_96:
   \   0008C0   8065         SJMP      ??SampleApp_ProcessEvent_43
   \                     ??SampleApp_ProcessEvent_57:
   \   0008C2   E0           MOVX      A,@DPTR
   \   0008C3   6403         XRL       A,#0x3
   \   0008C5   7060         JNZ       ??SampleApp_ProcessEvent_43
    517                      cnt = 50;
   \   0008C7   7E32         MOV       R6,#0x32
   \   0008C9   7F00         MOV       R7,#0x0
    518                      while (!_zigbeeRecvFlag) {
   \                     ??SampleApp_ProcessEvent_60:
   \   0008CB   90....       MOV       DPTR,#_zigbeeRecvFlag
   \   0008CE   E0           MOVX      A,@DPTR
   \   0008CF   7005         JNZ       ??SampleApp_ProcessEvent_61
    519                          _delay_ms(1);
   \   0008D1                ; Setup parameters for call to function _delay_ms
   \   0008D1   12....       LCALL     ?Subroutine26 & 0xFFFF
    520                          if (cnt --) break;
    521                      }
   \                     ??CrossCallReturnLabel_81:
   \   0008D4   60F5         JZ        ??SampleApp_ProcessEvent_60
    522                      _zigbeeRecvFlag = 0;
   \                     ??SampleApp_ProcessEvent_61:
   \   0008D6   90....       MOV       DPTR,#_zigbeeRecvFlag
   \   0008D9   E4           CLR       A
   \   0008DA   F0           MOVX      @DPTR,A
    523                      _jumpBackID = 0;
   \   0008DB   90....       MOV       DPTR,#_jumpBackID
   \   0008DE   F0           MOVX      @DPTR,A
    524                      WiFiSendServer("temperature?0=%s,1=%s&humidity?0=%s,1=%s", 
    525                          &temp_humid[0], &temp_humid[6], &temp_humid[3], &temp_humid[9]);
   \   0008DF                ; Setup parameters for call to function WiFiSendServer
   \   0008DF   75....       MOV       ?V2,#(temp_humid + 9) & 0xff
   \   0008E2   75....       MOV       ?V3,#((temp_humid + 9) >> 8) & 0xff
   \   0008E5   78..         MOV       R0,#?V2
   \   0008E7   12....       LCALL     ?PUSH_XSTACK_I_TWO
   \   0008EA   75....       MOV       ?V2,#(temp_humid + 3) & 0xff
   \   0008ED   75....       MOV       ?V3,#((temp_humid + 3) >> 8) & 0xff
   \   0008F0   78..         MOV       R0,#?V2
   \   0008F2   12....       LCALL     ?PUSH_XSTACK_I_TWO
   \   0008F5   75....       MOV       ?V2,#(temp_humid + 6) & 0xff
   \   0008F8   75....       MOV       ?V3,#((temp_humid + 6) >> 8) & 0xff
   \   0008FB   78..         MOV       R0,#?V2
   \   0008FD   12....       LCALL     ?PUSH_XSTACK_I_TWO
   \   000900   75....       MOV       ?V2,#temp_humid & 0xff
   \   000903   75....       MOV       ?V3,#(temp_humid >> 8) & 0xff
   \   000906   78..         MOV       R0,#?V2
   \   000908   12....       LCALL     ?PUSH_XSTACK_I_TWO
   \   00090B   7A..         MOV       R2,#`?<Constant "temperature?0=%s,1=%s...">` & 0xff
   \   00090D   7B..         MOV       R3,#(`?<Constant "temperature?0=%s,1=%s...">` >> 8) & 0xff
   \   00090F   12....       LCALL     `??WiFiSendServer::?relay`; Banked call to: WiFiSendServer
   \   000912   7408         MOV       A,#0x8
   \   000914   12....       LCALL     ?DEALLOC_XSTACK8
    526                      osal_start_timerEx(SampleApp_TaskID, SAMPLEAPP_SEND_HEART_BEAT_EVT, 100);
   \   000917                ; Setup parameters for call to function osal_start_timerEx
   \                     ??SampleApp_ProcessEvent_54:
   \   000917   7C64         MOV       R4,#0x64
   \   000919   7D00         MOV       R5,#0x0
   \   00091B   7A08         MOV       R2,#0x8
   \   00091D   7B00         MOV       R3,#0x0
   \                     ??SampleApp_ProcessEvent_56:
   \   00091F   90....       MOV       DPTR,#SampleApp_TaskID
   \   000922   E0           MOVX      A,@DPTR
   \   000923   F9           MOV       R1,A
   \   000924   12....       LCALL     `??osal_start_timerEx::?relay`; Banked call to: osal_start_timerEx
    527                  }
    528          		return (events ^ SAMPLEAPP_SEND_HEART_BEAT_EVT);
   \                     ??SampleApp_ProcessEvent_43:
   \   000927   E5..         MOV       A,?V0
   \   000929   6408         XRL       A,#0x8
   \                     ??SampleApp_ProcessEvent_10:
   \   00092B   FA           MOV       R2,A
   \   00092C   AB..         MOV       R3,?V1
   \   00092E   8004         SJMP      ??SampleApp_ProcessEvent_7
    529          	}
    530          
    531            // Discard unknown events
    532            return 0;
   \                     ??SampleApp_ProcessEvent_40:
   \   000930   7A00         MOV       R2,#0x0
   \   000932   7B00         MOV       R3,#0x0
   \                     ??SampleApp_ProcessEvent_7:
   \   000934   749F         MOV       A,#-0x61
   \   000936                REQUIRE ?Subroutine1
   \   000936                REQUIRE _A_P0
   \   000936                ; // Fall through to label ?Subroutine1
    533          }

   \                                 In  segment BANKED_CODE, align 1, keep-with-next
   \                     ?Subroutine1:
   \   000000   12....       LCALL     ?DEALLOC_XSTACK8
   \   000003   7F08         MOV       R7,#0x8
   \   000005   02....       LJMP      ?BANKED_LEAVE_XDATA

   \                                 In  segment BANKED_CODE, align 1, keep-with-next
   \                     ?Subroutine31:
   \   000000   7B04         MOV       R3,#0x4
   \   000002   12....       LCALL     `??osal_nv_read::?relay`; Banked call to: osal_nv_read
   \   000005   7404         MOV       A,#0x4
   \   000007   22           RET

   \                                 In  segment BANKED_CODE, align 1, keep-with-next
   \                     ?Subroutine27:
   \   000000   7B04         MOV       R3,#0x4
   \   000002                REQUIRE ??Subroutine37_0
   \   000002                ; // Fall through to label ??Subroutine37_0

   \                                 In  segment BANKED_CODE, align 1, keep-with-next
   \                     ??Subroutine37_0:
   \   000000   12....       LCALL     `??osal_nv_item_init::?relay`; Banked call to: osal_nv_item_init
   \   000003   7402         MOV       A,#0x2
   \   000005   22           RET

   \                                 In  segment BANKED_CODE, align 1, keep-with-next
   \                     ?Subroutine26:
   \   000000   7A01         MOV       R2,#0x1
   \   000002   7B00         MOV       R3,#0x0
   \   000004   12....       LCALL     `??_delay_ms::?relay`; Banked call to: _delay_ms
   \   000007                REQUIRE ??Subroutine38_0
   \   000007                ; // Fall through to label ??Subroutine38_0

   \                                 In  segment BANKED_CODE, align 1, keep-with-next
   \                     ??Subroutine38_0:
   \   000000   EE           MOV       A,R6
   \   000001   F8           MOV       R0,A
   \   000002   EF           MOV       A,R7
   \   000003   F9           MOV       R1,A
   \   000004   E8           MOV       A,R0
   \   000005   24FF         ADD       A,#-0x1
   \   000007   1E           DEC       R6
   \   000008   E9           MOV       A,R1
   \   000009   34FF         ADDC      A,#-0x1
   \   00000B   FF           MOV       R7,A
   \   00000C   E8           MOV       A,R0
   \   00000D   49           ORL       A,R1
   \   00000E   22           RET

   \                                 In  segment BANKED_CODE, align 1, keep-with-next
   \                     ?Subroutine25:
   \   000000   A982         MOV       R1,DPL
   \   000002   AA83         MOV       R2,DPH
   \   000004   7B00         MOV       R3,#0x0
   \   000006   12....       LCALL     `??osal_memcmp::?relay`; Banked call to: osal_memcmp
   \   000009   7403         MOV       A,#0x3
   \   00000B   22           RET

   \                                 In  segment BANKED_CODE, align 1, keep-with-next
   \                     ?Subroutine24:
   \   000000   7900         MOV       R1,#0x0
   \   000002                REQUIRE ??Subroutine39_0
   \   000002                ; // Fall through to label ??Subroutine39_0

   \                                 In  segment BANKED_CODE, align 1, keep-with-next
   \                     ??Subroutine39_0:
   \   000000   12....       LCALL     `??_UARTSend::?relay`; Banked call to: _UARTSend
   \   000003   7404         MOV       A,#0x4
   \   000005   22           RET

   \                                 In  segment BANKED_CODE, align 1, keep-with-next
   \                     ?Subroutine22:
   \   000000   7901         MOV       R1,#0x1
   \   000002   12....       LCALL     `??_UARTSend::?relay`; Banked call to: _UARTSend
   \   000005                ; Setup parameters for call to function wait_for
   \   000005                ; Setup parameters for call to function wait_for
   \   000005                ; Setup parameters for call to function wait_for
   \   000005                ; Setup parameters for call to function wait_for
   \   000005                ; Setup parameters for call to function wait_for
   \   000005                ; Setup parameters for call to function wait_for
   \   000005                ; Setup parameters for call to function wait_for
   \   000005   78..         MOV       R0,#?V2
   \   000007   22           RET

   \                                 In  segment BANKED_CODE, align 1, keep-with-next
   \                     ?Subroutine20:
   \   000000   7900         MOV       R1,#0x0
   \   000002                REQUIRE ??Subroutine40_0
   \   000002                ; // Fall through to label ??Subroutine40_0

   \                                 In  segment BANKED_CODE, align 1, keep-with-next
   \                     ??Subroutine40_0:
   \   000000   12....       LCALL     `??_UARTSend::?relay`; Banked call to: _UARTSend
   \   000003                ; Setup parameters for call to function osal_nv_item_init
   \   000003                ; Setup parameters for call to function osal_nv_item_init
   \   000003                ; Setup parameters for call to function osal_nv_item_init
   \   000003                ; Setup parameters for call to function wait_for
   \   000003   E4           CLR       A
   \   000004   F5..         MOV       ?V2,A
   \   000006   78..         MOV       R0,#?V2
   \   000008   22           RET

   \                                 In  segment BANKED_CODE, align 1, keep-with-next
   \                     ?Subroutine19:
   \   000000   7A..         MOV       R2,#`?<Constant "AT+RST\\r\\n">` & 0xff
   \   000002   7B..         MOV       R3,#(`?<Constant "AT+RST\\r\\n">` >> 8) & 0xff
   \   000004   7900         MOV       R1,#0x0
   \   000006   12....       LCALL     `??_UARTSend::?relay`; Banked call to: _UARTSend
   \   000009                ; Setup parameters for call to function _UARTSend
   \   000009                ; Setup parameters for call to function _UARTSend
   \   000009   7A..         MOV       R2,#`?<Constant "AT+RST\\r\\n">` & 0xff
   \   00000B   7B..         MOV       R3,#(`?<Constant "AT+RST\\r\\n">` >> 8) & 0xff
   \   00000D   7901         MOV       R1,#0x1
   \   00000F   12....       LCALL     `??_UARTSend::?relay`; Banked call to: _UARTSend
   \   000012                ; Setup parameters for call to function wait_for
   \   000012                ; Setup parameters for call to function wait_for
   \   000012   E4           CLR       A
   \   000013   F5..         MOV       ?V2,A
   \   000015   F5..         MOV       ?V3,A
   \   000017   78..         MOV       R0,#?V2
   \   000019   22           RET

   \                                 In  segment BANKED_CODE, align 1, keep-with-next
   \                     ?Subroutine12:
   \   000000   7A08         MOV       R2,#0x8
   \   000002                REQUIRE ??Subroutine41_0
   \   000002                ; // Fall through to label ??Subroutine41_0

   \                                 In  segment BANKED_CODE, align 1, keep-with-next
   \                     ??Subroutine41_0:
   \   000000   7B00         MOV       R3,#0x0
   \   000002   90....       MOV       DPTR,#SampleApp_TaskID
   \   000005   E0           MOVX      A,@DPTR
   \   000006   F9           MOV       R1,A
   \   000007   12....       LCALL     `??osal_set_event::?relay`; Banked call to: osal_set_event
   \   00000A   22           RET

   \                                 In  segment BANKED_CODE, align 1, keep-with-next
   \                     ?Subroutine6:
   \   000000   90....       MOV       DPTR,#_jumpBackID
   \   000003   7401         MOV       A,#0x1
   \   000005   F0           MOVX      @DPTR,A
   \   000006   90....       MOV       DPTR,#_zigbeeSendTimes
   \   000009   04           INC       A
   \   00000A   F0           MOVX      @DPTR,A
   \   00000B   22           RET

   \                                 In  segment BANKED_CODE, align 1, keep-with-next
   \                     ?Subroutine18:
   \   000000   7C..         MOV       R4,#`?<Constant "ERROR\\r\\n">` & 0xff
   \   000002   7D..         MOV       R5,#(`?<Constant "ERROR\\r\\n">` >> 8) & 0xff
   \   000004                REQUIRE ??Subroutine47_0
   \   000004                ; // Fall through to label ??Subroutine47_0

   \                                 In  segment BANKED_CODE, align 1, keep-with-next
   \                     ??Subroutine47_0:
   \   000000   7A..         MOV       R2,#`?<Constant "OK\\r\\n">` & 0xff
   \   000002   7B..         MOV       R3,#(`?<Constant "OK\\r\\n">` >> 8) & 0xff
   \   000004                REQUIRE ??Subroutine48_0
   \   000004                ; // Fall through to label ??Subroutine48_0

   \                                 In  segment BANKED_CODE, align 1, keep-with-next
   \                     ??Subroutine48_0:
   \   000000   12....       LCALL     `??wait_for::?relay`; Banked call to: wait_for
   \   000003   7402         MOV       A,#0x2
   \   000005   22           RET

   \                                 In  segment BANKED_CODE, align 1, keep-with-next
   \                     ?Subroutine14:
   \   000000   85..82       MOV       DPL,?XSP + 0
   \   000003   85..83       MOV       DPH,?XSP + 1
   \   000006                REQUIRE ??Subroutine49_0
   \   000006                ; // Fall through to label ??Subroutine49_0

   \                                 In  segment BANKED_CODE, align 1, keep-with-next
   \                     ??Subroutine49_0:
   \   000000   E0           MOVX      A,@DPTR
   \   000001   F8           MOV       R0,A
   \   000002   A3           INC       DPTR
   \   000003   E0           MOVX      A,@DPTR
   \   000004   F9           MOV       R1,A
   \   000005   22           RET
    534          
    535          /*********************************************************************
    536           * Event Generation Functions
    537           */
    538          /*********************************************************************
    539           * @fn      SampleApp_HandleKeys
    540           *
    541           * @brief   Handles all key events for this device.
    542           *
    543           * @param   shift - true if in shift/alt.
    544           * @param   keys - bit field for key events. Valid entries:
    545           *                 HAL_KEY_SW_2
    546           *                 HAL_KEY_SW_1
    547           *
    548           * @return  none
    549           */

   \                                 In  segment BANKED_CODE, align 1, keep-with-next
    550          void SampleApp_HandleKeys( uint8 shift, uint8 keys )
   \                     SampleApp_HandleKeys:
    551          {
   \   000000                REQUIRE ?V0
   \   000000                REQUIRE ?V1
   \   000000   74F6         MOV       A,#-0xa
   \   000002   12....       LCALL     ?BANKED_ENTER_XDATA
   \   000005                ; Saved register size: 10
   \   000005                ; Auto size: 0
   \   000005   EA           MOV       A,R2
   \   000006   FE           MOV       R6,A
    552            (void)shift;  // Intentionally unreferenced parameter
    553            
    554            if ( keys & HAL_KEY_SW_1 )
   \   000007   A2E0         MOV       C,0xE0 /* A   */.0
   \   000009   5007         JNC       ??SampleApp_HandleKeys_0
    555            {
    556              /* This key sends the Flash Command is sent to Group 1.
    557               * This device will not receive the Flash Command from this
    558               * device (even if it belongs to group 1).
    559               */
    560              SampleApp_SendFlashMessage( SAMPLEAPP_FLASH_DURATION );
   \   00000B                ; Setup parameters for call to function SampleApp_SendFlashMessage
   \   00000B   7AE8         MOV       R2,#-0x18
   \   00000D   7B03         MOV       R3,#0x3
   \   00000F   12....       LCALL     `??SampleApp_SendFlashMessage::?relay`; Banked call to: SampleApp_SendFlashMessage
    561            }
    562          
    563            if ( keys & HAL_KEY_SW_2 )
   \                     ??SampleApp_HandleKeys_0:
   \   000012   EE           MOV       A,R6
   \   000013   A2E1         MOV       C,0xE0 /* A   */.1
   \   000015   5021         JNC       ??SampleApp_HandleKeys_1
    564            {
    565              /* The Flashr Command is sent to Group 1.
    566               * This key toggles this device in and out of group 1.
    567               * If this device doesn't belong to group 1, this application
    568               * will not receive the Flash command sent to group 1.
    569               */
    570              aps_Group_t *grp;
    571              grp = aps_FindGroup( SAMPLEAPP_ENDPOINT, SAMPLEAPP_FLASH_GROUP );
    572              if ( grp )
   \   000017                ; Setup parameters for call to function aps_FindGroup
   \   000017   7A03         MOV       R2,#0x3
   \   000019   7B00         MOV       R3,#0x0
   \   00001B   7914         MOV       R1,#0x14
   \   00001D   12....       LCALL     `??aps_FindGroup::?relay`; Banked call to: aps_FindGroup
   \   000020   EA           MOV       A,R2
   \   000021   4B           ORL       A,R3
   \   000022   600B         JZ        ??SampleApp_HandleKeys_2
    573              {
    574                // Remove from the group
    575                aps_RemoveGroup( SAMPLEAPP_ENDPOINT, SAMPLEAPP_FLASH_GROUP );
   \   000024                ; Setup parameters for call to function aps_RemoveGroup
   \   000024   7A03         MOV       R2,#0x3
   \   000026   7B00         MOV       R3,#0x0
   \   000028   7914         MOV       R1,#0x14
   \   00002A   12....       LCALL     `??aps_RemoveGroup::?relay`; Banked call to: aps_RemoveGroup
   \   00002D   8009         SJMP      ??SampleApp_HandleKeys_1
    576              }
    577              else
    578              {
    579                // Add to the flash group
    580                aps_AddGroup( SAMPLEAPP_ENDPOINT, &SampleApp_Group );
   \                     ??SampleApp_HandleKeys_2:
   \   00002F                ; Setup parameters for call to function aps_AddGroup
   \   00002F   7A..         MOV       R2,#SampleApp_Group & 0xff
   \   000031   7B..         MOV       R3,#(SampleApp_Group >> 8) & 0xff
   \   000033   7914         MOV       R1,#0x14
   \   000035   12....       LCALL     `??aps_AddGroup::?relay`; Banked call to: aps_AddGroup
    581              }
    582            }
    583          }
   \                     ??SampleApp_HandleKeys_1:
   \   000038   02....       LJMP      ??Subroutine44_0 & 0xFFFF

   \                                 In  segment BANKED_CODE, align 1, keep-with-next
   \                     ??Subroutine44_0:
   \   000000   7F02         MOV       R7,#0x2
   \   000002   02....       LJMP      ?BANKED_LEAVE_XDATA
    584          
    585          /*********************************************************************
    586           * LOCAL FUNCTIONS
    587           */
    588          
    589          /*********************************************************************
    590           * @fn      SampleApp_MessageMSGCB
    591           *
    592           * @brief   Data message processor callback.  This function processes
    593           *          any incoming data - probably from other devices.  So, based
    594           *          on cluster ID, perform the intended action.
    595           *
    596           * @param   none
    597           *
    598           * @return  none
    599           */

   \                                 In  segment BANKED_CODE, align 1, keep-with-next
    600          void SampleApp_MessageMSGCB( afIncomingMSGPacket_t *pkt ) {
   \                     SampleApp_MessageMSGCB:
   \   000000                REQUIRE ?V0
   \   000000                REQUIRE ?V1
   \   000000                REQUIRE ?V2
   \   000000   74F5         MOV       A,#-0xb
   \   000002   12....       LCALL     ?BANKED_ENTER_XDATA
   \   000005                ; Saved register size: 11
   \   000005                ; Auto size: 0
   \   000005   EA           MOV       A,R2
   \   000006   FE           MOV       R6,A
   \   000007   EB           MOV       A,R3
   \   000008   FF           MOV       R7,A
    601              switch (pkt->clusterId) {
   \   000009   8A82         MOV       DPL,R2
   \   00000B   F583         MOV       DPH,A
   \   00000D   A3           INC       DPTR
   \   00000E   A3           INC       DPTR
   \   00000F   A3           INC       DPTR
   \   000010   A3           INC       DPTR
   \   000011   E0           MOVX      A,@DPTR
   \   000012   6402         XRL       A,#0x2
   \   000014   7002         JNZ       ??SampleApp_MessageMSGCB_0
   \   000016   A3           INC       DPTR
   \   000017   E0           MOVX      A,@DPTR
   \                     ??SampleApp_MessageMSGCB_0:
   \   000018   707A         JNZ       ??SampleApp_MessageMSGCB_1
    602              case SAMPLEAPP_FLASH_CLUSTERID:
    603                  if (osal_memcmp(pkt->cmd.Data + 4, "E1", 2)) {
   \   00001A                ; Setup parameters for call to function osal_memcmp
   \   00001A   75....       MOV       ?V0,#`?<Constant "E1">` & 0xff
   \   00001D   75....       MOV       ?V1,#(`?<Constant "E1">` >> 8) & 0xff
   \   000020   75..00       MOV       ?V2,#0x0
   \   000023   78..         MOV       R0,#?V0
   \   000025   12....       LCALL     ?PUSH_XSTACK_I_THREE
   \   000028   7C02         MOV       R4,#0x2
   \   00002A   7D00         MOV       R5,#0x0
   \   00002C   EA           MOV       A,R2
   \   00002D   12....       LCALL     ?Subroutine11 & 0xFFFF
   \                     ??CrossCallReturnLabel_18:
   \   000030   12....       LCALL     ?DEALLOC_XSTACK8
   \   000033   E9           MOV       A,R1
   \   000034   6021         JZ        ??SampleApp_MessageMSGCB_2
    604                      temp_humid[0] = pkt->cmd.Data[0];
   \   000036   12....       LCALL     ?Subroutine13 & 0xFFFF
   \                     ??CrossCallReturnLabel_20:
   \   000039   90....       MOV       DPTR,#temp_humid
   \   00003C   12....       LCALL     ?Subroutine8 & 0xFFFF
    605                      temp_humid[1] = pkt->cmd.Data[1];
   \                     ??CrossCallReturnLabel_14:
   \   00003F   90....       MOV       DPTR,#temp_humid + 1
   \   000042   12....       LCALL     ?Subroutine5 & 0xFFFF
    606                      temp_humid[2] = '\0';
    607                      temp_humid[3] = pkt->cmd.Data[2];
   \                     ??CrossCallReturnLabel_4:
   \   000045   90....       MOV       DPTR,#temp_humid + 3
   \   000048   12....       LCALL     ?Subroutine7 & 0xFFFF
    608                      temp_humid[4] = pkt->cmd.Data[3];
   \                     ??CrossCallReturnLabel_12:
   \   00004B   90....       MOV       DPTR,#temp_humid + 4
   \   00004E   12....       LCALL     ?Subroutine9 & 0xFFFF
    609                      temp_humid[5] = '\0';
    610                      _zigbeeRecvFlag = 1;
    611                      debug("received from E1\r\n");
   \                     ??CrossCallReturnLabel_16:
   \   000051                ; Setup parameters for call to function _UARTSend
   \   000051   7A..         MOV       R2,#`?<Constant "received from E1\\r\\n">` & 0xff
   \   000053   7B..         MOV       R3,#(`?<Constant "received from E1\\r\\n">` >> 8) & 0xff
   \   000055   8038         SJMP      ??SampleApp_MessageMSGCB_3
    612                  } else
    613                  if (osal_memcmp(pkt->cmd.Data + 4, "E2", 2)) {
   \                     ??SampleApp_MessageMSGCB_2:
   \   000057                ; Setup parameters for call to function osal_memcmp
   \   000057   75....       MOV       ?V0,#`?<Constant "E2">` & 0xff
   \   00005A   75....       MOV       ?V1,#(`?<Constant "E2">` >> 8) & 0xff
   \   00005D   78..         MOV       R0,#?V0
   \   00005F   12....       LCALL     ?PUSH_XSTACK_I_THREE
   \   000062   7C02         MOV       R4,#0x2
   \   000064   7D00         MOV       R5,#0x0
   \   000066   EE           MOV       A,R6
   \   000067   12....       LCALL     ?Subroutine11 & 0xFFFF
   \                     ??CrossCallReturnLabel_19:
   \   00006A   12....       LCALL     ?DEALLOC_XSTACK8
   \   00006D   E9           MOV       A,R1
   \   00006E   6024         JZ        ??SampleApp_MessageMSGCB_1
    614                      temp_humid[6] = pkt->cmd.Data[0];
   \   000070   12....       LCALL     ?Subroutine13 & 0xFFFF
   \                     ??CrossCallReturnLabel_21:
   \   000073   90....       MOV       DPTR,#temp_humid + 6
   \   000076   12....       LCALL     ?Subroutine8 & 0xFFFF
    615                      temp_humid[7] = pkt->cmd.Data[1];
   \                     ??CrossCallReturnLabel_15:
   \   000079   90....       MOV       DPTR,#temp_humid + 7
   \   00007C   12....       LCALL     ?Subroutine5 & 0xFFFF
    616                      temp_humid[8] = '\0';
    617                      temp_humid[9] = pkt->cmd.Data[2];
   \                     ??CrossCallReturnLabel_5:
   \   00007F   90....       MOV       DPTR,#temp_humid + 9
   \   000082   12....       LCALL     ?Subroutine7 & 0xFFFF
    618                      temp_humid[10] = pkt->cmd.Data[3];
   \                     ??CrossCallReturnLabel_13:
   \   000085   90....       MOV       DPTR,#temp_humid + 10
   \   000088   12....       LCALL     ?Subroutine9 & 0xFFFF
    619                      temp_humid[11] = '\0';
    620                      _zigbeeRecvFlag = 1;
    621                      debug("received from E2\r\n");
   \                     ??CrossCallReturnLabel_17:
   \   00008B                ; Setup parameters for call to function _UARTSend
   \   00008B   7A..         MOV       R2,#`?<Constant "received from E2\\r\\n">` & 0xff
   \   00008D   7B..         MOV       R3,#(`?<Constant "received from E2\\r\\n">` >> 8) & 0xff
   \                     ??SampleApp_MessageMSGCB_3:
   \   00008F   7900         MOV       R1,#0x0
   \   000091   12....       LCALL     `??_UARTSend::?relay`; Banked call to: _UARTSend
    622                  }
    623                  break;
    624            }
    625          }
   \                     ??SampleApp_MessageMSGCB_1:
   \   000094   02....       LJMP      ?Subroutine0 & 0xFFFF

   \                                 In  segment BANKED_CODE, align 1, keep-with-next
   \                     ?Subroutine13:
   \   000000   EE           MOV       A,R6
   \   000001   2422         ADD       A,#0x22
   \   000003   F8           MOV       R0,A
   \   000004   E4           CLR       A
   \   000005   3F           ADDC      A,R7
   \   000006   F9           MOV       R1,A
   \   000007   8882         MOV       DPL,R0
   \   000009   F583         MOV       DPH,A
   \   00000B   12....       LCALL     ?Subroutine36 & 0xFFFF
   \                     ??CrossCallReturnLabel_73:
   \   00000E   E0           MOVX      A,@DPTR
   \   00000F   22           RET

   \                                 In  segment BANKED_CODE, align 1, keep-with-next
   \                     ?Subroutine11:
   \   000000   2422         ADD       A,#0x22
   \   000002   F582         MOV       DPL,A
   \   000004   E4           CLR       A
   \   000005   3F           ADDC      A,R7
   \   000006   F583         MOV       DPH,A
   \   000008   12....       LCALL     ?Subroutine35 & 0xFFFF
   \                     ??CrossCallReturnLabel_72:
   \   00000B   A3           INC       DPTR
   \   00000C   A982         MOV       R1,DPL
   \   00000E   AA83         MOV       R2,DPH
   \   000010   7B00         MOV       R3,#0x0
   \   000012   12....       LCALL     `??osal_memcmp::?relay`; Banked call to: osal_memcmp
   \   000015   7403         MOV       A,#0x3
   \   000017   22           RET

   \                                 In  segment BANKED_CODE, align 1, keep-with-next
   \                     ?Subroutine9:
   \   000000   F0           MOVX      @DPTR,A
   \   000001   A3           INC       DPTR
   \   000002   E4           CLR       A
   \   000003   F0           MOVX      @DPTR,A
   \   000004   90....       MOV       DPTR,#_zigbeeRecvFlag
   \   000007   04           INC       A
   \   000008   F0           MOVX      @DPTR,A
   \   000009   22           RET

   \                                 In  segment BANKED_CODE, align 1, keep-with-next
   \                     ?Subroutine8:
   \   000000   12....       LCALL     ?Subroutine34 & 0xFFFF
   \                     ??CrossCallReturnLabel_69:
   \   000003   E0           MOVX      A,@DPTR
   \   000004   22           RET

   \                                 In  segment BANKED_CODE, align 1, keep-with-next
   \                     ?Subroutine7:
   \   000000   F0           MOVX      @DPTR,A
   \   000001   8882         MOV       DPL,R0
   \   000003   8983         MOV       DPH,R1
   \   000005   12....       LCALL     ?Subroutine35 & 0xFFFF
   \                     ??CrossCallReturnLabel_71:
   \   000008   E0           MOVX      A,@DPTR
   \   000009   22           RET

   \                                 In  segment BANKED_CODE, align 1, keep-with-next
   \                     ?Subroutine35:
   \   000000   E0           MOVX      A,@DPTR
   \   000001   F8           MOV       R0,A
   \   000002   A3           INC       DPTR
   \   000003   E0           MOVX      A,@DPTR
   \   000004   F583         MOV       DPH,A
   \   000006   8882         MOV       DPL,R0
   \   000008   A3           INC       DPTR
   \   000009   A3           INC       DPTR
   \   00000A   A3           INC       DPTR
   \   00000B   22           RET

   \                                 In  segment BANKED_CODE, align 1, keep-with-next
   \                     ?Subroutine5:
   \   000000   F0           MOVX      @DPTR,A
   \   000001   A3           INC       DPTR
   \   000002   E4           CLR       A
   \   000003   12....       LCALL     ?Subroutine34 & 0xFFFF
   \                     ??CrossCallReturnLabel_70:
   \   000006   A3           INC       DPTR
   \   000007   E0           MOVX      A,@DPTR
   \   000008   22           RET

   \                                 In  segment BANKED_CODE, align 1, keep-with-next
   \                     ?Subroutine34:
   \   000000   F0           MOVX      @DPTR,A
   \   000001   8882         MOV       DPL,R0
   \   000003   8983         MOV       DPH,R1
   \   000005   12....       LCALL     ?Subroutine36 & 0xFFFF
   \                     ??CrossCallReturnLabel_74:
   \   000008   A3           INC       DPTR
   \   000009   22           RET

   \                                 In  segment BANKED_CODE, align 1, keep-with-next
   \                     ?Subroutine36:
   \   000000   E0           MOVX      A,@DPTR
   \   000001   FA           MOV       R2,A
   \   000002   A3           INC       DPTR
   \   000003   E0           MOVX      A,@DPTR
   \   000004   F583         MOV       DPH,A
   \   000006   8A82         MOV       DPL,R2
   \   000008   22           RET
    626          
    627          /*********************************************************************
    628           * @fn      SampleApp_SendPeriodicMessage
    629           *
    630           * @brief   Send the periodic message.
    631           *
    632           * @param   none
    633           *
    634           * @return  none
    635           */

   \                                 In  segment BANKED_CODE, align 1, keep-with-next
    636          void SampleApp_SendPeriodicMessage( void )
   \                     SampleApp_SendPeriodicMessage:
    637          {
   \   000000                REQUIRE ?V0
   \   000000                REQUIRE ?V1
   \   000000   74F6         MOV       A,#-0xa
   \   000002   12....       LCALL     ?BANKED_ENTER_XDATA
   \   000005                ; Saved register size: 10
   \   000005                ; Auto size: 10
   \   000005   74F6         MOV       A,#-0xa
   \   000007   12....       LCALL     ?ALLOC_XSTACK8
    638            uint8 data[10]={'0','1','2','3','4','5','6','7','8','9'};//露篓氓媒戮
   \   00000A   90....       MOV       DPTR,#`?<Constant {48, 49, 50, 51, 52, 53, 54, 55, 56`
   \   00000D   AC..         MOV       R4,?XSP + 0
   \   00000F   AD..         MOV       R5,?XSP + 1
   \   000011   740A         MOV       A,#0xa
   \   000013   12....       LCALL     ?MOVE_LONG8_XDATA_XDATA
    639            if ( AF_DataRequest( &SampleApp_Periodic_DstAddr, &SampleApp_epDesc,
    640                                 SAMPLEAPP_PERIODIC_CLUSTERID,
    641                                 10,//陆媒
    642                                 data,//赂毛路
    643                                 &SampleApp_TransID,
    644                                 AF_DISCV_ROUTE,
    645                                 AF_DEFAULT_RADIUS ) == afStatus_SUCCESS )
   \   000016                ; Setup parameters for call to function AF_DataRequest
   \   000016   75..1E       MOV       ?V0,#0x1e
   \   000019   78..         MOV       R0,#?V0
   \   00001B   12....       LCALL     ?PUSH_XSTACK_I_ONE
   \   00001E   75....       MOV       ?V0,#SampleApp_TransID & 0xff
   \   000021   75....       MOV       ?V1,#(SampleApp_TransID >> 8) & 0xff
   \   000024   78..         MOV       R0,#?V0
   \   000026   12....       LCALL     ?PUSH_XSTACK_I_TWO
   \   000029   7403         MOV       A,#0x3
   \   00002B   12....       LCALL     ?XSTACK_DISP100_8
   \   00002E   88..         MOV       ?V0,R0
   \   000030   89..         MOV       ?V1,R1
   \   000032   78..         MOV       R0,#?V0
   \   000034   12....       LCALL     ?PUSH_XSTACK_I_TWO
   \   000037   75..0A       MOV       ?V0,#0xa
   \   00003A   75..00       MOV       ?V1,#0x0
   \   00003D   78..         MOV       R0,#?V0
   \   00003F   12....       LCALL     ?PUSH_XSTACK_I_TWO
   \   000042   75..01       MOV       ?V0,#0x1
   \   000045   78..         MOV       R0,#?V0
   \   000047   12....       LCALL     ?PUSH_XSTACK_I_TWO
   \   00004A   7920         MOV       R1,#0x20
   \   00004C   7C..         MOV       R4,#SampleApp_epDesc & 0xff
   \   00004E   7D..         MOV       R5,#(SampleApp_epDesc >> 8) & 0xff
   \   000050   7A..         MOV       R2,#SampleApp_Periodic_DstAddr & 0xff
   \   000052   7B..         MOV       R3,#(SampleApp_Periodic_DstAddr >> 8) & 0xff
   \   000054   12....       LCALL     ??Subroutine45_0 & 0xFFFF
   \                     ??CrossCallReturnLabel_106:
   \   000057   12....       LCALL     ?DEALLOC_XSTACK8
    646            {
    647            }
    648            else
    649            {
    650              // Error occurred in request to send.
    651            }
    652          }
   \   00005A   740A         MOV       A,#0xa
   \   00005C   80..         SJMP      ??Subroutine43_0

   \                                 In  segment BANKED_CODE, align 1, keep-with-next
   \                     ??Subroutine43_0:
   \   000000   12....       LCALL     ?DEALLOC_XSTACK8
   \   000003                REQUIRE ??Subroutine44_0
   \   000003                ; // Fall through to label ??Subroutine44_0

   \                                 In  segment BANKED_CODE, align 1, keep-with-next
   \                     ??Subroutine45_0:
   \   000000   12....       LCALL     `??AF_DataRequest::?relay`; Banked call to: AF_DataRequest
   \   000003   7409         MOV       A,#0x9
   \   000005   22           RET
    653          
    654          /*********************************************************************
    655           * @fn      SampleApp_SendFlashMessage
    656           *
    657           * @brief   Send the flash message to group 1.
    658           *
    659           * @param   flashTime - in milliseconds
    660           *
    661           * @return  none
    662           */

   \                                 In  segment BANKED_CODE, align 1, keep-with-next
    663          void SampleApp_SendFlashMessage( uint16 flashTime )
   \                     SampleApp_SendFlashMessage:
    664          {
   \   000000                REQUIRE ?V0
   \   000000                REQUIRE ?V1
   \   000000   74F6         MOV       A,#-0xa
   \   000002   12....       LCALL     ?BANKED_ENTER_XDATA
   \   000005                ; Saved register size: 10
   \   000005                ; Auto size: 3
   \   000005   74FD         MOV       A,#-0x3
   \   000007   12....       LCALL     ?ALLOC_XSTACK8
    665            uint8 buffer[3];
    666            buffer[0] = (uint8)(SampleAppFlashCounter++);
   \   00000A   90....       MOV       DPTR,#SampleAppFlashCounter
   \   00000D   E0           MOVX      A,@DPTR
   \   00000E   85..82       MOV       DPL,?XSP + 0
   \   000011   85..83       MOV       DPH,?XSP + 1
   \   000014   F0           MOVX      @DPTR,A
   \   000015   90....       MOV       DPTR,#SampleAppFlashCounter
   \   000018   E0           MOVX      A,@DPTR
   \   000019   04           INC       A
   \   00001A   F0           MOVX      @DPTR,A
    667            buffer[1] = LO_UINT16( flashTime );
   \   00001B   7401         MOV       A,#0x1
   \   00001D   12....       LCALL     ?XSTACK_DISP0_8
   \   000020   EA           MOV       A,R2
   \   000021   F0           MOVX      @DPTR,A
    668            buffer[2] = HI_UINT16( flashTime );
   \   000022   7402         MOV       A,#0x2
   \   000024   12....       LCALL     ?XSTACK_DISP0_8
   \   000027   EB           MOV       A,R3
   \   000028   F0           MOVX      @DPTR,A
    669          
    670            if ( AF_DataRequest( &SampleApp_Flash_DstAddr, &SampleApp_epDesc,
    671                                 SAMPLEAPP_FLASH_CLUSTERID,
    672                                 3,
    673                                 buffer,
    674                                 &SampleApp_TransID,
    675                                 AF_DISCV_ROUTE,
    676                                 AF_DEFAULT_RADIUS ) == afStatus_SUCCESS )
   \   000029                ; Setup parameters for call to function AF_DataRequest
   \   000029   75..1E       MOV       ?V0,#0x1e
   \   00002C   78..         MOV       R0,#?V0
   \   00002E   12....       LCALL     ?PUSH_XSTACK_I_ONE
   \   000031   75....       MOV       ?V0,#SampleApp_TransID & 0xff
   \   000034   75....       MOV       ?V1,#(SampleApp_TransID >> 8) & 0xff
   \   000037   78..         MOV       R0,#?V0
   \   000039   12....       LCALL     ?PUSH_XSTACK_I_TWO
   \   00003C   7403         MOV       A,#0x3
   \   00003E   12....       LCALL     ?XSTACK_DISP100_8
   \   000041   88..         MOV       ?V0,R0
   \   000043   89..         MOV       ?V1,R1
   \   000045   78..         MOV       R0,#?V0
   \   000047   12....       LCALL     ?PUSH_XSTACK_I_TWO
   \   00004A   75..03       MOV       ?V0,#0x3
   \   00004D   75..00       MOV       ?V1,#0x0
   \   000050   78..         MOV       R0,#?V0
   \   000052   12....       LCALL     ?PUSH_XSTACK_I_TWO
   \   000055   75..02       MOV       ?V0,#0x2
   \   000058   78..         MOV       R0,#?V0
   \   00005A   12....       LCALL     ?PUSH_XSTACK_I_TWO
   \   00005D   12....       LCALL     ?Subroutine32 & 0xFFFF
   \                     ??CrossCallReturnLabel_103:
   \   000060   12....       LCALL     ?DEALLOC_XSTACK8
    677            {
    678            }
    679            else
    680            {
    681              // Error occurred in request to send.
    682            }
    683          }
   \   000063   7403         MOV       A,#0x3
   \   000065   80..         SJMP      ??Subroutine43_0

   \                                 In  segment BANKED_CODE, align 1, keep-with-next
   \                     ?Subroutine32:
   \   000000   7920         MOV       R1,#0x20
   \   000002   7C..         MOV       R4,#SampleApp_epDesc & 0xff
   \   000004   7D..         MOV       R5,#(SampleApp_epDesc >> 8) & 0xff
   \   000006   7A..         MOV       R2,#SampleApp_Flash_DstAddr & 0xff
   \   000008   7B..         MOV       R3,#(SampleApp_Flash_DstAddr >> 8) & 0xff
   \   00000A                REQUIRE ??Subroutine45_0
   \   00000A                ; // Fall through to label ??Subroutine45_0
    684          
    685          /*********************************************************************
    686          *********************************************************************/

   \                                 In  segment BANKED_CODE, align 1, keep-with-next
    687          void SampleApp_SendGroupMessage( void )
   \                     SampleApp_SendGroupMessage:
    688          {
   \   000000                REQUIRE ?V0
   \   000000                REQUIRE ?V1
   \   000000   74F6         MOV       A,#-0xa
   \   000002   12....       LCALL     ?BANKED_ENTER_XDATA
   \   000005                ; Saved register size: 10
   \   000005                ; Auto size: 20
   \   000005   74EC         MOV       A,#-0x14
   \   000007   12....       LCALL     ?ALLOC_XSTACK8
    689            uint8 data[20]="I am Coordinator\r\n\0";
   \   00000A   90....       MOV       DPTR,#`?<Constant "I am Coordinator\\r\\n\\000">`
   \   00000D   AC..         MOV       R4,?XSP + 0
   \   00000F   AD..         MOV       R5,?XSP + 1
   \   000011   7414         MOV       A,#0x14
   \   000013   12....       LCALL     ?MOVE_LONG8_XDATA_XDATA
    690            //uint8 data[20]="I am EndDevice1\r\n\0";
    691            //uint8 data[20]="I am EndDevice2\r\n\0";
    692            if ( AF_DataRequest( & SampleApp_Flash_DstAddr,
    693                                 &SampleApp_epDesc,
    694                                 SAMPLEAPP_FLASH_CLUSTERID,
    695                                 20,
    696                                 data,
    697                                 &SampleApp_TransID,
    698                                 AF_DISCV_ROUTE,
    699                                 AF_DEFAULT_RADIUS ) == afStatus_SUCCESS )
   \   000016                ; Setup parameters for call to function AF_DataRequest
   \   000016   75..1E       MOV       ?V0,#0x1e
   \   000019   78..         MOV       R0,#?V0
   \   00001B   12....       LCALL     ?PUSH_XSTACK_I_ONE
   \   00001E   75....       MOV       ?V0,#SampleApp_TransID & 0xff
   \   000021   75....       MOV       ?V1,#(SampleApp_TransID >> 8) & 0xff
   \   000024   78..         MOV       R0,#?V0
   \   000026   12....       LCALL     ?PUSH_XSTACK_I_TWO
   \   000029   7403         MOV       A,#0x3
   \   00002B   12....       LCALL     ?XSTACK_DISP100_8
   \   00002E   88..         MOV       ?V0,R0
   \   000030   89..         MOV       ?V1,R1
   \   000032   78..         MOV       R0,#?V0
   \   000034   12....       LCALL     ?PUSH_XSTACK_I_TWO
   \   000037   75..14       MOV       ?V0,#0x14
   \   00003A   75..00       MOV       ?V1,#0x0
   \   00003D   78..         MOV       R0,#?V0
   \   00003F   12....       LCALL     ?PUSH_XSTACK_I_TWO
   \   000042   75..02       MOV       ?V0,#0x2
   \   000045   78..         MOV       R0,#?V0
   \   000047   12....       LCALL     ?PUSH_XSTACK_I_TWO
   \   00004A   12....       LCALL     ?Subroutine32 & 0xFFFF
   \                     ??CrossCallReturnLabel_104:
   \   00004D   12....       LCALL     ?DEALLOC_XSTACK8
    700            {
    701            }
    702            else
    703            {
    704              // Error occurred in request to send.
    705            }
    706          }
   \   000050   7414         MOV       A,#0x14
   \   000052   02....       LJMP      ??Subroutine43_0 & 0xFFFF
    707          
    708          

   \                                 In  segment BANKED_CODE, align 1, keep-with-next
   \                     ?Subroutine2:
   \   000000   7442         MOV       A,#0x42
   \   000002                REQUIRE ??Subroutine43_0
   \   000002                ; // Fall through to label ??Subroutine43_0

   \                                 In  segment BANKED_CODE, align 1, keep-with-next
    709          uint8 _zigbeeSend(uint8 *fmt, ...) {
   \                     _zigbeeSend:
   \   000000                REQUIRE ?V0
   \   000000                REQUIRE ?V1
   \   000000   74F6         MOV       A,#-0xa
   \   000002   12....       LCALL     ?BANKED_ENTER_XDATA
   \   000005                ; Saved register size: 10
   \   000005                ; Auto size: 66
   \   000005   74BE         MOV       A,#-0x42
   \   000007   12....       LCALL     ?ALLOC_XSTACK8
    710          	va_list arg_ptr;
    711          	uint8 _buffer[UartDefaultTxLen], cnt;
    712          	uint16 length = 0;
                 	       ^
Warning[Pe550]: variable "length" was set but never used
    713          	for(cnt = 0 ; cnt < UartDefaultTxLen ; cnt++)
    714          		_buffer[cnt] = 0x00;
   \   00000A   7402         MOV       A,#0x2
   \   00000C   12....       LCALL     ?XSTACK_DISP0_8
   \   00000F   E4           CLR       A
   \   000010   7840         MOV       R0,#0x40
   \                     ??_zigbeeSend_0:
   \   000012   F0           MOVX      @DPTR,A
   \   000013   A3           INC       DPTR
   \   000014   D8FC         DJNZ      R0,??_zigbeeSend_0
    715          	va_start(arg_ptr, fmt);
   \   000016   744C         MOV       A,#0x4c
   \   000018   12....       LCALL     ?XSTACK_DISP100_8
   \   00001B   12....       LCALL     ?Subroutine4 & 0xFFFF
    716          	length = vsprintf((char *)_buffer, (const char *)fmt, arg_ptr);
   \                     ??CrossCallReturnLabel_0:
   \   00001E   12....       LCALL     ?PUSH_XSTACK_I_TWO
   \   000021   EA           MOV       A,R2
   \   000022   FC           MOV       R4,A
   \   000023   EB           MOV       A,R3
   \   000024   FD           MOV       R5,A
   \   000025   7404         MOV       A,#0x4
   \   000027   12....       LCALL     ?XSTACK_DISP101_8
   \   00002A   12....       LCALL     ?Subroutine33 & 0xFFFF
   \                     ??CrossCallReturnLabel_65:
   \   00002D   12....       LCALL     ?DEALLOC_XSTACK8
    717          	va_end(arg_ptr);
    718          	if (AF_DataRequest(&SampleApp_Flash_DstAddr, &SampleApp_epDesc,
    719          		SAMPLEAPP_FLASH_CLUSTERID, 20, _buffer,
    720          		&SampleApp_TransID, AF_DISCV_ROUTE, AF_DEFAULT_RADIUS) == afStatus_SUCCESS) {
   \   000030                ; Setup parameters for call to function AF_DataRequest
   \   000030   75..1E       MOV       ?V0,#0x1e
   \   000033   78..         MOV       R0,#?V0
   \   000035   12....       LCALL     ?PUSH_XSTACK_I_ONE
   \   000038   75....       MOV       ?V0,#SampleApp_TransID & 0xff
   \   00003B   75....       MOV       ?V1,#(SampleApp_TransID >> 8) & 0xff
   \   00003E   78..         MOV       R0,#?V0
   \   000040   12....       LCALL     ?PUSH_XSTACK_I_TWO
   \   000043   7405         MOV       A,#0x5
   \   000045   12....       LCALL     ?XSTACK_DISP100_8
   \   000048   88..         MOV       ?V0,R0
   \   00004A   89..         MOV       ?V1,R1
   \   00004C   78..         MOV       R0,#?V0
   \   00004E   12....       LCALL     ?PUSH_XSTACK_I_TWO
   \   000051   75..14       MOV       ?V0,#0x14
   \   000054   75..00       MOV       ?V1,#0x0
   \   000057   78..         MOV       R0,#?V0
   \   000059   12....       LCALL     ?PUSH_XSTACK_I_TWO
   \   00005C   75..02       MOV       ?V0,#0x2
   \   00005F   78..         MOV       R0,#?V0
   \   000061   12....       LCALL     ?PUSH_XSTACK_I_TWO
   \   000064   12....       LCALL     ?Subroutine32 & 0xFFFF
   \                     ??CrossCallReturnLabel_105:
   \   000067   12....       LCALL     ?DEALLOC_XSTACK8
   \   00006A   E9           MOV       A,R1
   \   00006B   700D         JNZ       ??_zigbeeSend_1
    721          		debug("Zigbee Send Succeeded\r\n");
   \   00006D                ; Setup parameters for call to function _UARTSend
   \   00006D   7A..         MOV       R2,#`?<Constant "Zigbee Send Succeeded\\r\\n">` & 0xff
   \   00006F   7B..         MOV       R3,#(`?<Constant "Zigbee Send Succeeded\\r\\n">` >> 8) & 0xff
   \   000071   7900         MOV       R1,#0x0
   \   000073   12....       LCALL     `??_UARTSend::?relay`; Banked call to: _UARTSend
    722                  return 0;
   \   000076   7900         MOV       R1,#0x0
   \   000078   800B         SJMP      ??_zigbeeSend_2
    723          	} else {
    724                  debug("Zigbee Send Failed\r\n");
   \                     ??_zigbeeSend_1:
   \   00007A                ; Setup parameters for call to function _UARTSend
   \   00007A   7A..         MOV       R2,#`?<Constant "Zigbee Send Failed\\r\\n">` & 0xff
   \   00007C   7B..         MOV       R3,#(`?<Constant "Zigbee Send Failed\\r\\n">` >> 8) & 0xff
   \   00007E   7900         MOV       R1,#0x0
   \   000080   12....       LCALL     `??_UARTSend::?relay`; Banked call to: _UARTSend
    725                  return 1;
   \   000083   7901         MOV       R1,#0x1
    726              }
   \                     ??_zigbeeSend_2:
   \   000085   02....       LJMP      ?Subroutine2 & 0xFFFF
    727          }

   \                                 In  segment BANKED_CODE, align 1, keep-with-next
   \                     ?Subroutine33:
   \   000000   12....       LCALL     `??vsprintf::?relay`; Banked call to: vsprintf
   \   000003   7402         MOV       A,#0x2
   \   000005   22           RET

   \                                 In  segment BANKED_CODE, align 1, keep-with-next
   \                     ?Subroutine4:
   \   000000   85..82       MOV       DPL,?XSP + 0
   \   000003   85..83       MOV       DPH,?XSP + 1
   \   000006   E8           MOV       A,R0
   \   000007   F0           MOVX      @DPTR,A
   \   000008   A3           INC       DPTR
   \   000009   E9           MOV       A,R1
   \   00000A   F0           MOVX      @DPTR,A
   \   00000B                ; Setup parameters for call to function vsprintf
   \   00000B                ; Setup parameters for call to function vsprintf
   \   00000B                ; Setup parameters for call to function vsprintf
   \   00000B                ; Setup parameters for call to function vsprintf
   \   00000B   A8..         MOV       R0,?XSP + 0
   \   00000D   A9..         MOV       R1,?XSP + 1
   \   00000F   88..         MOV       ?V0,R0
   \   000011   89..         MOV       ?V1,R1
   \   000013   78..         MOV       R0,#?V0
   \   000015   22           RET
    728          

   \                                 In  segment BANKED_CODE, align 1, keep-with-next
    729          void _UARTSend(uint8 port, uint8 *fmt, ...) {
   \                     _UARTSend:
   \   000000                REQUIRE ?V0
   \   000000                REQUIRE ?V1
   \   000000   74F6         MOV       A,#-0xa
   \   000002   12....       LCALL     ?BANKED_ENTER_XDATA
   \   000005                ; Saved register size: 10
   \   000005                ; Auto size: 66
   \   000005   74BE         MOV       A,#-0x42
   \   000007   12....       LCALL     ?ALLOC_XSTACK8
   \   00000A   E9           MOV       A,R1
   \   00000B   FE           MOV       R6,A
    730          	va_list arg_ptr;
    731          	uint8 _buffer[UartDefaultTxLen], cnt;
    732          	uint16 length = 0;
    733          	for(cnt = 0 ; cnt < UartDefaultTxLen ; cnt++)
    734          		_buffer[cnt] = 0x00;
   \   00000C   7402         MOV       A,#0x2
   \   00000E   12....       LCALL     ?XSTACK_DISP0_8
   \   000011   E4           CLR       A
   \   000012   7840         MOV       R0,#0x40
   \                     ??_UARTSend_0:
   \   000014   F0           MOVX      @DPTR,A
   \   000015   A3           INC       DPTR
   \   000016   D8FC         DJNZ      R0,??_UARTSend_0
    735          	va_start(arg_ptr, fmt);
   \   000018   744C         MOV       A,#0x4c
   \   00001A   12....       LCALL     ?XSTACK_DISP100_8
   \   00001D   12....       LCALL     ?Subroutine4 & 0xFFFF
    736          	length = vsprintf((char *)_buffer, (const char *)fmt, arg_ptr);
   \                     ??CrossCallReturnLabel_1:
   \   000020   12....       LCALL     ?PUSH_XSTACK_I_TWO
   \   000023   EA           MOV       A,R2
   \   000024   FC           MOV       R4,A
   \   000025   EB           MOV       A,R3
   \   000026   FD           MOV       R5,A
   \   000027   7404         MOV       A,#0x4
   \   000029   12....       LCALL     ?XSTACK_DISP101_8
   \   00002C   12....       LCALL     ?Subroutine33 & 0xFFFF
   \                     ??CrossCallReturnLabel_66:
   \   00002F   12....       LCALL     ?DEALLOC_XSTACK8
   \   000032   8A..         MOV       ?V0,R2
   \   000034   8B..         MOV       ?V1,R3
   \   000036   AC..         MOV       R4,?V0
   \   000038   AD..         MOV       R5,?V1
    737          	va_end(arg_ptr);
    738          	HalUARTWrite(port, (uint8 *)_buffer, length);
   \   00003A                ; Setup parameters for call to function HalUARTWrite
   \   00003A   7402         MOV       A,#0x2
   \   00003C   12....       LCALL     ?XSTACK_DISP101_8
   \   00003F   EE           MOV       A,R6
   \   000040   F9           MOV       R1,A
   \   000041   12....       LCALL     `??HalUARTWrite::?relay`; Banked call to: HalUARTWrite
    739          }
   \   000044   02....       LJMP      ?Subroutine2 & 0xFFFF
    740          

   \                                 In  segment BANKED_CODE, align 1, keep-with-next
    741          void _UARTRead(uint8 port, uint8 *_buffer, uint16 *length) {
   \                     _UARTRead:
   \   000000                REQUIRE ?V0
   \   000000   74F7         MOV       A,#-0x9
   \   000002   12....       LCALL     ?BANKED_ENTER_XDATA
   \   000005                ; Saved register size: 9
   \   000005                ; Auto size: 0
   \   000005   89..         MOV       ?V0,R1
   \   000007   EC           MOV       A,R4
   \   000008   FE           MOV       R6,A
   \   000009   ED           MOV       A,R5
   \   00000A   FF           MOV       R7,A
    742          	for(*length = 0 ; *length < UartDefaultRxLen; (*length)++)
   \   00000B   8C82         MOV       DPL,R4
   \   00000D   F583         MOV       DPH,A
   \   00000F   E4           CLR       A
   \   000010   F0           MOVX      @DPTR,A
   \   000011   A3           INC       DPTR
   \   000012   F0           MOVX      @DPTR,A
    743          		_buffer[*length] = 0x00;
   \                     ??_UARTRead_0:
   \   000013   8C82         MOV       DPL,R4
   \   000015   8D83         MOV       DPH,R5
   \   000017   12....       LCALL     ??Subroutine49_0 & 0xFFFF
   \                     ??CrossCallReturnLabel_124:
   \   00001A   EA           MOV       A,R2
   \   00001B   28           ADD       A,R0
   \   00001C   F582         MOV       DPL,A
   \   00001E   EB           MOV       A,R3
   \   00001F   39           ADDC      A,R1
   \   000020   F583         MOV       DPH,A
   \   000022   E4           CLR       A
   \   000023   F0           MOVX      @DPTR,A
   \   000024   8C82         MOV       DPL,R4
   \   000026   8D83         MOV       DPH,R5
   \   000028   E0           MOVX      A,@DPTR
   \   000029   2401         ADD       A,#0x1
   \   00002B   F0           MOVX      @DPTR,A
   \   00002C   A3           INC       DPTR
   \   00002D   E0           MOVX      A,@DPTR
   \   00002E   3400         ADDC      A,#0x0
   \   000030   F0           MOVX      @DPTR,A
   \   000031   8C82         MOV       DPL,R4
   \   000033   8D83         MOV       DPH,R5
   \   000035   C3           CLR       C
   \   000036   E0           MOVX      A,@DPTR
   \   000037   9440         SUBB      A,#0x40
   \   000039   A3           INC       DPTR
   \   00003A   E0           MOVX      A,@DPTR
   \   00003B   9400         SUBB      A,#0x0
   \   00003D   40D4         JC        ??_UARTRead_0
    744          	*length = HalUARTRead(port, _buffer, UartDefaultRxLen);
   \   00003F                ; Setup parameters for call to function HalUARTRead
   \   00003F   7C40         MOV       R4,#0x40
   \   000041   7D00         MOV       R5,#0x0
   \   000043   A9..         MOV       R1,?V0
   \   000045   12....       LCALL     `??HalUARTRead::?relay`; Banked call to: HalUARTRead
   \   000048   8E82         MOV       DPL,R6
   \   00004A   8F83         MOV       DPH,R7
   \   00004C   EA           MOV       A,R2
   \   00004D   F0           MOVX      @DPTR,A
   \   00004E   A3           INC       DPTR
   \   00004F   EB           MOV       A,R3
   \   000050   F0           MOVX      @DPTR,A
    745          }
   \   000051                REQUIRE ?Subroutine3
   \   000051                ; // Fall through to label ?Subroutine3

   \                                 In  segment BANKED_CODE, align 1, keep-with-next
   \                     ?Subroutine3:
   \   000000   7F01         MOV       R7,#0x1
   \   000002   02....       LJMP      ?BANKED_LEAVE_XDATA
    746          

   \                                 In  segment BANKED_CODE, align 1, keep-with-next
    747          void _delay_ms(uint16 timeout) {
   \                     _delay_ms:
   \   000000   74F7         MOV       A,#-0x9
   \   000002   12....       LCALL     ?BANKED_ENTER_XDATA
   \   000005                ; Saved register size: 9
   \   000005                ; Auto size: 0
   \   000005   EA           MOV       A,R2
   \   000006   FE           MOV       R6,A
   \   000007   EB           MOV       A,R3
   \   000008   FF           MOV       R7,A
   \   000009   8007         SJMP      ??_delay_ms_0
    748          	while (timeout --) {
    749          	   _delay_us(1000);
   \                     ??_delay_ms_1:
   \   00000B                ; Setup parameters for call to function _delay_us
   \   00000B   7AE8         MOV       R2,#-0x18
   \   00000D   7B03         MOV       R3,#0x3
   \   00000F   12....       LCALL     `??_delay_us::?relay`; Banked call to: _delay_us
    750          	}
   \                     ??_delay_ms_0:
   \   000012   12....       LCALL     ??Subroutine38_0 & 0xFFFF
   \                     ??CrossCallReturnLabel_82:
   \   000015   70F4         JNZ       ??_delay_ms_1
    751          }
   \   000017   80..         SJMP      ?Subroutine3
    752          

   \                                 In  segment BANKED_CODE, align 1, keep-with-next
    753          void _delay_us(uint16 timeout) {
   \                     _delay_us:
   \   000000                ; Saved register size: 0
   \   000000                ; Auto size: 0
    754          	uint8 cnt;
    755          	while (timeout --) {
   \                     ??_delay_us_0:
   \   000000   EA           MOV       A,R2
   \   000001   F8           MOV       R0,A
   \   000002   EB           MOV       A,R3
   \   000003   F9           MOV       R1,A
   \   000004   E8           MOV       A,R0
   \   000005   24FF         ADD       A,#-0x1
   \   000007   1A           DEC       R2
   \   000008   E9           MOV       A,R1
   \   000009   34FF         ADDC      A,#-0x1
   \   00000B   FB           MOV       R3,A
   \   00000C   E8           MOV       A,R0
   \   00000D   49           ORL       A,R1
   \   00000E   600E         JZ        ??_delay_us_1
    756          		cnt = 32;
   \   000010   7820         MOV       R0,#0x20
    757          		while (cnt --) {
   \                     ??_delay_us_2:
   \   000012   E8           MOV       A,R0
   \   000013   F9           MOV       R1,A
   \   000014   74FF         MOV       A,#-0x1
   \   000016   29           ADD       A,R1
   \   000017   F8           MOV       R0,A
   \   000018   04           INC       A
   \   000019   60E5         JZ        ??_delay_us_0
    758          			asm("NOP");
   \   00001B   00           NOP
   \   00001C   80F4         SJMP      ??_delay_us_2
    759          		}
    760          	}    
    761          }
   \                     ??_delay_us_1:
   \   00001E   02....       LJMP      ?BRET
    762          
    763          // 2 for timeout; 1 for error; 0 for clear; timeout = 0 stands for INF

   \                                 In  segment BANKED_CODE, align 1, keep-with-next
    764          uint8 wait_for(uint8 *str, uint8 *err, uint16 timeout) {
   \                     wait_for:
   \   000000                REQUIRE ?V0
   \   000000                REQUIRE ?V1
   \   000000                REQUIRE ?V2
   \   000000                REQUIRE ?V3
   \   000000                REQUIRE ?V4
   \   000000                REQUIRE ?V5
   \   000000                REQUIRE ?V6
   \   000000                REQUIRE ?V7
   \   000000   74F0         MOV       A,#-0x10
   \   000002   12....       LCALL     ?BANKED_ENTER_XDATA
   \   000005                ; Saved register size: 16
   \   000005                ; Auto size: 66
   \   000005   74BE         MOV       A,#-0x42
   \   000007   12....       LCALL     ?ALLOC_XSTACK8
   \   00000A   8A..         MOV       ?V0,R2
   \   00000C   8B..         MOV       ?V1,R3
   \   00000E   EC           MOV       A,R4
   \   00000F   FE           MOV       R6,A
   \   000010   ED           MOV       A,R5
   \   000011   FF           MOV       R7,A
    765          	uint16 wait_len, read_len, err_len;
    766          	int16 i, index;
    767          	uint8 buffer[UartDefaultRxLen], flag;
    768          	wait_len = strlen((char *)str);
   \   000012                ; Setup parameters for call to function strlen
   \   000012   12....       LCALL     `??strlen::?relay`; Banked call to: strlen
   \   000015   8A..         MOV       ?V6,R2
   \   000017   8B..         MOV       ?V7,R3
    769          	err_len = strlen((char *)err);
   \   000019                ; Setup parameters for call to function strlen
   \   000019   EE           MOV       A,R6
   \   00001A   FA           MOV       R2,A
   \   00001B   EF           MOV       A,R7
   \   00001C   FB           MOV       R3,A
   \   00001D   12....       LCALL     `??strlen::?relay`; Banked call to: strlen
   \   000020   8A..         MOV       ?V2,R2
   \   000022   8B..         MOV       ?V3,R3
   \   000024   7452         MOV       A,#0x52
   \   000026   12....       LCALL     ?XSTACK_DISP0_8
   \   000029   E0           MOVX      A,@DPTR
   \   00002A   F5..         MOV       ?V4,A
   \   00002C   A3           INC       DPTR
   \   00002D   E0           MOVX      A,@DPTR
   \   00002E   F5..         MOV       ?V5,A
    770          	while (1) {
    771          		_UARTRead(HAL_UART_PORT_1, buffer, &read_len);
   \                     ??wait_for_0:
   \   000030                ; Setup parameters for call to function _UARTRead
   \   000030   AC..         MOV       R4,?XSP + 0
   \   000032   AD..         MOV       R5,?XSP + 1
   \   000034   7402         MOV       A,#0x2
   \   000036   12....       LCALL     ?XSTACK_DISP101_8
   \   000039   12....       LCALL     ?Subroutine17 & 0xFFFF
    772          		_delay_ms(1);
    773          		if (read_len > 2) { // at least 0x0D 0x0A
   \                     ??CrossCallReturnLabel_26:
   \   00003C   9403         SUBB      A,#0x3
   \   00003E   A3           INC       DPTR
   \   00003F   E0           MOVX      A,@DPTR
   \   000040   9400         SUBB      A,#0x0
   \   000042   5003         JNC       $+5
   \   000044   02....       LJMP      ??wait_for_1 & 0xFFFF
    774          			index = 0;
   \   000047   7A00         MOV       R2,#0x0
   \   000049   7B00         MOV       R3,#0x0
    775          			for (i = read_len - 1; i >= 0; i --) {
   \   00004B   85..82       MOV       DPL,?XSP + 0
   \   00004E   85..83       MOV       DPH,?XSP + 1
   \   000051   E0           MOVX      A,@DPTR
   \   000052   24FF         ADD       A,#-0x1
   \   000054   F8           MOV       R0,A
   \   000055   A3           INC       DPTR
   \   000056   E0           MOVX      A,@DPTR
   \   000057   8005         SJMP      ??wait_for_2
   \                     ??wait_for_3:
   \   000059   E8           MOV       A,R0
   \   00005A   24FF         ADD       A,#-0x1
   \   00005C   18           DEC       R0
   \   00005D   E9           MOV       A,R1
   \                     ??wait_for_2:
   \   00005E   34FF         ADDC      A,#-0x1
   \   000060   F9           MOV       R1,A
   \   000061   C3           CLR       C
   \   000062   E9           MOV       A,R1
   \   000063   9400         SUBB      A,#0x0
   \   000065   A2D2         MOV       C,0xD0 /* PSW */.2
   \   000067   65D0         XRL       A,PSW
   \   000069   33           RLC       A
   \   00006A   402C         JC        ??wait_for_4
    776          				if (buffer[i] == 0x0A && i != read_len - 1) {
   \   00006C   7402         MOV       A,#0x2
   \   00006E   12....       LCALL     ?XSTACK_DISP0_8
   \   000071   E582         MOV       A,DPL
   \   000073   28           ADD       A,R0
   \   000074   F582         MOV       DPL,A
   \   000076   E583         MOV       A,DPH
   \   000078   39           ADDC      A,R1
   \   000079   F583         MOV       DPH,A
   \   00007B   E0           MOVX      A,@DPTR
   \   00007C   640A         XRL       A,#0xa
   \   00007E   70D9         JNZ       ??wait_for_3
   \   000080   85..82       MOV       DPL,?XSP + 0
   \   000083   85..83       MOV       DPH,?XSP + 1
   \   000086   12....       LCALL     ?Subroutine16 & 0xFFFF
   \                     ??CrossCallReturnLabel_24:
   \   000089   EC           MOV       A,R4
   \   00008A   68           XRL       A,R0
   \   00008B   7002         JNZ       ??wait_for_5
   \   00008D   ED           MOV       A,R5
   \   00008E   69           XRL       A,R1
   \                     ??wait_for_5:
   \   00008F   60C8         JZ        ??wait_for_3
    777          					index = i + 1;
   \   000091   E8           MOV       A,R0
   \   000092   2401         ADD       A,#0x1
   \   000094   FA           MOV       R2,A
   \   000095   E4           CLR       A
   \   000096   39           ADDC      A,R1
   \   000097   FB           MOV       R3,A
    778          					break;
    779          				}
    780          			}
    781          			
    782          			if (err_len == (read_len - index)) {
   \                     ??wait_for_4:
   \   000098   12....       LCALL     ?Subroutine15 & 0xFFFF
   \                     ??CrossCallReturnLabel_22:
   \   00009B   65..         XRL       A,?V2
   \   00009D   7003         JNZ       ??wait_for_6
   \   00009F   E9           MOV       A,R1
   \   0000A0   65..         XRL       A,?V3
   \                     ??wait_for_6:
   \   0000A2   703B         JNZ       ??wait_for_7
    783          				flag = 1;
    784          				for (i = 0; i < err_len; i ++) {
   \   0000A4   7800         MOV       R0,#0x0
   \   0000A6   7900         MOV       R1,#0x0
   \   0000A8   801F         SJMP      ??wait_for_8
    785          					if (buffer[index + i] != err[i]) {
   \                     ??wait_for_9:
   \   0000AA   EA           MOV       A,R2
   \   0000AB   28           ADD       A,R0
   \   0000AC   FC           MOV       R4,A
   \   0000AD   EB           MOV       A,R3
   \   0000AE   39           ADDC      A,R1
   \   0000AF   FD           MOV       R5,A
   \   0000B0   7402         MOV       A,#0x2
   \   0000B2   12....       LCALL     ?XSTACK_DISP0_8
   \   0000B5   12....       LCALL     ?Subroutine29 & 0xFFFF
    786          						flag = 0;
    787          						break;
    788          					}
    789          				}
   \                     ??CrossCallReturnLabel_57:
   \   0000B8   EE           MOV       A,R6
   \   0000B9   28           ADD       A,R0
   \   0000BA   F582         MOV       DPL,A
   \   0000BC   EF           MOV       A,R7
   \   0000BD   39           ADDC      A,R1
   \   0000BE   F583         MOV       DPH,A
   \   0000C0   E0           MOVX      A,@DPTR
   \   0000C1   6C           XRL       A,R4
   \   0000C2   701B         JNZ       ??wait_for_7
   \   0000C4   08           INC       R0
   \   0000C5   E8           MOV       A,R0
   \   0000C6   7001         JNZ       ??wait_for_8
   \   0000C8   09           INC       R1
   \                     ??wait_for_8:
   \   0000C9   C3           CLR       C
   \   0000CA   E8           MOV       A,R0
   \   0000CB   95..         SUBB      A,?V2
   \   0000CD   E9           MOV       A,R1
   \   0000CE   95..         SUBB      A,?V3
   \   0000D0   40D8         JC        ??wait_for_9
    790          				if (flag == 1) {
    791          					debug(err);
   \   0000D2                ; Setup parameters for call to function _UARTSend
   \   0000D2   EE           MOV       A,R6
   \   0000D3   FA           MOV       R2,A
   \   0000D4   EF           MOV       A,R7
   \   0000D5   FB           MOV       R3,A
   \   0000D6   7900         MOV       R1,#0x0
   \   0000D8   12....       LCALL     `??_UARTSend::?relay`; Banked call to: _UARTSend
    792          					return 1;
   \   0000DB   7901         MOV       R1,#0x1
   \   0000DD   8060         SJMP      ??wait_for_10
    793          				}
    794          			}
    795          
    796          			if (wait_len == (read_len - index)) {
   \                     ??wait_for_7:
   \   0000DF   12....       LCALL     ?Subroutine15 & 0xFFFF
   \                     ??CrossCallReturnLabel_23:
   \   0000E2   65..         XRL       A,?V6
   \   0000E4   7003         JNZ       ??wait_for_11
   \   0000E6   E9           MOV       A,R1
   \   0000E7   65..         XRL       A,?V7
   \                     ??wait_for_11:
   \   0000E9   703D         JNZ       ??wait_for_1
    797          				flag = 1;
    798          				for (i = 0; i < wait_len; i ++) {
   \   0000EB   7800         MOV       R0,#0x0
   \   0000ED   7900         MOV       R1,#0x0
   \   0000EF   8021         SJMP      ??wait_for_12
    799          					if (buffer[index + i] != str[i]) {
   \                     ??wait_for_13:
   \   0000F1   EA           MOV       A,R2
   \   0000F2   28           ADD       A,R0
   \   0000F3   FC           MOV       R4,A
   \   0000F4   EB           MOV       A,R3
   \   0000F5   39           ADDC      A,R1
   \   0000F6   FD           MOV       R5,A
   \   0000F7   7402         MOV       A,#0x2
   \   0000F9   12....       LCALL     ?XSTACK_DISP0_8
   \   0000FC   12....       LCALL     ?Subroutine29 & 0xFFFF
    800          						flag = 0;
    801          						break;
    802          					}
    803          				}
   \                     ??CrossCallReturnLabel_58:
   \   0000FF   E5..         MOV       A,?V0
   \   000101   28           ADD       A,R0
   \   000102   F582         MOV       DPL,A
   \   000104   E5..         MOV       A,?V1
   \   000106   39           ADDC      A,R1
   \   000107   F583         MOV       DPH,A
   \   000109   E0           MOVX      A,@DPTR
   \   00010A   6C           XRL       A,R4
   \   00010B   701B         JNZ       ??wait_for_1
   \   00010D   08           INC       R0
   \   00010E   E8           MOV       A,R0
   \   00010F   7001         JNZ       ??wait_for_12
   \   000111   09           INC       R1
   \                     ??wait_for_12:
   \   000112   C3           CLR       C
   \   000113   E8           MOV       A,R0
   \   000114   95..         SUBB      A,?V6
   \   000116   E9           MOV       A,R1
   \   000117   95..         SUBB      A,?V7
   \   000119   40D6         JC        ??wait_for_13
    804          				if (flag == 1) {
    805          					debug(str);
   \   00011B                ; Setup parameters for call to function _UARTSend
   \   00011B   AA..         MOV       R2,?V0
   \   00011D   AB..         MOV       R3,?V1
   \   00011F   7900         MOV       R1,#0x0
   \   000121   12....       LCALL     `??_UARTSend::?relay`; Banked call to: _UARTSend
    806          					return 0;
   \   000124   7900         MOV       R1,#0x0
   \   000126   8017         SJMP      ??wait_for_10
    807          				}
    808          			}
    809          		}
    810          		timeout --;
    811          		if (!timeout) return 2;
   \                     ??wait_for_1:
   \   000128   E5..         MOV       A,?V4
   \   00012A   24FF         ADD       A,#-0x1
   \   00012C   F5..         MOV       ?V4,A
   \   00012E   E5..         MOV       A,?V5
   \   000130   34FF         ADDC      A,#-0x1
   \   000132   F5..         MOV       ?V5,A
   \   000134   E5..         MOV       A,?V4
   \   000136   45..         ORL       A,?V5
   \   000138   6003         JZ        $+5
   \   00013A   02....       LJMP      ??wait_for_0 & 0xFFFF
   \   00013D   7902         MOV       R1,#0x2
   \                     ??wait_for_10:
   \   00013F   7442         MOV       A,#0x42
    812          	}
   \   000141   02....       LJMP      ?Subroutine1 & 0xFFFF
    813          }

   \                                 In  segment BANKED_CODE, align 1, keep-with-next
   \                     ?Subroutine29:
   \   000000   E582         MOV       A,DPL
   \   000002   2C           ADD       A,R4
   \   000003   F582         MOV       DPL,A
   \   000005   E583         MOV       A,DPH
   \   000007   3D           ADDC      A,R5
   \   000008   F583         MOV       DPH,A
   \   00000A   E0           MOVX      A,@DPTR
   \   00000B   FC           MOV       R4,A
   \   00000C   22           RET

   \                                 In  segment BANKED_CODE, align 1, keep-with-next
   \                     ?Subroutine15:
   \   000000   85..82       MOV       DPL,?XSP + 0
   \   000003   85..83       MOV       DPH,?XSP + 1
   \   000006   E0           MOVX      A,@DPTR
   \   000007   C3           CLR       C
   \   000008   9A           SUBB      A,R2
   \   000009   F8           MOV       R0,A
   \   00000A   A3           INC       DPTR
   \   00000B   E0           MOVX      A,@DPTR
   \   00000C   9B           SUBB      A,R3
   \   00000D   F9           MOV       R1,A
   \   00000E   E8           MOV       A,R0
   \   00000F   22           RET

   \                                 In  segment BANKED_CODE, align 1, keep-with-next
   \                     ?Subroutine17:
   \   000000   7901         MOV       R1,#0x1
   \   000002   12....       LCALL     `??_UARTRead::?relay`; Banked call to: _UARTRead
   \   000005                ; Setup parameters for call to function _delay_ms
   \   000005                ; Setup parameters for call to function _delay_ms
   \   000005                ; Setup parameters for call to function _delay_ms
   \   000005   7A01         MOV       R2,#0x1
   \   000007   7B00         MOV       R3,#0x0
   \   000009   12....       LCALL     `??_delay_ms::?relay`; Banked call to: _delay_ms
   \   00000C   85..82       MOV       DPL,?XSP + 0
   \   00000F   85..83       MOV       DPH,?XSP + 1
   \   000012   C3           CLR       C
   \   000013   E0           MOVX      A,@DPTR
   \   000014   22           RET

   \                                 In  segment BANKED_CODE, align 1, keep-with-next
   \                     ?Subroutine16:
   \   000000   E0           MOVX      A,@DPTR
   \   000001   24FF         ADD       A,#-0x1
   \   000003   FC           MOV       R4,A
   \   000004   A3           INC       DPTR
   \   000005   E0           MOVX      A,@DPTR
   \   000006   34FF         ADDC      A,#-0x1
   \   000008   FD           MOV       R5,A
   \   000009   22           RET
    814          

   \                                 In  segment BANKED_CODE, align 1, keep-with-next
    815          void exit_send() {
   \                     exit_send:
   \   000000   74F7         MOV       A,#-0x9
   \   000002   12....       LCALL     ?BANKED_ENTER_XDATA
   \   000005                ; Saved register size: 9
   \   000005                ; Auto size: 0
    816          	print("+++");
   \   000005                ; Setup parameters for call to function _UARTSend
   \   000005   12....       LCALL     ?Subroutine21 & 0xFFFF
    817          	_delay_ms(10);
    818          	print("+++");
   \                     ??CrossCallReturnLabel_107:
   \   000008                ; Setup parameters for call to function _UARTSend
   \   000008   12....       LCALL     ?Subroutine21 & 0xFFFF
    819          	_delay_ms(10);
    820          	print("\r\n");
   \                     ??CrossCallReturnLabel_108:
   \   00000B                ; Setup parameters for call to function _UARTSend
   \   00000B   7A..         MOV       R2,#`?<Constant "\\r\\n">` & 0xff
   \   00000D   7B..         MOV       R3,#(`?<Constant "\\r\\n">` >> 8) & 0xff
   \   00000F   12....       LCALL     ??Subroutine46_0 & 0xFFFF
    821          	_delay_ms(10);
    822          }
   \                     ??CrossCallReturnLabel_109:
   \   000012   02....       LJMP      ?Subroutine3 & 0xFFFF

   \                                 In  segment BANKED_CODE, align 1, keep-with-next
   \                     ?Subroutine21:
   \   000000   7A..         MOV       R2,#`?<Constant "+++">` & 0xff
   \   000002   7B..         MOV       R3,#(`?<Constant "+++">` >> 8) & 0xff
   \   000004                REQUIRE ??Subroutine46_0
   \   000004                ; // Fall through to label ??Subroutine46_0

   \                                 In  segment BANKED_CODE, align 1, keep-with-next
   \                     ??Subroutine46_0:
   \   000000   7901         MOV       R1,#0x1
   \   000002   12....       LCALL     `??_UARTSend::?relay`; Banked call to: _UARTSend
   \   000005                ; Setup parameters for call to function _delay_ms
   \   000005                ; Setup parameters for call to function _delay_ms
   \   000005                ; Setup parameters for call to function _delay_ms
   \   000005   7A0A         MOV       R2,#0xa
   \   000007   7B00         MOV       R3,#0x0
   \   000009   12....       LCALL     `??_delay_ms::?relay`; Banked call to: _delay_ms
   \   00000C   22           RET
    823          
    824          

   \                                 In  segment BANKED_CODE, align 1, keep-with-next
    825          uint8 WiFiSendApp(uint8 *fmt, ...) {
   \                     WiFiSendApp:
   \   000000                REQUIRE ?V0
   \   000000                REQUIRE ?V1
   \   000000                REQUIRE ?V2
   \   000000                REQUIRE ?V3
   \   000000   74F4         MOV       A,#-0xc
   \   000002   12....       LCALL     ?BANKED_ENTER_XDATA
   \   000005                ; Saved register size: 12
   \   000005                ; Auto size: 66
   \   000005   74BE         MOV       A,#-0x42
   \   000007   12....       LCALL     ?ALLOC_XSTACK8
    826          	va_list arg_ptr;
    827          	uint8 buffer[UartDefaultTxLen], cnt;
    828          	uint16 length = 0;
    829          	for(cnt = 0 ; cnt < UartDefaultTxLen ; cnt++)
    830          		buffer[cnt] = 0x00;
   \   00000A   7402         MOV       A,#0x2
   \   00000C   12....       LCALL     ?XSTACK_DISP0_8
   \   00000F   E4           CLR       A
   \   000010   7840         MOV       R0,#0x40
   \                     ??WiFiSendApp_0:
   \   000012   F0           MOVX      @DPTR,A
   \   000013   A3           INC       DPTR
   \   000014   D8FC         DJNZ      R0,??WiFiSendApp_0
    831          	va_start(arg_ptr, fmt);
   \   000016   744E         MOV       A,#0x4e
   \   000018   12....       LCALL     ?XSTACK_DISP100_8
   \   00001B   12....       LCALL     ?Subroutine4 & 0xFFFF
    832          	length = vsprintf((char *)buffer, (const char *)fmt, arg_ptr);
   \                     ??CrossCallReturnLabel_2:
   \   00001E   12....       LCALL     ?PUSH_XSTACK_I_TWO
   \   000021   EA           MOV       A,R2
   \   000022   FC           MOV       R4,A
   \   000023   EB           MOV       A,R3
   \   000024   FD           MOV       R5,A
   \   000025   7404         MOV       A,#0x4
   \   000027   12....       LCALL     ?XSTACK_DISP101_8
   \   00002A   12....       LCALL     ?Subroutine33 & 0xFFFF
   \                     ??CrossCallReturnLabel_67:
   \   00002D   12....       LCALL     ?DEALLOC_XSTACK8
   \   000030   8A..         MOV       ?V0,R2
   \   000032   8B..         MOV       ?V1,R3
    833          	va_end(arg_ptr);
    834          	debug_and_print("AT+CIPSEND=0,%d\r\n", length);
   \   000034                ; Setup parameters for call to function _UARTSend
   \   000034   78..         MOV       R0,#?V0
   \   000036   12....       LCALL     ?PUSH_XSTACK_I_TWO
   \   000039   7A..         MOV       R2,#`?<Constant "AT+CIPSEND=0,%d\\r\\n">` & 0xff
   \   00003B   7B..         MOV       R3,#(`?<Constant "AT+CIPSEND=0,%d\\r\\n">` >> 8) & 0xff
   \   00003D   7900         MOV       R1,#0x0
   \   00003F   12....       LCALL     `??_UARTSend::?relay`; Banked call to: _UARTSend
   \   000042   7402         MOV       A,#0x2
   \   000044   12....       LCALL     ?DEALLOC_XSTACK8
   \   000047                ; Setup parameters for call to function _UARTSend
   \   000047   78..         MOV       R0,#?V0
   \   000049   12....       LCALL     ?PUSH_XSTACK_I_TWO
   \   00004C   7A..         MOV       R2,#`?<Constant "AT+CIPSEND=0,%d\\r\\n">` & 0xff
   \   00004E   7B..         MOV       R3,#(`?<Constant "AT+CIPSEND=0,%d\\r\\n">` >> 8) & 0xff
   \   000050   7901         MOV       R1,#0x1
   \   000052   12....       LCALL     `??_UARTSend::?relay`; Banked call to: _UARTSend
   \   000055   7402         MOV       A,#0x2
   \   000057   12....       LCALL     ?DEALLOC_XSTACK8
    835          	_delay_ms(10);
   \   00005A                ; Setup parameters for call to function _delay_ms
   \   00005A   7A0A         MOV       R2,#0xa
   \   00005C   12....       LCALL     ?Subroutine30 & 0xFFFF
    836          	// if (wait_for(">", "ERROR\r\n", 0)) return 1;
    837          	HalUARTWrite(1, (uint8 *)buffer, length);
   \                     ??CrossCallReturnLabel_59:
   \   00005F   12....       LCALL     ?XSTACK_DISP101_8
   \   000062   7901         MOV       R1,#0x1
   \   000064   12....       LCALL     `??HalUARTWrite::?relay`; Banked call to: HalUARTWrite
    838          	return wait_for("SEND OK\r\n", "SEND FAIL\r\n", 0);
   \   000067                ; Setup parameters for call to function wait_for
   \   000067   E4           CLR       A
   \   000068   F5..         MOV       ?V0,A
   \   00006A   F5..         MOV       ?V1,A
   \   00006C   78..         MOV       R0,#?V0
   \   00006E   12....       LCALL     ?PUSH_XSTACK_I_TWO
   \   000071   7C..         MOV       R4,#`?<Constant "SEND FAIL\\r\\n">` & 0xff
   \   000073   7D..         MOV       R5,#(`?<Constant "SEND FAIL\\r\\n">` >> 8) & 0xff
   \   000075   7A..         MOV       R2,#`?<Constant "SEND OK\\r\\n">` & 0xff
   \   000077   7B..         MOV       R3,#(`?<Constant "SEND OK\\r\\n">` >> 8) & 0xff
   \   000079   12....       LCALL     ??Subroutine48_0 & 0xFFFF
   \                     ??CrossCallReturnLabel_123:
   \   00007C   12....       LCALL     ?DEALLOC_XSTACK8
   \   00007F   7442         MOV       A,#0x42
   \   000081   12....       LCALL     ?DEALLOC_XSTACK8
   \   000084   7F04         MOV       R7,#0x4
   \   000086   02....       LJMP      ?BANKED_LEAVE_XDATA
    839          }

   \                                 In  segment BANKED_CODE, align 1, keep-with-next
   \                     ?Subroutine30:
   \   000000   7B00         MOV       R3,#0x0
   \   000002   12....       LCALL     `??_delay_ms::?relay`; Banked call to: _delay_ms
   \   000005                ; Setup parameters for call to function HalUARTWrite
   \   000005                ; Setup parameters for call to function HalUARTWrite
   \   000005   AC..         MOV       R4,?V0
   \   000007   AD..         MOV       R5,?V1
   \   000009   7402         MOV       A,#0x2
   \   00000B   22           RET
    840          

   \                                 In  segment BANKED_CODE, align 1, keep-with-next
    841          uint16 WiFiRecvApp(uint8 *buff) {
   \                     WiFiRecvApp:
   \   000000                REQUIRE ?V0
   \   000000                REQUIRE ?V1
   \   000000                REQUIRE ?V2
   \   000000                REQUIRE ?V4
   \   000000                REQUIRE ?V5
   \   000000   74F2         MOV       A,#-0xe
   \   000002   12....       LCALL     ?BANKED_ENTER_XDATA
   \   000005                ; Saved register size: 14
   \   000005                ; Auto size: 66
   \   000005   74BE         MOV       A,#-0x42
   \   000007   12....       LCALL     ?ALLOC_XSTACK8
   \   00000A   8A..         MOV       ?V4,R2
   \   00000C   8B..         MOV       ?V5,R3
    842          	uint16 read_len, l_index;
    843          	uint8 buffer[UartDefaultRxLen];
    844          	while (1) {
    845          		_UARTRead(HAL_UART_PORT_1, buffer, &read_len);
   \                     ??WiFiRecvApp_0:
   \   00000E                ; Setup parameters for call to function _UARTRead
   \   00000E   AC..         MOV       R4,?XSP + 0
   \   000010   AD..         MOV       R5,?XSP + 1
   \   000012   7402         MOV       A,#0x2
   \   000014   12....       LCALL     ?XSTACK_DISP101_8
   \   000017   12....       LCALL     ?Subroutine17 & 0xFFFF
    846          		_delay_ms(1);
    847          		// at least 11 chars "+IPD,0,X:\r\n"
    848          		if (read_len > 10 
    849          			// && buffer[read_len - 2] == '\r' 
    850          			// && buffer[read_len - 1] == '\n'
    851          		) {
   \                     ??CrossCallReturnLabel_27:
   \   00001A   940B         SUBB      A,#0xb
   \   00001C   A3           INC       DPTR
   \   00001D   E0           MOVX      A,@DPTR
   \   00001E   9400         SUBB      A,#0x0
   \   000020   40EC         JC        ??WiFiRecvApp_0
    852          			l_index = 0;
   \   000022   7E00         MOV       R6,#0x0
   \   000024   7F00         MOV       R7,#0x0
   \                     ??WiFiRecvApp_1:
   \   000026   7402         MOV       A,#0x2
   \   000028   12....       LCALL     ?XSTACK_DISP0_8
   \   00002B   E582         MOV       A,DPL
   \   00002D   2E           ADD       A,R6
   \   00002E   F582         MOV       DPL,A
   \   000030   E583         MOV       A,DPH
   \   000032   3F           ADDC      A,R7
   \   000033   F583         MOV       DPH,A
   \   000035   E0           MOVX      A,@DPTR
   \   000036   643A         XRL       A,#0x3a
   \   000038   600F         JZ        ??WiFiRecvApp_2
    853          			while (l_index < read_len && buffer[l_index] != ':') {
    854          				l_index ++;
   \   00003A   0E           INC       R6
   \   00003B   EE           MOV       A,R6
   \   00003C   7001         JNZ       ??WiFiRecvApp_3
   \   00003E   0F           INC       R7
    855          			}
   \                     ??WiFiRecvApp_3:
   \   00003F   12....       LCALL     ?Subroutine14 & 0xFFFF
   \                     ??CrossCallReturnLabel_126:
   \   000042   C3           CLR       C
   \   000043   EE           MOV       A,R6
   \   000044   98           SUBB      A,R0
   \   000045   EF           MOV       A,R7
   \   000046   99           SUBB      A,R1
   \   000047   40DD         JC        ??WiFiRecvApp_1
    856          			if (l_index == read_len) continue;
   \                     ??WiFiRecvApp_2:
   \   000049   85..82       MOV       DPL,?XSP + 0
   \   00004C   85..83       MOV       DPH,?XSP + 1
   \   00004F   E0           MOVX      A,@DPTR
   \   000050   6E           XRL       A,R6
   \   000051   7003         JNZ       ??WiFiRecvApp_4
   \   000053   A3           INC       DPTR
   \   000054   E0           MOVX      A,@DPTR
   \   000055   6F           XRL       A,R7
   \                     ??WiFiRecvApp_4:
   \   000056   60B6         JZ        ??WiFiRecvApp_0
    857          			l_index ++;
   \   000058   0E           INC       R6
   \   000059   EE           MOV       A,R6
   \   00005A   7001         JNZ       ??WiFiRecvApp_5
   \   00005C   0F           INC       R7
    858          			osal_memcpy(buff, buffer + l_index, read_len - l_index);
   \                     ??WiFiRecvApp_5:
   \   00005D                ; Setup parameters for call to function osal_memcpy
   \   00005D   7402         MOV       A,#0x2
   \   00005F   12....       LCALL     ?XSTACK_DISP0_8
   \   000062   E582         MOV       A,DPL
   \   000064   2E           ADD       A,R6
   \   000065   F5..         MOV       ?V0,A
   \   000067   E583         MOV       A,DPH
   \   000069   3F           ADDC      A,R7
   \   00006A   F5..         MOV       ?V1,A
   \   00006C   75..00       MOV       ?V2,#0x0
   \   00006F   78..         MOV       R0,#?V0
   \   000071   12....       LCALL     ?PUSH_XSTACK_I_THREE
   \   000074   7403         MOV       A,#0x3
   \   000076   12....       LCALL     ?XSTACK_DISP0_8
   \   000079   E0           MOVX      A,@DPTR
   \   00007A   C3           CLR       C
   \   00007B   9E           SUBB      A,R6
   \   00007C   FC           MOV       R4,A
   \   00007D   A3           INC       DPTR
   \   00007E   E0           MOVX      A,@DPTR
   \   00007F   9F           SUBB      A,R7
   \   000080   FD           MOV       R5,A
   \   000081   AA..         MOV       R2,?V4
   \   000083   AB..         MOV       R3,?V5
   \   000085   12....       LCALL     ?Subroutine23 & 0xFFFF
   \                     ??CrossCallReturnLabel_40:
   \   000088   12....       LCALL     ?DEALLOC_XSTACK8
    859          			return (read_len - l_index);
   \   00008B   85..82       MOV       DPL,?XSP + 0
   \   00008E   85..83       MOV       DPH,?XSP + 1
   \   000091   E0           MOVX      A,@DPTR
   \   000092   C3           CLR       C
   \   000093   9E           SUBB      A,R6
   \   000094   FA           MOV       R2,A
   \   000095   A3           INC       DPTR
   \   000096   E0           MOVX      A,@DPTR
   \   000097   9F           SUBB      A,R7
   \   000098   FB           MOV       R3,A
   \   000099   7442         MOV       A,#0x42
   \   00009B   12....       LCALL     ?DEALLOC_XSTACK8
   \   00009E   7F06         MOV       R7,#0x6
   \   0000A0   02....       LJMP      ?BANKED_LEAVE_XDATA
    860          		}
    861          	}
    862          }
    863          

   \                                 In  segment BANKED_CODE, align 1, keep-with-next
    864          void WiFiSendServer(uint8 *fmt, ...) {
   \                     WiFiSendServer:
   \   000000                REQUIRE ?V0
   \   000000                REQUIRE ?V1
   \   000000   74F6         MOV       A,#-0xa
   \   000002   12....       LCALL     ?BANKED_ENTER_XDATA
   \   000005                ; Saved register size: 10
   \   000005                ; Auto size: 66
   \   000005   74BE         MOV       A,#-0x42
   \   000007   12....       LCALL     ?ALLOC_XSTACK8
    865              va_list arg_ptr;
    866              uint8 buffer[UartDefaultTxLen], cnt;
    867              uint16 length = 0;
    868              for(cnt = 0 ; cnt < UartDefaultTxLen ; cnt++)
    869                  buffer[cnt] = 0x00;
   \   00000A   7402         MOV       A,#0x2
   \   00000C   12....       LCALL     ?XSTACK_DISP0_8
   \   00000F   E4           CLR       A
   \   000010   7840         MOV       R0,#0x40
   \                     ??WiFiSendServer_0:
   \   000012   F0           MOVX      @DPTR,A
   \   000013   A3           INC       DPTR
   \   000014   D8FC         DJNZ      R0,??WiFiSendServer_0
    870              va_start(arg_ptr, fmt);
   \   000016   744C         MOV       A,#0x4c
   \   000018   12....       LCALL     ?XSTACK_DISP100_8
   \   00001B   12....       LCALL     ?Subroutine4 & 0xFFFF
    871              length = vsprintf((char *)buffer, (const char *)fmt, arg_ptr);
   \                     ??CrossCallReturnLabel_3:
   \   00001E   12....       LCALL     ?PUSH_XSTACK_I_TWO
   \   000021   EA           MOV       A,R2
   \   000022   FC           MOV       R4,A
   \   000023   EB           MOV       A,R3
   \   000024   FD           MOV       R5,A
   \   000025   7404         MOV       A,#0x4
   \   000027   12....       LCALL     ?XSTACK_DISP101_8
   \   00002A   12....       LCALL     ?Subroutine33 & 0xFFFF
   \                     ??CrossCallReturnLabel_68:
   \   00002D   12....       LCALL     ?DEALLOC_XSTACK8
   \   000030   8A..         MOV       ?V0,R2
   \   000032   8B..         MOV       ?V1,R3
    872              va_end(arg_ptr);
    873              print("AT+CIPSEND\r\n");
   \   000034                ; Setup parameters for call to function _UARTSend
   \   000034   7A..         MOV       R2,#`?<Constant "AT+CIPSEND\\r\\n">` & 0xff
   \   000036   7B..         MOV       R3,#(`?<Constant "AT+CIPSEND\\r\\n">` >> 8) & 0xff
   \   000038   7901         MOV       R1,#0x1
   \   00003A   12....       LCALL     `??_UARTSend::?relay`; Banked call to: _UARTSend
    874              _delay_ms(5);
   \   00003D                ; Setup parameters for call to function _delay_ms
   \   00003D   7A05         MOV       R2,#0x5
   \   00003F   12....       LCALL     ?Subroutine30 & 0xFFFF
    875              HalUARTWrite(1, (uint8 *)buffer, length);
   \                     ??CrossCallReturnLabel_60:
   \   000042   12....       LCALL     ?XSTACK_DISP101_8
   \   000045   7901         MOV       R1,#0x1
   \   000047   12....       LCALL     `??HalUARTWrite::?relay`; Banked call to: HalUARTWrite
    876              _delay_ms(5);
   \   00004A                ; Setup parameters for call to function _delay_ms
   \   00004A   7A05         MOV       R2,#0x5
   \   00004C   7B00         MOV       R3,#0x0
   \   00004E   12....       LCALL     `??_delay_ms::?relay`; Banked call to: _delay_ms
    877              exit_send();
   \   000051                ; Setup parameters for call to function exit_send
   \   000051   12....       LCALL     `??exit_send::?relay`; Banked call to: exit_send
    878          }
   \   000054   02....       LJMP      ?Subroutine2 & 0xFFFF
    879          

   \                                 In  segment BANKED_CODE, align 1, keep-with-next
    880          uint16 WiFiRecvServer(uint8 *buff) {
   \                     WiFiRecvServer:
   \   000000                REQUIRE ?V0
   \   000000                REQUIRE ?V1
   \   000000                REQUIRE ?V2
   \   000000   74F5         MOV       A,#-0xb
   \   000002   12....       LCALL     ?BANKED_ENTER_XDATA
   \   000005                ; Saved register size: 11
   \   000005                ; Auto size: 66
   \   000005   74BE         MOV       A,#-0x42
   \   000007   12....       LCALL     ?ALLOC_XSTACK8
   \   00000A   EA           MOV       A,R2
   \   00000B   FE           MOV       R6,A
   \   00000C   EB           MOV       A,R3
   \   00000D   FF           MOV       R7,A
    881              uint8 buffer[UartDefaultRxLen];
    882              uint16 read_len = 0;
   \   00000E   85..82       MOV       DPL,?XSP + 0
   \   000011   85..83       MOV       DPH,?XSP + 1
   \   000014   E4           CLR       A
   \   000015   F0           MOVX      @DPTR,A
   \   000016   A3           INC       DPTR
   \   000017   F0           MOVX      @DPTR,A
    883              while (1) {
    884                  _UARTRead(HAL_UART_PORT_1, buffer, &read_len);
   \                     ??WiFiRecvServer_0:
   \   000018                ; Setup parameters for call to function _UARTRead
   \   000018   AC..         MOV       R4,?XSP + 0
   \   00001A   AD..         MOV       R5,?XSP + 1
   \   00001C   7402         MOV       A,#0x2
   \   00001E   12....       LCALL     ?XSTACK_DISP101_8
   \   000021   12....       LCALL     ?Subroutine17 & 0xFFFF
    885                  _delay_ms(1);
    886                  if (read_len > 1 && buffer[0] == '#' && buffer[read_len - 1] == '\n') {
   \                     ??CrossCallReturnLabel_28:
   \   000024   9402         SUBB      A,#0x2
   \   000026   A3           INC       DPTR
   \   000027   E0           MOVX      A,@DPTR
   \   000028   9400         SUBB      A,#0x0
   \   00002A   40EC         JC        ??WiFiRecvServer_0
   \   00002C   7402         MOV       A,#0x2
   \   00002E   12....       LCALL     ?XSTACK_DISP0_8
   \   000031   E0           MOVX      A,@DPTR
   \   000032   6423         XRL       A,#0x23
   \   000034   70E2         JNZ       ??WiFiRecvServer_0
   \   000036   85..82       MOV       DPL,?XSP + 0
   \   000039   85..83       MOV       DPH,?XSP + 1
   \   00003C   7402         MOV       A,#0x2
   \   00003E   12....       LCALL     ?XSTACK_DISP100_8
   \   000041   89..         MOV       ?V1,R1
   \   000043   E0           MOVX      A,@DPTR
   \   000044   28           ADD       A,R0
   \   000045   F8           MOV       R0,A
   \   000046   A3           INC       DPTR
   \   000047   E0           MOVX      A,@DPTR
   \   000048   35..         ADDC      A,?V1
   \   00004A   12....       LCALL     ?Subroutine28 & 0xFFFF
   \                     ??CrossCallReturnLabel_55:
   \   00004D   E0           MOVX      A,@DPTR
   \   00004E   640A         XRL       A,#0xa
   \   000050   70C6         JNZ       ??WiFiRecvServer_0
    887                      osal_memcpy(buff, buffer + 1, read_len - 1);
   \   000052                ; Setup parameters for call to function osal_memcpy
   \   000052   7403         MOV       A,#0x3
   \   000054   12....       LCALL     ?XSTACK_DISP0_8
   \   000057   A982         MOV       R1,DPL
   \   000059   AA83         MOV       R2,DPH
   \   00005B   89..         MOV       ?V0,R1
   \   00005D   8A..         MOV       ?V1,R2
   \   00005F   75..00       MOV       ?V2,#0x0
   \   000062   78..         MOV       R0,#?V0
   \   000064   12....       LCALL     ?PUSH_XSTACK_I_THREE
   \   000067   7403         MOV       A,#0x3
   \   000069   12....       LCALL     ?XSTACK_DISP0_8
   \   00006C   12....       LCALL     ?Subroutine16 & 0xFFFF
   \                     ??CrossCallReturnLabel_25:
   \   00006F   EE           MOV       A,R6
   \   000070   FA           MOV       R2,A
   \   000071   EF           MOV       A,R7
   \   000072   FB           MOV       R3,A
   \   000073   12....       LCALL     ?Subroutine23 & 0xFFFF
   \                     ??CrossCallReturnLabel_41:
   \   000076   12....       LCALL     ?DEALLOC_XSTACK8
    888                      buff[read_len - 1] = '\0';
   \   000079   12....       LCALL     ?Subroutine14 & 0xFFFF
   \                     ??CrossCallReturnLabel_127:
   \   00007C   EE           MOV       A,R6
   \   00007D   28           ADD       A,R0
   \   00007E   F8           MOV       R0,A
   \   00007F   EF           MOV       A,R7
   \   000080   39           ADDC      A,R1
   \   000081   12....       LCALL     ?Subroutine28 & 0xFFFF
   \                     ??CrossCallReturnLabel_56:
   \   000084   E4           CLR       A
   \   000085   F0           MOVX      @DPTR,A
    889                      return (read_len - 1);
   \   000086   85..82       MOV       DPL,?XSP + 0
   \   000089   85..83       MOV       DPH,?XSP + 1
   \   00008C   E0           MOVX      A,@DPTR
   \   00008D   24FF         ADD       A,#-0x1
   \   00008F   FA           MOV       R2,A
   \   000090   A3           INC       DPTR
   \   000091   E0           MOVX      A,@DPTR
   \   000092   34FF         ADDC      A,#-0x1
   \   000094   FB           MOV       R3,A
   \   000095   7442         MOV       A,#0x42
   \   000097   12....       LCALL     ?DEALLOC_XSTACK8
   \   00009A   02....       LJMP      ?Subroutine0 & 0xFFFF
    890                  }
    891              }
    892          }

   \                                 In  segment BANKED_CODE, align 1, keep-with-next
   \                     ?Subroutine28:
   \   000000   F9           MOV       R1,A
   \   000001   E8           MOV       A,R0
   \   000002   24FF         ADD       A,#-0x1
   \   000004   F582         MOV       DPL,A
   \   000006   E9           MOV       A,R1
   \   000007   34FF         ADDC      A,#-0x1
   \   000009   F583         MOV       DPH,A
   \   00000B   22           RET

   \                                 In  segment BANK_RELAYS, align 1
   \                     `??SampleApp_Init::?relay`:
   \   000000   12....       LCALL   ?BDISPATCH
   \   000003   ......       DC24    SampleApp_Init

   \                                 In  segment BANK_RELAYS, align 1
   \                     `??SampleApp_ProcessEvent::?relay`:
   \   000000   12....       LCALL   ?BDISPATCH
   \   000003   ......       DC24    SampleApp_ProcessEvent

   \                                 In  segment BANK_RELAYS, align 1
   \                     `??SampleApp_HandleKeys::?relay`:
   \   000000   12....       LCALL   ?BDISPATCH
   \   000003   ......       DC24    SampleApp_HandleKeys

   \                                 In  segment BANK_RELAYS, align 1
   \                     `??SampleApp_MessageMSGCB::?relay`:
   \   000000   12....       LCALL   ?BDISPATCH
   \   000003   ......       DC24    SampleApp_MessageMSGCB

   \                                 In  segment BANK_RELAYS, align 1
   \                     `??SampleApp_SendPeriodicMessage::?relay`:
   \   000000   12....       LCALL   ?BDISPATCH
   \   000003   ......       DC24    SampleApp_SendPeriodicMessage

   \                                 In  segment BANK_RELAYS, align 1
   \                     `??SampleApp_SendFlashMessage::?relay`:
   \   000000   12....       LCALL   ?BDISPATCH
   \   000003   ......       DC24    SampleApp_SendFlashMessage

   \                                 In  segment BANK_RELAYS, align 1
   \                     `??SampleApp_SendGroupMessage::?relay`:
   \   000000   12....       LCALL   ?BDISPATCH
   \   000003   ......       DC24    SampleApp_SendGroupMessage

   \                                 In  segment BANK_RELAYS, align 1
   \                     `??_zigbeeSend::?relay`:
   \   000000   12....       LCALL   ?BDISPATCH
   \   000003   ......       DC24    _zigbeeSend

   \                                 In  segment BANK_RELAYS, align 1
   \                     `??_UARTSend::?relay`:
   \   000000   12....       LCALL   ?BDISPATCH
   \   000003   ......       DC24    _UARTSend

   \                                 In  segment BANK_RELAYS, align 1
   \                     `??_UARTRead::?relay`:
   \   000000   12....       LCALL   ?BDISPATCH
   \   000003   ......       DC24    _UARTRead

   \                                 In  segment BANK_RELAYS, align 1
   \                     `??_delay_ms::?relay`:
   \   000000   12....       LCALL   ?BDISPATCH
   \   000003   ......       DC24    _delay_ms

   \                                 In  segment BANK_RELAYS, align 1
   \                     `??_delay_us::?relay`:
   \   000000   12....       LCALL   ?BDISPATCH
   \   000003   ......       DC24    _delay_us

   \                                 In  segment BANK_RELAYS, align 1
   \                     `??wait_for::?relay`:
   \   000000   12....       LCALL   ?BDISPATCH
   \   000003   ......       DC24    wait_for

   \                                 In  segment BANK_RELAYS, align 1
   \                     `??exit_send::?relay`:
   \   000000   12....       LCALL   ?BDISPATCH
   \   000003   ......       DC24    exit_send

   \                                 In  segment BANK_RELAYS, align 1
   \                     `??WiFiSendApp::?relay`:
   \   000000   12....       LCALL   ?BDISPATCH
   \   000003   ......       DC24    WiFiSendApp

   \                                 In  segment BANK_RELAYS, align 1
   \                     `??WiFiRecvApp::?relay`:
   \   000000   12....       LCALL   ?BDISPATCH
   \   000003   ......       DC24    WiFiRecvApp

   \                                 In  segment BANK_RELAYS, align 1
   \                     `??WiFiSendServer::?relay`:
   \   000000   12....       LCALL   ?BDISPATCH
   \   000003   ......       DC24    WiFiSendServer

   \                                 In  segment BANK_RELAYS, align 1
   \                     `??WiFiRecvServer::?relay`:
   \   000000   12....       LCALL   ?BDISPATCH
   \   000003   ......       DC24    WiFiRecvServer

   \                                 In  segment XDATA_ROM_C, align 1
   \                     `?<Constant "Hello World\\n">`:
   \   000000   48656C6C     DB "Hello World\012"
   \            6F20576F
   \            726C640A
   \            00      

   \                                 In  segment XDATA_ROM_C, align 1
   \                     `?<Constant "Group 1">`:
   \   000000   47726F75     DB "Group 1"
   \            70203100

   \                                 In  segment XDATA_ROM_C, align 1
   \                     `?<Constant "UART_1 INITIALIZED!\\r\\n">`:
   \   000000   55415254     DB "UART_1 INITIALIZED!\015\012"
   \            5F312049
   \            4E495449
   \            414C495A
   \            4544210D
   \            0A00    

   \                                 In  segment XDATA_ROM_C, align 1
   \                     `?<Constant "Enter AP Mode\\r\\n">`:
   \   000000   456E7465     DB "Enter AP Mode\015\012"
   \            72204150
   \            204D6F64
   \            650D0A00

   \                                 In  segment XDATA_ROM_C, align 1
   \                     `?<Constant "Enter STA Mode\\r\\n">`:
   \   000000   456E7465     DB "Enter STA Mode\015\012"
   \            72205354
   \            41204D6F
   \            64650D0A
   \            00      

   \                                 In  segment XDATA_ROM_C, align 1
   \                     `?<Constant "AT+RST\\r\\n">`:
   \   000000   41542B52     DB "AT+RST\015\012"
   \            53540D0A
   \            00      

   \                                 In  segment XDATA_ROM_C, align 1
   \                     `?<Constant "ready\\r\\n">`:
   \   000000   72656164     DB "ready\015\012"
   \            790D0A00

   \                                 In  segment XDATA_ROM_C, align 1
   \                     `?<Constant "ERROR\\r\\n">`:
   \   000000   4552524F     DB "ERROR\015\012"
   \            520D0A00

   \                                 In  segment XDATA_ROM_C, align 1
   \                     `?<Constant "AT+CWMODE=2\\r\\n">`:
   \   000000   41542B43     DB "AT+CWMODE=2\015\012"
   \            574D4F44
   \            453D320D
   \            0A00    

   \                                 In  segment XDATA_ROM_C, align 1
   \                     `?<Constant "OK\\r\\n">`:
   \   000000   4F4B0D0A     DB "OK\015\012"
   \            00      

   \                                 In  segment XDATA_ROM_C, align 1
   \                     `?<Constant "AT+CWSAP=\\"ESP8266\\",\\"1...">`:
   \   000000   41542B43     DB "AT+CWSAP=\"ESP8266\",\"123456\",11,0\015\012"
   \            57534150
   \            3D224553
   \            50383236
   \            36222C22
   \            31323334
   \            3536222C
   \            31312C30
   \            0D0A00  

   \                                 In  segment XDATA_ROM_C, align 1
   \                     `?<Constant "AT+CIPMODE=0\\r\\n">`:
   \   000000   41542B43     DB "AT+CIPMODE=0\015\012"
   \            49504D4F
   \            44453D30
   \            0D0A00  

   \                                 In  segment XDATA_ROM_C, align 1
   \                     `?<Constant "AT+CIPMUX=1\\r\\n">`:
   \   000000   41542B43     DB "AT+CIPMUX=1\015\012"
   \            49504D55
   \            583D310D
   \            0A00    

   \                                 In  segment XDATA_ROM_C, align 1
   \                     `?<Constant "AT+CIPSERVER=1,8266\\r\\n">`:
   \   000000   41542B43     DB "AT+CIPSERVER=1,8266\015\012"
   \            49505345
   \            52564552
   \            3D312C38
   \            3236360D
   \            0A00    

   \                                 In  segment XDATA_ROM_C, align 1
   \                     `?<Constant "0,CONNECT\\r\\n">`:
   \   000000   302C434F     DB "0,CONNECT\015\012"
   \            4E4E4543
   \            540D0A00

   \                                 In  segment XDATA_ROM_C, align 1
   \                     `?<Constant "0,CONNECT FAIL\\r\\n">`:
   \   000000   302C434F     DB "0,CONNECT FAIL\015\012"
   \            4E4E4543
   \            54204641
   \            494C0D0A
   \            00      

   \                                 In  segment XDATA_ROM_C, align 1
   \                     `?<Constant "CTS\\r\\n">`:
   \   000000   4354530D     DB "CTS\015\012"
   \            0A00    

   \                                 In  segment XDATA_ROM_C, align 1
   \                     `?<Constant "IP">`:
   \   000000   495000       DB "IP"

   \                                 In  segment XDATA_ROM_C, align 1
   \                     `?<Constant "GOT IP\\r\\n">`:
   \   000000   474F5420     DB "GOT IP\015\012"
   \            49500D0A
   \            00      

   \                                 In  segment XDATA_ROM_C, align 1
   \                     `?<Constant "PORT">`:
   \   000000   504F5254     DB "PORT"
   \            00      

   \                                 In  segment XDATA_ROM_C, align 1
   \                     `?<Constant "GOT PORT\\r\\n">`:
   \   000000   474F5420     DB "GOT PORT\015\012"
   \            504F5254
   \            0D0A00  

   \                                 In  segment XDATA_ROM_C, align 1
   \                     `?<Constant "SSID">`:
   \   000000   53534944     DB "SSID"
   \            00      

   \                                 In  segment XDATA_ROM_C, align 1
   \                     `?<Constant "GOT SSID\\r\\n">`:
   \   000000   474F5420     DB "GOT SSID\015\012"
   \            53534944
   \            0D0A00  

   \                                 In  segment XDATA_ROM_C, align 1
   \                     `?<Constant "PSWD">`:
   \   000000   50535744     DB "PSWD"
   \            00      

   \                                 In  segment XDATA_ROM_C, align 1
   \                     `?<Constant "GOT PSWD\\r\\n">`:
   \   000000   474F5420     DB "GOT PSWD\015\012"
   \            50535744
   \            0D0A00  

   \                                 In  segment XDATA_ROM_C, align 1
   \                     `?<Constant "OVER\\r\\n">`:
   \   000000   4F564552     DB "OVER\015\012"
   \            0D0A00  

   \                                 In  segment XDATA_ROM_C, align 1
   \                     `?<Constant "Read Flash Failed\\r\\n">`:
   \   000000   52656164     DB "Read Flash Failed\015\012"
   \            20466C61
   \            73682046
   \            61696C65
   \            640D0A00

   \                                 In  segment XDATA_ROM_C, align 1
   \                     `?<Constant "AT+CWMODE=1\\r\\n">`:
   \   000000   41542B43     DB "AT+CWMODE=1\015\012"
   \            574D4F44
   \            453D310D
   \            0A00    

   \                                 In  segment XDATA_ROM_C, align 1
   \                     `?<Constant "AT+CWJAP=\\"%s\\",\\"%s\\"\\r\\n">`:
   \   000000   41542B43     DB "AT+CWJAP=\"%s\",\"%s\"\015\012"
   \            574A4150
   \            3D222573
   \            222C2225
   \            73220D0A
   \            00      

   \                                 In  segment XDATA_ROM_C, align 1
   \                     `?<Constant "FAIL\\r\\n">`:
   \   000000   4641494C     DB "FAIL\015\012"
   \            0D0A00  

   \                                 In  segment XDATA_ROM_C, align 1
   \                     `?<Constant "AT+CIPMUX=0\\r\\n">`:
   \   000000   41542B43     DB "AT+CIPMUX=0\015\012"
   \            49504D55
   \            583D300D
   \            0A00    

   \                                 In  segment XDATA_ROM_C, align 1
   \                     `?<Constant "AT+CIPMODE=1\\r\\n">`:
   \   000000   41542B43     DB "AT+CIPMODE=1\015\012"
   \            49504D4F
   \            44453D31
   \            0D0A00  

   \                                 In  segment XDATA_ROM_C, align 1
   \                     `?<Constant "AT+CIPSTART=\\"TCP\\",\\"%s...">`:
   \   000000   41542B43     DB "AT+CIPSTART=\"TCP\",\"%s\",%s\015\012"
   \            49505354
   \            4152543D
   \            22544350
   \            222C2225
   \            73222C25
   \            730D0A00

   \                                 In  segment XDATA_ROM_C, align 1
   \                     `?<Constant "CLOSED\\r\\n">`:
   \   000000   434C4F53     DB "CLOSED\015\012"
   \            45440D0A
   \            00      

   \                                 In  segment XDATA_ROM_C, align 1
   \                     `?<Constant "heartbeat\\r\\n">`:
   \   000000   68656172     DB "heartbeat\015\012"
   \            74626561
   \            740D0A00

   \                                 In  segment XDATA_ROM_C, align 1
   \                     `?<Constant "received">`:
   \   000000   72656365     DB "received"
   \            69766564
   \            00      

   \                                 In  segment XDATA_ROM_C, align 1
   \                     `?<Constant "environment\\r\\n">`:
   \   000000   656E7669     DB "environment\015\012"
   \            726F6E6D
   \            656E740D
   \            0A00    

   \                                 In  segment XDATA_ROM_C, align 1
   \                     `?<Constant "E1\\r\\n\\000">`:
   \   000000   45310D0A     DB 45H, 31H, 0DH, 0AH, 0, 0
   \            0000    

   \                                 In  segment XDATA_ROM_C, align 1
   \                     `?<Constant "light-on\\r\\n">`:
   \   000000   6C696768     DB "light-on\015\012"
   \            742D6F6E
   \            0D0A00  

   \                                 In  segment XDATA_ROM_C, align 1
   \                     `?<Constant "light-on\\r\\n\\000">`:
   \   000000   6C696768     DB 6CH, 69H, 67H, 68H, 74H, 2DH, 6FH, 6EH
   \            742D6F6E
   \   000008   0D0A0000     DB 0DH, 0AH, 0, 0

   \                                 In  segment XDATA_ROM_C, align 1
   \                     `?<Constant "light-off\\r\\n">`:
   \   000000   6C696768     DB "light-off\015\012"
   \            742D6F66
   \            660D0A00

   \                                 In  segment XDATA_ROM_C, align 1
   \                     `?<Constant "light-off\\r\\n\\000">`:
   \   000000   6C696768     DB 6CH, 69H, 67H, 68H, 74H, 2DH, 6FH, 66H
   \            742D6F66
   \   000008   660D0A00     DB 66H, 0DH, 0AH, 0, 0
   \            00      

   \                                 In  segment XDATA_ROM_C, align 1
   \                     `?<Constant "humidify\\r\\n">`:
   \   000000   68756D69     DB "humidify\015\012"
   \            64696679
   \            0D0A00  

   \                                 In  segment XDATA_ROM_C, align 1
   \                     `?<Constant "humidify\\r\\n\\000">`:
   \   000000   68756D69     DB 68H, 75H, 6DH, 69H, 64H, 69H, 66H, 79H
   \            64696679
   \   000008   0D0A0000     DB 0DH, 0AH, 0, 0

   \                                 In  segment XDATA_ROM_C, align 1
   \                     `?<Constant "stop-humidify\\r\\n">`:
   \   000000   73746F70     DB "stop-humidify\015\012"
   \            2D68756D
   \            69646966
   \            790D0A00

   \                                 In  segment XDATA_ROM_C, align 1
   \                     `?<Constant "stop-humidify\\r\\n\\000">`:
   \   000000   73746F70     DB 73H, 74H, 6FH, 70H, 2DH, 68H, 75H, 6DH
   \            2D68756D
   \   000008   69646966     DB 69H, 64H, 69H, 66H, 79H, 0DH, 0AH, 0
   \            790D0A00
   \   000010   00           DB 0

   \                                 In  segment XDATA_ROM_C, align 1
   \                     `?<Constant "drain-water\\r\\n">`:
   \   000000   64726169     DB "drain-water\015\012"
   \            6E2D7761
   \            7465720D
   \            0A00    

   \                                 In  segment XDATA_ROM_C, align 1
   \                     `?<Constant "drain-water\\r\\n\\000">`:
   \   000000   64726169     DB 64H, 72H, 61H, 69H, 6EH, 2DH, 77H, 61H
   \            6E2D7761
   \   000008   7465720D     DB 74H, 65H, 72H, 0DH, 0AH, 0, 0
   \            0A0000  

   \                                 In  segment XDATA_ROM_C, align 1
   \                     `?<Constant "change-water\\r\\n">`:
   \   000000   6368616E     DB "change-water\015\012"
   \            67652D77
   \            61746572
   \            0D0A00  

   \                                 In  segment XDATA_ROM_C, align 1
   \                     `?<Constant "change-water\\r\\n\\000">`:
   \   000000   6368616E     DB 63H, 68H, 61H, 6EH, 67H, 65H, 2DH, 77H
   \            67652D77
   \   000008   61746572     DB 61H, 74H, 65H, 72H, 0DH, 0AH, 0, 0
   \            0D0A0000

   \                                 In  segment XDATA_ROM_C, align 1
   \                     `?<Constant "OK">`:
   \   000000   4F4B00       DB "OK"

   \                                 In  segment XDATA_ROM_C, align 1
   \                     `?<Constant "E2\\r\\n\\000">`:
   \   000000   45320D0A     DB 45H, 32H, 0DH, 0AH, 0, 0
   \            0000    

   \                                 In  segment XDATA_ROM_C, align 1
   \                     `?<Constant "temperature?0=%s,1=%s...">`:
   \   000000   74656D70     DB "temperature?0=%s,1=%s&humidity?0=%s,1=%s"
   \            65726174
   \            7572653F
   \            303D2573
   \            2C313D25
   \            73266875
   \            6D696469
   \            74793F30
   \            3D25732C
   \            313D2573
   \            00      

   \                                 In  segment XDATA_ROM_C, align 1
   \                     `?<Constant "E1">`:
   \   000000   453100       DB "E1"

   \                                 In  segment XDATA_ROM_C, align 1
   \                     `?<Constant "received from E1\\r\\n">`:
   \   000000   72656365     DB "received from E1\015\012"
   \            69766564
   \            2066726F
   \            6D204531
   \            0D0A00  

   \                                 In  segment XDATA_ROM_C, align 1
   \                     `?<Constant "E2">`:
   \   000000   453200       DB "E2"

   \                                 In  segment XDATA_ROM_C, align 1
   \                     `?<Constant "received from E2\\r\\n">`:
   \   000000   72656365     DB "received from E2\015\012"
   \            69766564
   \            2066726F
   \            6D204532
   \            0D0A00  

   \                                 In  segment XDATA_ROM_C, align 1
   \                     `?<Constant {48, 49, 50, 51, 52, 53, 54, 55, 56`:
   \   000000   30           DB 48
   \   000001   31           DB 49
   \   000002   32           DB 50
   \   000003   33           DB 51
   \   000004   34           DB 52
   \   000005   35           DB 53
   \   000006   36           DB 54
   \   000007   37           DB 55
   \   000008   38           DB 56
   \   000009   39           DB 57

   \                                 In  segment XDATA_ROM_C, align 1
   \                     `?<Constant "I am Coordinator\\r\\n\\000">`:
   \   000000   4920616D     DB 49H, 20H, 61H, 6DH, 20H, 43H, 6FH, 6FH
   \            20436F6F
   \   000008   7264696E     DB 72H, 64H, 69H, 6EH, 61H, 74H, 6FH, 72H
   \            61746F72
   \   000010   0D0A0000     DB 0DH, 0AH, 0, 0

   \                                 In  segment XDATA_ROM_C, align 1
   \                     `?<Constant "Zigbee Send Succeeded\\r\\n">`:
   \   000000   5A696762     DB "Zigbee Send Succeeded\015\012"
   \            65652053
   \            656E6420
   \            53756363
   \            65656465
   \            640D0A00

   \                                 In  segment XDATA_ROM_C, align 1
   \                     `?<Constant "Zigbee Send Failed\\r\\n">`:
   \   000000   5A696762     DB "Zigbee Send Failed\015\012"
   \            65652053
   \            656E6420
   \            4661696C
   \            65640D0A
   \            00      

   \                                 In  segment XDATA_ROM_C, align 1
   \                     `?<Constant "+++">`:
   \   000000   2B2B2B00     DB "+++"

   \                                 In  segment XDATA_ROM_C, align 1
   \                     `?<Constant "\\r\\n">`:
   \   000000   0D0A00       DB "\015\012"

   \                                 In  segment XDATA_ROM_C, align 1
   \                     `?<Constant "AT+CIPSEND=0,%d\\r\\n">`:
   \   000000   41542B43     DB "AT+CIPSEND=0,%d\015\012"
   \            49505345
   \            4E443D30
   \            2C25640D
   \            0A00    

   \                                 In  segment XDATA_ROM_C, align 1
   \                     `?<Constant "SEND OK\\r\\n">`:
   \   000000   53454E44     DB "SEND OK\015\012"
   \            204F4B0D
   \            0A00    

   \                                 In  segment XDATA_ROM_C, align 1
   \                     `?<Constant "SEND FAIL\\r\\n">`:
   \   000000   53454E44     DB "SEND FAIL\015\012"
   \            20464149
   \            4C0D0A00

   \                                 In  segment XDATA_ROM_C, align 1
   \                     `?<Constant "AT+CIPSEND\\r\\n">`:
   \   000000   41542B43     DB "AT+CIPSEND\015\012"
   \            49505345
   \            4E440D0A
   \            00      

   Maximum stack usage in bytes:

   ISTACK XSTACK Function
   ------ ------ --------
      0    185   SampleApp_HandleKeys
        0     10   -> SampleApp_SendFlashMessage
        0     10   -> aps_AddGroup
        0     10   -> aps_FindGroup
        0     10   -> aps_RemoveGroup
      0     14   SampleApp_Init
        0     11   -> HalUARTWrite
        0     11   -> MT_UartInit
        0     11   -> MT_UartRegisterTaskID
        0     11   -> RegisterForKeys
        0     11   -> afRegister
        0     11   -> aps_AddGroup
        0     14   -> osal_memcpy
      0    189   SampleApp_MessageMSGCB
        0     11   -> _UARTSend
        0     14   -> osal_memcmp
      0    183   SampleApp_ProcessEvent
        0    175   -> HalUARTOpen
        0    175   -> HalUARTWrite
        0    175   -> SampleApp_HandleKeys
        0    175   -> SampleApp_MessageMSGCB
        0    175   -> WiFiRecvApp
        0    175   -> WiFiRecvServer
        0    175   -> WiFiSendApp
        0    175   -> WiFiSendServer
        0    183   -> WiFiSendServer
        0    175   -> _UARTRead
        0    175   -> _UARTSend
        0    179   -> _UARTSend
        0    175   -> _delay_ms
        0    175   -> _zigbeeSend
        0    175   -> exit_send
        0    178   -> osal_memcmp
        0    178   -> osal_memcpy
        0    175   -> osal_msg_deallocate
        0    175   -> osal_msg_receive
        0    177   -> osal_nv_item_init
        0    179   -> osal_nv_read
        0    179   -> osal_nv_write
        0    175   -> osal_rand
        0    175   -> osal_set_event
        0    175   -> osal_start_timerEx
        0    177   -> wait_for
      1     32   SampleApp_SendFlashMessage
        0     22   -> AF_DataRequest
      0     39   SampleApp_SendGroupMessage
        0     39   -> AF_DataRequest
      0     29   SampleApp_SendPeriodicMessage
        0     29   -> AF_DataRequest
      0    258   WiFiRecvApp
        0     80   -> _UARTRead
        0     80   -> _delay_ms
        0     83   -> osal_memcpy
      0    255   WiFiRecvServer
        0     77   -> _UARTRead
        0     77   -> _delay_ms
        0     80   -> osal_memcpy
      1    255   WiFiSendApp
        0     78   -> HalUARTWrite
        0     80   -> _UARTSend
        0     78   -> _delay_ms
        0     80   -> vsprintf
        0     80   -> wait_for
      1    261   WiFiSendServer
        0     76   -> HalUARTWrite
        0     76   -> _UARTSend
        0     76   -> _delay_ms
        0     76   -> exit_send
        0     78   -> vsprintf
      0    184   _UARTRead
        0      9   -> HalUARTRead
      1    257   _UARTSend
        0     76   -> HalUARTWrite
        0     78   -> vsprintf
      0    184   _delay_ms
        0      9   -> _delay_us
      0      9   _delay_us
      1    260   _zigbeeSend
        0     85   -> AF_DataRequest
        0     76   -> _UARTSend
        0     78   -> vsprintf
      0    184   exit_send
        0      9   -> _UARTSend
        0      9   -> _delay_ms
      0    259   wait_for
        0     82   -> _UARTRead
        0     82   -> _UARTSend
        0     82   -> _delay_ms
        0     82   -> strlen


   Segment part sizes:

   Bytes  Function/Label
   -----  --------------
       4  ?<Constant "+++">
      17  ?<Constant "0,CONNECT FAIL\r\n">
      12  ?<Constant "0,CONNECT\r\n">
      15  ?<Constant "AT+CIPMODE=0\r\n">
      15  ?<Constant "AT+CIPMODE=1\r\n">
      14  ?<Constant "AT+CIPMUX=0\r\n">
      14  ?<Constant "AT+CIPMUX=1\r\n">
      18  ?<Constant "AT+CIPSEND=0,%d\r\n">
      13  ?<Constant "AT+CIPSEND\r\n">
      22  ?<Constant "AT+CIPSERVER=1,8266\r\n">
      28  ?<Constant "AT+CIPSTART=\"TCP\",\"%s...">
      21  ?<Constant "AT+CWJAP=\"%s\",\"%s\"\r\n">
      14  ?<Constant "AT+CWMODE=1\r\n">
      14  ?<Constant "AT+CWMODE=2\r\n">
      35  ?<Constant "AT+CWSAP=\"ESP8266\",\"1...">
       9  ?<Constant "AT+RST\r\n">
       9  ?<Constant "CLOSED\r\n">
       6  ?<Constant "CTS\r\n">
       3  ?<Constant "E1">
       6  ?<Constant "E1\r\n\000">
       3  ?<Constant "E2">
       6  ?<Constant "E2\r\n\000">
       8  ?<Constant "ERROR\r\n">
      16  ?<Constant "Enter AP Mode\r\n">
      17  ?<Constant "Enter STA Mode\r\n">
       7  ?<Constant "FAIL\r\n">
       9  ?<Constant "GOT IP\r\n">
      11  ?<Constant "GOT PORT\r\n">
      11  ?<Constant "GOT PSWD\r\n">
      11  ?<Constant "GOT SSID\r\n">
       8  ?<Constant "Group 1">
      13  ?<Constant "Hello World\n">
      20  ?<Constant "I am Coordinator\r\n\000">
       3  ?<Constant "IP">
       3  ?<Constant "OK">
       5  ?<Constant "OK\r\n">
       7  ?<Constant "OVER\r\n">
       5  ?<Constant "PORT">
       5  ?<Constant "PSWD">
      20  ?<Constant "Read Flash Failed\r\n">
      12  ?<Constant "SEND FAIL\r\n">
      10  ?<Constant "SEND OK\r\n">
       5  ?<Constant "SSID">
      22  ?<Constant "UART_1 INITIALIZED!\r\n">
      21  ?<Constant "Zigbee Send Failed\r\n">
      24  ?<Constant "Zigbee Send Succeeded\r\n">
       3  ?<Constant "\r\n">
      15  ?<Constant "change-water\r\n">
      16  ?<Constant "change-water\r\n\000">
      14  ?<Constant "drain-water\r\n">
      15  ?<Constant "drain-water\r\n\000">
      14  ?<Constant "environment\r\n">
      12  ?<Constant "heartbeat\r\n">
      11  ?<Constant "humidify\r\n">
      12  ?<Constant "humidify\r\n\000">
      12  ?<Constant "light-off\r\n">
      13  ?<Constant "light-off\r\n\000">
      11  ?<Constant "light-on\r\n">
      12  ?<Constant "light-on\r\n\000">
       8  ?<Constant "ready\r\n">
      19  ?<Constant "received from E1\r\n">
      19  ?<Constant "received from E2\r\n">
       9  ?<Constant "received">
      16  ?<Constant "stop-humidify\r\n">
      17  ?<Constant "stop-humidify\r\n\000">
      41  ?<Constant "temperature?0=%s,1=%s...">
      10  ?<Constant {48, 49, 50, 51, 52, 53, 54, 55, 56
       6  ??Subroutine37_0
      15  ??Subroutine38_0
       6  ??Subroutine39_0
       9  ??Subroutine40_0
      11  ??Subroutine41_0
       5  ??Subroutine42_0
       3  ??Subroutine43_0
       5  ??Subroutine44_0
       6  ??Subroutine45_0
      13  ??Subroutine46_0
       4  ??Subroutine47_0
       6  ??Subroutine48_0
       6  ??Subroutine49_0
       5  ?Subroutine0
       8  ?Subroutine1
       2  ?Subroutine10
      24  ?Subroutine11
       2  ?Subroutine12
      16  ?Subroutine13
       6  ?Subroutine14
      16  ?Subroutine15
      10  ?Subroutine16
      21  ?Subroutine17
       4  ?Subroutine18
      26  ?Subroutine19
       2  ?Subroutine2
       2  ?Subroutine20
       4  ?Subroutine21
       8  ?Subroutine22
       6  ?Subroutine23
       2  ?Subroutine24
      12  ?Subroutine25
       7  ?Subroutine26
       2  ?Subroutine27
      12  ?Subroutine28
      13  ?Subroutine29
       5  ?Subroutine3
      12  ?Subroutine30
       8  ?Subroutine31
      10  ?Subroutine32
       6  ?Subroutine33
      10  ?Subroutine34
      12  ?Subroutine35
       9  ?Subroutine36
      22  ?Subroutine4
       9  ?Subroutine5
      12  ?Subroutine6
      10  ?Subroutine7
       5  ?Subroutine8
      10  ?Subroutine9
       1  SampleAppFlashCounter
       1  SampleAppPeriodicCounter
       4  SampleApp_ClusterList
      12  SampleApp_Flash_DstAddr
      18  SampleApp_Group
      59  SampleApp_HandleKeys
       6  SampleApp_HandleKeys::?relay
     158  SampleApp_Init
       6  SampleApp_Init::?relay
     151  SampleApp_MessageMSGCB
       6  SampleApp_MessageMSGCB::?relay
       1  SampleApp_NwkState
      12  SampleApp_Periodic_DstAddr
    2358  SampleApp_ProcessEvent
       6  SampleApp_ProcessEvent::?relay
     103  SampleApp_SendFlashMessage
       6  SampleApp_SendFlashMessage::?relay
      85  SampleApp_SendGroupMessage
       6  SampleApp_SendGroupMessage::?relay
      94  SampleApp_SendPeriodicMessage
       6  SampleApp_SendPeriodicMessage::?relay
      12  SampleApp_SimpleDesc
       1  SampleApp_TaskID
       1  SampleApp_TransID
       6  SampleApp_epDesc
     163  WiFiRecvApp
       6  WiFiRecvApp::?relay
     157  WiFiRecvServer
       6  WiFiRecvServer::?relay
     137  WiFiSendApp
       6  WiFiSendApp::?relay
      87  WiFiSendServer
       6  WiFiSendServer::?relay
       1  _A_P0
      81  _UARTRead
       6  _UARTRead::?relay
      71  _UARTSend
       6  _UARTSend::?relay
      25  _delay_ms
       6  _delay_ms::?relay
      33  _delay_us
       6  _delay_us::?relay
       1  _jumpBackID
       1  _zigbeeRecvFlag
     136  _zigbeeSend
       6  _zigbeeSend::?relay
      64  _zigbeeSendBuffer
       1  _zigbeeSendCnt
       1  _zigbeeSendTimes
      21  exit_send
       6  exit_send::?relay
      12  temp_humid
     324  wait_for
       6  wait_for::?relay

 
 4 688 bytes in segment BANKED_CODE
   108 bytes in segment BANK_RELAYS
     1 byte  in segment SFR_AN
   886 bytes in segment XDATA_ROM_C
   133 bytes in segment XDATA_Z
 
   108 bytes of CODE     memory
   886 bytes of CONST    memory
     0 bytes of DATA     memory (+ 1 byte shared)
 4 688 bytes of HUGECODE memory
   133 bytes of XDATA    memory

Errors: none
Warnings: 1
